

Microchip Technology PIC18 LITE Macro Assembler V1.44 build -154322312 
                                                                                               Fri Dec 22 23:22:42 2017

Microchip Technology Omniscient Code Generator v1.44 (Free mode) build 201709140600
     1                           	processor	18F4520
     2                           	fnconf	rparam,??,?,0
     3                           	opt	pw 120
     4                           	opt	lm
     5                           	psect	idataCOMRAM,global,class=CODE,delta=1,noexec
     6                           	psect	idataBIGRAM,global,class=CODE,delta=1,noexec
     7                           	psect	cinit,global,reloc=2,class=CODE,delta=1
     8                           	psect	bssCOMRAM,global,class=COMRAM,space=1,delta=1,noexec
     9                           	psect	dataCOMRAM,global,class=COMRAM,space=1,delta=1,noexec
    10                           	psect	dataBIGRAM,global,class=BIGRAM,space=1,delta=1,lowdata,noexec
    11                           	psect	cstackCOMRAM,global,class=COMRAM,space=1,delta=1,noexec
    12                           	psect	text0,global,reloc=2,class=CODE,delta=1
    13                           	psect	text1,global,reloc=2,class=CODE,delta=1
    14                           	psect	text2,global,reloc=2,class=CODE,delta=1
    15                           	psect	text3,global,reloc=2,class=CODE,delta=1
    16                           	psect	text4,global,reloc=2,class=CODE,delta=1
    17                           	psect	text5,global,reloc=2,class=CODE,delta=1
    18                           	psect	intcode,global,reloc=2,class=CODE,delta=1
    19                           	psect	intcode_body,global,reloc=2,class=CODE,delta=1
    20                           	psect	text7,global,reloc=2,class=CODE,delta=1
    21                           	psect	text8,global,reloc=2,class=CODE,delta=1
    22                           	psect	text9,global,reloc=2,class=CODE,delta=1
    23                           	psect	text10,global,reloc=2,class=CODE,delta=1
    24                           	psect	intsave_regs,global,class=BIGRAM,space=1,delta=1,noexec
    25                           	psect	rparam,global,class=COMRAM,space=1,delta=1,noexec
    26                           	psect	temp,global,ovrld,common,class=COMRAM,space=1,delta=1
    27  0000                     
    28                           ; Version 1.44
    29                           ; Generated 14/09/2017 GMT
    30                           ; 
    31                           ; Copyright © 2017, Microchip Technology Inc. and its subsidiaries ("Microchip")
    32                           ; All rights reserved.
    33                           ; 
    34                           ; This software is developed by Microchip Technology Inc. and its subsidiaries ("Microch
      +                          ip").
    35                           ; 
    36                           ; Redistribution and use in source and binary forms, with or without modification, are
    37                           ; permitted provided that the following conditions are met:
    38                           ; 
    39                           ;     1. Redistributions of source code must retain the above copyright notice, this lis
      +                          t of
    40                           ;        conditions and the following disclaimer.
    41                           ; 
    42                           ;     2. Redistributions in binary form must reproduce the above copyright notice, this 
      +                          list
    43                           ;        of conditions and the following disclaimer in the documentation and/or other
    44                           ;        materials provided with the distribution.
    45                           ; 
    46                           ;     3. Microchip's name may not be used to endorse or promote products derived from th
      +                          is
    47                           ;        software without specific prior written permission.
    48                           ; 
    49                           ; THIS SOFTWARE IS PROVIDED BY MICROCHIP "AS IS" AND ANY EXPRESS OR IMPLIED WARRANTIES,
    50                           ; INCLUDING, BUT NOT LIMITED TO, THE IMPLIED WARRANTIES OF MERCHANTABILITY AND FITNESS F
      +                          OR
    51                           ; PURPOSE ARE DISCLAIMED.  IN NO EVENT SHALL MICROCHIP BE LIABLE FOR ANY DIRECT, INDIREC
      +                          T,
    52                           ; INCIDENTAL, SPECIAL, EXEMPLARY, OR CONSEQUENTIAL DAMAGES (INCLUDING BUT NOT LIMITED TO
    53                           ; PROCUREMENT OF SUBSTITUTE GOODS OR SERVICES; LOSS OF USE, DATA OR PROFITS; OR BUSINESS
    54                           ; INTERRUPTION) HOWSOEVER CAUSED AND ON ANY THEORY OF LIABILITY, WHETHER IN CONTRACT, ST
      +                          RICT
    55                           ; LIABILITY, OR TORT (INCLUDING NEGLIGENCE OR OTHERWISE) ARISING IN ANY WAY OUT OF THE U
      +                          SE OF
    56                           ; THIS SOFTWARE, EVEN IF ADVISED OF THE POSSIBILITY OF SUCH DAMAGE.
    57                           ; 
    58                           ; 
    59                           ; Code-generator required, PIC18F4520 Definitions
    60                           ; 
    61                           ; SFR Addresses
    62  0000                     
    63                           	psect	idataCOMRAM
    64  00050C                     __pidataCOMRAM:
    65                           	opt stack 0
    66                           
    67                           ;initializer for _TAIL
    68  00050C  FF                 	db	low (_data+599)
    69  00050D  05                 	db	high (_data+599)
    70                           
    71                           ;initializer for _NOW
    72  00050E  22                 	db	low (_data+122)
    73  00050F  04                 	db	high (_data+122)
    74                           
    75                           	psect	idataBIGRAM
    76  000012                     __pidataBIGRAM:
    77                           	opt stack 0
    78                           
    79                           ;initializer for _data
    80  000012  7F                 	db	127
    81  000013  7F                 	db	127
    82  000014  30                 	db	48
    83  000015  18                 	db	24
    84  000016  30                 	db	48
    85  000017  7F                 	db	127
    86  000018  7F                 	db	127
    87  000019  00                 	db	0
    88  00001A  00                 	db	0
    89  00001B  38                 	db	56
    90  00001C  7C                 	db	124
    91  00001D  54                 	db	84
    92  00001E  54                 	db	84
    93  00001F  5C                 	db	92
    94  000020  18                 	db	24
    95  000021  00                 	db	0
    96  000022  00                 	db	0
    97  000023  41                 	db	65
    98  000024  7F                 	db	127
    99  000025  7F                 	db	127
   100  000026  40                 	db	64
   101  000027  00                 	db	0
   102  000028  00                 	db	0
   103  000029  00                 	db	0
   104  00002A  38                 	db	56
   105  00002B  7C                 	db	124
   106  00002C  44                 	db	68
   107  00002D  44                 	db	68
   108  00002E  6C                 	db	108
   109  00002F  28                 	db	40
   110  000030  00                 	db	0
   111  000031  00                 	db	0
   112  000032  38                 	db	56
   113  000033  7C                 	db	124
   114  000034  44                 	db	68
   115  000035  44                 	db	68
   116  000036  7C                 	db	124
   117  000037  38                 	db	56
   118  000038  00                 	db	0
   119  000039  00                 	db	0
   120  00003A  7C                 	db	124
   121  00003B  7C                 	db	124
   122  00003C  18                 	db	24
   123  00003D  30                 	db	48
   124  00003E  1C                 	db	28
   125  00003F  7C                 	db	124
   126  000040  78                 	db	120
   127  000041  00                 	db	0
   128  000042  38                 	db	56
   129  000043  7C                 	db	124
   130  000044  54                 	db	84
   131  000045  54                 	db	84
   132  000046  5C                 	db	92
   133  000047  18                 	db	24
   134  000048  00                 	db	0
   135  000049  00                 	db	0
   136  00004A  00                 	db	0
   137  00004B  00                 	db	0
   138  00004C  00                 	db	0
   139  00004D  00                 	db	0
   140  00004E  00                 	db	0
   141  00004F  00                 	db	0
   142  000050  00                 	db	0
   143  000051  00                 	db	0
   144  000052  00                 	db	0
   145  000053  04                 	db	4
   146  000054  3E                 	db	62
   147  000055  7F                 	db	127
   148  000056  44                 	db	68
   149  000057  44                 	db	68
   150  000058  20                 	db	32
   151  000059  00                 	db	0
   152  00005A  38                 	db	56
   153  00005B  7C                 	db	124
   154  00005C  44                 	db	68
   155  00005D  44                 	db	68
   156  00005E  7C                 	db	124
   157  00005F  38                 	db	56
   158  000060  00                 	db	0
   159  000061  00                 	db	0
   160  000062  00                 	db	0
   161  000063  00                 	db	0
   162  000064  00                 	db	0
   163  000065  00                 	db	0
   164  000066  00                 	db	0
   165  000067  00                 	db	0
   166  000068  00                 	db	0
   167  000069  00                 	db	0
   168  00006A  40                 	db	64
   169  00006B  68                 	db	104
   170  00006C  7A                 	db	122
   171  00006D  FF                 	db	255
   172  00006E  FF                 	db	255
   173  00006F  7A                 	db	122
   174  000070  68                 	db	104
   175  000071  40                 	db	64
   176  000072  00                 	db	0
   177  000073  00                 	db	0
   178  000074  00                 	db	0
   179  000075  00                 	db	0
   180  000076  00                 	db	0
   181  000077  00                 	db	0
   182  000078  00                 	db	0
   183  000079  00                 	db	0
   184  00007A  00                 	db	0
   185  00007B  00                 	db	0
   186  00007C  00                 	db	0
   187  00007D  00                 	db	0
   188  00007E  00                 	db	0
   189  00007F  00                 	db	0
   190  000080  00                 	db	0
   191  000081  00                 	db	0
   192  000082  00                 	db	0
   193  000083  00                 	db	0
   194  000084  00                 	db	0
   195  000085  00                 	db	0
   196  000086  00                 	db	0
   197  000087  00                 	db	0
   198  000088  00                 	db	0
   199  000089  00                 	db	0
   200  00008A  00                 	db	0
   201  00008B  00                 	db	0
   202  00008C  00                 	db	0
   203  00008D  00                 	db	0
   204  00008E  00                 	db	0
   205  00008F  00                 	db	0
   206  000090  00                 	db	0
   207  000091  00                 	db	0
   208  000092  00                 	db	0
   209  000093  00                 	db	0
   210  000094  00                 	db	0
   211  000095  00                 	db	0
   212  000096  00                 	db	0
   213  000097  00                 	db	0
   214  000098  00                 	db	0
   215  000099  00                 	db	0
   216  00009A  00                 	db	0
   217  00009B  00                 	db	0
   218  00009C  00                 	db	0
   219  00009D  00                 	db	0
   220  00009E  00                 	db	0
   221  00009F  00                 	db	0
   222  0000A0  00                 	db	0
   223  0000A1  00                 	db	0
   224  0000A2  00                 	db	0
   225  0000A3  00                 	db	0
   226  0000A4  00                 	db	0
   227  0000A5  00                 	db	0
   228  0000A6  00                 	db	0
   229  0000A7  00                 	db	0
   230  0000A8  00                 	db	0
   231  0000A9  00                 	db	0
   232  0000AA  00                 	db	0
   233  0000AB  00                 	db	0
   234  0000AC  00                 	db	0
   235  0000AD  00                 	db	0
   236  0000AE  00                 	db	0
   237  0000AF  00                 	db	0
   238  0000B0  00                 	db	0
   239  0000B1  00                 	db	0
   240  0000B2  00                 	db	0
   241  0000B3  00                 	db	0
   242  0000B4  00                 	db	0
   243  0000B5  00                 	db	0
   244  0000B6  00                 	db	0
   245  0000B7  00                 	db	0
   246  0000B8  00                 	db	0
   247  0000B9  00                 	db	0
   248  0000BA  00                 	db	0
   249  0000BB  00                 	db	0
   250  0000BC  00                 	db	0
   251  0000BD  00                 	db	0
   252  0000BE  00                 	db	0
   253  0000BF  00                 	db	0
   254  0000C0  00                 	db	0
   255  0000C1  00                 	db	0
   256  0000C2  00                 	db	0
   257  0000C3  00                 	db	0
   258  0000C4  00                 	db	0
   259  0000C5  00                 	db	0
   260  0000C6  00                 	db	0
   261  0000C7  00                 	db	0
   262  0000C8  00                 	db	0
   263  0000C9  00                 	db	0
   264  0000CA  00                 	db	0
   265  0000CB  00                 	db	0
   266  0000CC  00                 	db	0
   267  0000CD  00                 	db	0
   268  0000CE  00                 	db	0
   269  0000CF  00                 	db	0
   270  0000D0  00                 	db	0
   271  0000D1  00                 	db	0
   272  0000D2  00                 	db	0
   273  0000D3  00                 	db	0
   274  0000D4  00                 	db	0
   275  0000D5  00                 	db	0
   276  0000D6  00                 	db	0
   277  0000D7  00                 	db	0
   278  0000D8  00                 	db	0
   279  0000D9  00                 	db	0
   280  0000DA  00                 	db	0
   281  0000DB  00                 	db	0
   282  0000DC  00                 	db	0
   283  0000DD  00                 	db	0
   284  0000DE  00                 	db	0
   285  0000DF  00                 	db	0
   286  0000E0  00                 	db	0
   287  0000E1  00                 	db	0
   288  0000E2  00                 	db	0
   289  0000E3  00                 	db	0
   290  0000E4  00                 	db	0
   291  0000E5  00                 	db	0
   292  0000E6  00                 	db	0
   293  0000E7  00                 	db	0
   294  0000E8  00                 	db	0
   295  0000E9  00                 	db	0
   296  0000EA  00                 	db	0
   297  0000EB  00                 	db	0
   298  0000EC  00                 	db	0
   299  0000ED  00                 	db	0
   300  0000EE  00                 	db	0
   301  0000EF  00                 	db	0
   302  0000F0  00                 	db	0
   303  0000F1  00                 	db	0
   304  0000F2  00                 	db	0
   305  0000F3  00                 	db	0
   306  0000F4  00                 	db	0
   307  0000F5  00                 	db	0
   308  0000F6  00                 	db	0
   309  0000F7  00                 	db	0
   310  0000F8  00                 	db	0
   311  0000F9  00                 	db	0
   312  0000FA  00                 	db	0
   313  0000FB  00                 	db	0
   314  0000FC  00                 	db	0
   315  0000FD  00                 	db	0
   316  0000FE  00                 	db	0
   317  0000FF  00                 	db	0
   318  000100  00                 	db	0
   319  000101  00                 	db	0
   320  000102  00                 	db	0
   321  000103  00                 	db	0
   322  000104  00                 	db	0
   323  000105  00                 	db	0
   324  000106  00                 	db	0
   325  000107  00                 	db	0
   326  000108  00                 	db	0
   327  000109  00                 	db	0
   328  00010A  00                 	db	0
   329  00010B  00                 	db	0
   330  00010C  00                 	db	0
   331  00010D  00                 	db	0
   332  00010E  00                 	db	0
   333  00010F  00                 	db	0
   334  000110  00                 	db	0
   335  000111  00                 	db	0
   336  000112  00                 	db	0
   337  000113  00                 	db	0
   338  000114  00                 	db	0
   339  000115  00                 	db	0
   340  000116  00                 	db	0
   341  000117  00                 	db	0
   342  000118  00                 	db	0
   343  000119  00                 	db	0
   344  00011A  00                 	db	0
   345  00011B  00                 	db	0
   346  00011C  00                 	db	0
   347  00011D  00                 	db	0
   348  00011E  00                 	db	0
   349  00011F  00                 	db	0
   350  000120  00                 	db	0
   351  000121  00                 	db	0
   352  000122  00                 	db	0
   353  000123  00                 	db	0
   354  000124  00                 	db	0
   355  000125  00                 	db	0
   356  000126  00                 	db	0
   357  000127  00                 	db	0
   358  000128  00                 	db	0
   359  000129  00                 	db	0
   360  00012A  00                 	db	0
   361  00012B  00                 	db	0
   362  00012C  00                 	db	0
   363  00012D  00                 	db	0
   364  00012E  00                 	db	0
   365  00012F  00                 	db	0
   366  000130  00                 	db	0
   367  000131  00                 	db	0
   368  000132  00                 	db	0
   369  000133  00                 	db	0
   370  000134  00                 	db	0
   371  000135  00                 	db	0
   372  000136  00                 	db	0
   373  000137  00                 	db	0
   374  000138  00                 	db	0
   375  000139  00                 	db	0
   376  00013A  00                 	db	0
   377  00013B  00                 	db	0
   378  00013C  00                 	db	0
   379  00013D  00                 	db	0
   380  00013E  00                 	db	0
   381  00013F  00                 	db	0
   382  000140  00                 	db	0
   383  000141  00                 	db	0
   384  000142  00                 	db	0
   385  000143  00                 	db	0
   386  000144  00                 	db	0
   387  000145  00                 	db	0
   388  000146  00                 	db	0
   389  000147  00                 	db	0
   390  000148  00                 	db	0
   391  000149  00                 	db	0
   392  00014A  00                 	db	0
   393  00014B  00                 	db	0
   394  00014C  00                 	db	0
   395  00014D  00                 	db	0
   396  00014E  00                 	db	0
   397  00014F  00                 	db	0
   398  000150  00                 	db	0
   399  000151  00                 	db	0
   400  000152  00                 	db	0
   401  000153  00                 	db	0
   402  000154  00                 	db	0
   403  000155  00                 	db	0
   404  000156  00                 	db	0
   405  000157  00                 	db	0
   406  000158  00                 	db	0
   407  000159  00                 	db	0
   408  00015A  00                 	db	0
   409  00015B  00                 	db	0
   410  00015C  00                 	db	0
   411  00015D  00                 	db	0
   412  00015E  00                 	db	0
   413  00015F  00                 	db	0
   414  000160  00                 	db	0
   415  000161  00                 	db	0
   416  000162  00                 	db	0
   417  000163  00                 	db	0
   418  000164  00                 	db	0
   419  000165  00                 	db	0
   420  000166  00                 	db	0
   421  000167  00                 	db	0
   422  000168  00                 	db	0
   423  000169  00                 	db	0
   424  00016A  00                 	db	0
   425  00016B  00                 	db	0
   426  00016C  00                 	db	0
   427  00016D  00                 	db	0
   428  00016E  00                 	db	0
   429  00016F  00                 	db	0
   430  000170  00                 	db	0
   431  000171  00                 	db	0
   432  000172  00                 	db	0
   433  000173  00                 	db	0
   434  000174  00                 	db	0
   435  000175  00                 	db	0
   436  000176  00                 	db	0
   437  000177  00                 	db	0
   438  000178  00                 	db	0
   439  000179  00                 	db	0
   440  00017A  00                 	db	0
   441  00017B  00                 	db	0
   442  00017C  00                 	db	0
   443  00017D  00                 	db	0
   444  00017E  00                 	db	0
   445  00017F  00                 	db	0
   446  000180  00                 	db	0
   447  000181  00                 	db	0
   448  000182  00                 	db	0
   449  000183  00                 	db	0
   450  000184  00                 	db	0
   451  000185  00                 	db	0
   452  000186  00                 	db	0
   453  000187  00                 	db	0
   454  000188  00                 	db	0
   455  000189  00                 	db	0
   456  00018A  00                 	db	0
   457  00018B  00                 	db	0
   458  00018C  00                 	db	0
   459  00018D  00                 	db	0
   460  00018E  00                 	db	0
   461  00018F  00                 	db	0
   462  000190  00                 	db	0
   463  000191  00                 	db	0
   464  000192  00                 	db	0
   465  000193  00                 	db	0
   466  000194  00                 	db	0
   467  000195  00                 	db	0
   468  000196  00                 	db	0
   469  000197  00                 	db	0
   470  000198  00                 	db	0
   471  000199  00                 	db	0
   472  00019A  00                 	db	0
   473  00019B  00                 	db	0
   474  00019C  00                 	db	0
   475  00019D  00                 	db	0
   476  00019E  00                 	db	0
   477  00019F  00                 	db	0
   478  0001A0  00                 	db	0
   479  0001A1  00                 	db	0
   480  0001A2  00                 	db	0
   481  0001A3  00                 	db	0
   482  0001A4  00                 	db	0
   483  0001A5  00                 	db	0
   484  0001A6  00                 	db	0
   485  0001A7  00                 	db	0
   486  0001A8  00                 	db	0
   487  0001A9  00                 	db	0
   488  0001AA  00                 	db	0
   489  0001AB  00                 	db	0
   490  0001AC  00                 	db	0
   491  0001AD  00                 	db	0
   492  0001AE  00                 	db	0
   493  0001AF  00                 	db	0
   494  0001B0  00                 	db	0
   495  0001B1  00                 	db	0
   496  0001B2  00                 	db	0
   497  0001B3  00                 	db	0
   498  0001B4  00                 	db	0
   499  0001B5  00                 	db	0
   500  0001B6  00                 	db	0
   501  0001B7  00                 	db	0
   502  0001B8  00                 	db	0
   503  0001B9  00                 	db	0
   504  0001BA  00                 	db	0
   505  0001BB  00                 	db	0
   506  0001BC  00                 	db	0
   507  0001BD  00                 	db	0
   508  0001BE  00                 	db	0
   509  0001BF  00                 	db	0
   510  0001C0  00                 	db	0
   511  0001C1  00                 	db	0
   512  0001C2  00                 	db	0
   513  0001C3  00                 	db	0
   514  0001C4  00                 	db	0
   515  0001C5  00                 	db	0
   516  0001C6  00                 	db	0
   517  0001C7  00                 	db	0
   518  0001C8  00                 	db	0
   519  0001C9  00                 	db	0
   520  0001CA  00                 	db	0
   521  0001CB  00                 	db	0
   522  0001CC  00                 	db	0
   523  0001CD  00                 	db	0
   524  0001CE  00                 	db	0
   525  0001CF  00                 	db	0
   526  0001D0  00                 	db	0
   527  0001D1  00                 	db	0
   528  0001D2  00                 	db	0
   529  0001D3  00                 	db	0
   530  0001D4  00                 	db	0
   531  0001D5  00                 	db	0
   532  0001D6  00                 	db	0
   533  0001D7  00                 	db	0
   534  0001D8  00                 	db	0
   535  0001D9  00                 	db	0
   536  0001DA  00                 	db	0
   537  0001DB  00                 	db	0
   538  0001DC  00                 	db	0
   539  0001DD  00                 	db	0
   540  0001DE  00                 	db	0
   541  0001DF  00                 	db	0
   542  0001E0  00                 	db	0
   543  0001E1  00                 	db	0
   544  0001E2  00                 	db	0
   545  0001E3  00                 	db	0
   546  0001E4  00                 	db	0
   547  0001E5  00                 	db	0
   548  0001E6  00                 	db	0
   549  0001E7  00                 	db	0
   550  0001E8  00                 	db	0
   551  0001E9  00                 	db	0
   552  0001EA  00                 	db	0
   553  0001EB  00                 	db	0
   554  0001EC  00                 	db	0
   555  0001ED  00                 	db	0
   556  0001EE  00                 	db	0
   557  0001EF  00                 	db	0
   558  0001F0  00                 	db	0
   559  0001F1  00                 	db	0
   560  0001F2  00                 	db	0
   561  0001F3  00                 	db	0
   562  0001F4  00                 	db	0
   563  0001F5  00                 	db	0
   564  0001F6  00                 	db	0
   565  0001F7  00                 	db	0
   566  0001F8  00                 	db	0
   567  0001F9  00                 	db	0
   568  0001FA  00                 	db	0
   569  0001FB  00                 	db	0
   570  0001FC  00                 	db	0
   571  0001FD  00                 	db	0
   572  0001FE  00                 	db	0
   573  0001FF  00                 	db	0
   574  000200  00                 	db	0
   575  000201  00                 	db	0
   576  000202  00                 	db	0
   577  000203  00                 	db	0
   578  000204  00                 	db	0
   579  000205  00                 	db	0
   580  000206  00                 	db	0
   581  000207  00                 	db	0
   582  000208  00                 	db	0
   583  000209  00                 	db	0
   584  00020A  00                 	db	0
   585  00020B  00                 	db	0
   586  00020C  00                 	db	0
   587  00020D  00                 	db	0
   588  00020E  00                 	db	0
   589  00020F  00                 	db	0
   590  000210  00                 	db	0
   591  000211  00                 	db	0
   592  000212  00                 	db	0
   593  000213  00                 	db	0
   594  000214  00                 	db	0
   595  000215  00                 	db	0
   596  000216  00                 	db	0
   597  000217  00                 	db	0
   598  000218  00                 	db	0
   599  000219  00                 	db	0
   600  00021A  00                 	db	0
   601  00021B  00                 	db	0
   602  00021C  00                 	db	0
   603  00021D  00                 	db	0
   604  00021E  00                 	db	0
   605  00021F  00                 	db	0
   606  000220  00                 	db	0
   607  000221  00                 	db	0
   608  000222  00                 	db	0
   609  000223  00                 	db	0
   610  000224  00                 	db	0
   611  000225  00                 	db	0
   612  000226  00                 	db	0
   613  000227  00                 	db	0
   614  000228  00                 	db	0
   615  000229  00                 	db	0
   616  00022A  00                 	db	0
   617  00022B  00                 	db	0
   618  00022C  00                 	db	0
   619  00022D  00                 	db	0
   620  00022E  00                 	db	0
   621  00022F  00                 	db	0
   622  000230  00                 	db	0
   623  000231  00                 	db	0
   624  000232  00                 	db	0
   625  000233  00                 	db	0
   626  000234  00                 	db	0
   627  000235  00                 	db	0
   628  000236  00                 	db	0
   629  000237  00                 	db	0
   630  000238  00                 	db	0
   631  000239  00                 	db	0
   632  00023A  00                 	db	0
   633  00023B  00                 	db	0
   634  00023C  00                 	db	0
   635  00023D  00                 	db	0
   636  00023E  00                 	db	0
   637  00023F  00                 	db	0
   638  000240  00                 	db	0
   639  000241  00                 	db	0
   640  000242  00                 	db	0
   641  000243  00                 	db	0
   642  000244  00                 	db	0
   643  000245  00                 	db	0
   644  000246  00                 	db	0
   645  000247  00                 	db	0
   646  000248  00                 	db	0
   647  000249  00                 	db	0
   648  00024A  00                 	db	0
   649  00024B  00                 	db	0
   650  00024C  00                 	db	0
   651  00024D  00                 	db	0
   652  00024E  00                 	db	0
   653  00024F  00                 	db	0
   654  000250  00                 	db	0
   655  000251  00                 	db	0
   656  000252  00                 	db	0
   657  000253  00                 	db	0
   658  000254  00                 	db	0
   659  000255  00                 	db	0
   660  000256  00                 	db	0
   661  000257  00                 	db	0
   662  000258  00                 	db	0
   663  000259  00                 	db	0
   664  00025A  00                 	db	0
   665  00025B  00                 	db	0
   666  00025C  00                 	db	0
   667  00025D  00                 	db	0
   668  00025E  00                 	db	0
   669  00025F  00                 	db	0
   670  000260  00                 	db	0
   671  000261  00                 	db	0
   672  000262  00                 	db	0
   673  000263  00                 	db	0
   674  000264  00                 	db	0
   675  000265  00                 	db	0
   676  000266  00                 	db	0
   677  000267  00                 	db	0
   678  000268  00                 	db	0
   679  000269  00                 	db	0
   680  0000                     _IPR1bits	set	3999
   681  0000                     _PIE1bits	set	3997
   682  0000                     _PIR1bits	set	3998
   683  0000                     _RCSTAbits	set	4011
   684  0000                     _SPBRG	set	4015
   685  0000                     _TXSTAbits	set	4012
   686  0000                     _BAUDCONbits	set	4024
   687  0000                     _TRISCbits	set	3988
   688  0000                     _TXREG	set	4013
   689  0000                     _RCREG	set	4014
   690  0000                     _INTCONbits	set	4082
   691  0000                     _RCONbits	set	4048
   692  0000                     _LATA	set	3977
   693  0000                     _TRISA	set	3986
   694  0000                     _TRISD	set	3989
   695  0000                     _OSCCONbits	set	4051
   696  0000                     _RCIF	set	31989
   697                           
   698                           ; #config settings
   699  0000                     
   700                           	psect	cinit
   701  0003A2                     __pcinit:
   702                           	opt stack 0
   703  0003A2                     start_initialization:
   704                           	opt stack 0
   705  0003A2                     __initialization:
   706                           	opt stack 0
   707                           
   708                           ; Initialize objects allocated to BIGRAM (600 bytes)
   709                           ; load TBLPTR registers with __pidataBIGRAM
   710  0003A2  0E12               	movlw	low __pidataBIGRAM
   711  0003A4  6EF6               	movwf	tblptrl,c
   712  0003A6  0E00               	movlw	high __pidataBIGRAM
   713  0003A8  6EF7               	movwf	tblptrh,c
   714  0003AA  0E00               	movlw	low (__pidataBIGRAM shr (0+16))
   715  0003AC  6EF8               	movwf	tblptru,c
   716  0003AE  EE03  F0A8         	lfsr	0,__pdataBIGRAM
   717  0003B2  EE12 F058          	lfsr	1,600
   718  0003B6                     copy_data0:
   719  0003B6  0009               	tblrd		*+
   720  0003B8  CFF5 FFEE          	movff	tablat,postinc0
   721  0003BC  50E5               	movf	postdec1,w,c
   722  0003BE  50E1               	movf	fsr1l,w,c
   723  0003C0  E1FA               	bnz	copy_data0
   724  0003C2  50E2               	movf	fsr1h,w,c
   725  0003C4  E1F8               	bnz	copy_data0
   726                           
   727                           ; Initialize objects allocated to COMRAM (4 bytes)
   728                           ; load TBLPTR registers with __pidataCOMRAM
   729  0003C6  0E0C               	movlw	low __pidataCOMRAM
   730  0003C8  6EF6               	movwf	tblptrl,c
   731  0003CA  0E05               	movlw	high __pidataCOMRAM
   732  0003CC  6EF7               	movwf	tblptrh,c
   733  0003CE  0E00               	movlw	low (__pidataCOMRAM shr (0+16))
   734  0003D0  6EF8               	movwf	tblptru,c
   735  0003D2  EE00  F026         	lfsr	0,__pdataCOMRAM
   736  0003D6  EE10 F004          	lfsr	1,4
   737  0003DA                     copy_data1:
   738  0003DA  0009               	tblrd		*+
   739  0003DC  CFF5 FFEE          	movff	tablat,postinc0
   740  0003E0  50E5               	movf	postdec1,w,c
   741  0003E2  50E1               	movf	fsr1l,w,c
   742  0003E4  E1FA               	bnz	copy_data1
   743                           
   744                           ; Clear objects allocated to COMRAM (3 bytes)
   745  0003E6  6A2C               	clrf	(__pbssCOMRAM+2)& (0+255),c
   746  0003E8  6A2B               	clrf	(__pbssCOMRAM+1)& (0+255),c
   747  0003EA  6A2A               	clrf	__pbssCOMRAM& (0+255),c
   748  0003EC                     end_of_initialization:
   749                           	opt stack 0
   750  0003EC                     __end_of__initialization:
   751                           	opt stack 0
   752  0003EC  902D               	bcf	int$flags,0,c	;clear compiler interrupt flag (level 1)
   753  0003EE  922D               	bcf	int$flags,1,c	;clear compiler interrupt flag (level 2)
   754  0003F0  0100               	movlb	0
   755  0003F2  EFFB  F001         	goto	_main	;jump to C main() function
   756                           tblptru	equ	0xFF8
   757                           tblptrh	equ	0xFF7
   758                           tblptrl	equ	0xFF6
   759                           tablat	equ	0xFF5
   760                           postinc0	equ	0xFEE
   761                           postdec1	equ	0xFE5
   762                           fsr1h	equ	0xFE2
   763                           fsr1l	equ	0xFE1
   764                           
   765                           	psect	bssCOMRAM
   766  00002A                     __pbssCOMRAM:
   767                           	opt stack 0
   768  00002A                     _stringC:
   769                           	opt stack 0
   770  00002A                     	ds	2
   771  00002C                     _global_char:
   772                           	opt stack 0
   773  00002C                     	ds	1
   774                           tblptru	equ	0xFF8
   775                           tblptrh	equ	0xFF7
   776                           tblptrl	equ	0xFF6
   777                           tablat	equ	0xFF5
   778                           postinc0	equ	0xFEE
   779                           postdec1	equ	0xFE5
   780                           fsr1h	equ	0xFE2
   781                           fsr1l	equ	0xFE1
   782                           
   783                           	psect	dataCOMRAM
   784  000026                     __pdataCOMRAM:
   785                           	opt stack 0
   786  000026                     _TAIL:
   787                           	opt stack 0
   788  000026                     	ds	2
   789  000028                     _NOW:
   790                           	opt stack 0
   791  000028                     	ds	2
   792                           tblptru	equ	0xFF8
   793                           tblptrh	equ	0xFF7
   794                           tblptrl	equ	0xFF6
   795                           tablat	equ	0xFF5
   796                           postinc0	equ	0xFEE
   797                           postdec1	equ	0xFE5
   798                           fsr1h	equ	0xFE2
   799                           fsr1l	equ	0xFE1
   800                           
   801                           	psect	dataBIGRAM
   802  0003A8                     __pdataBIGRAM:
   803                           	opt stack 0
   804  0003A8                     _data:
   805                           	opt stack 0
   806  0003A8                     	ds	600
   807                           tblptru	equ	0xFF8
   808                           tblptrh	equ	0xFF7
   809                           tblptrl	equ	0xFF6
   810                           tablat	equ	0xFF5
   811                           postinc0	equ	0xFEE
   812                           postdec1	equ	0xFE5
   813                           fsr1h	equ	0xFE2
   814                           fsr1l	equ	0xFE1
   815                           
   816                           	psect	cstackCOMRAM
   817  000001                     __pcstackCOMRAM:
   818                           	opt stack 0
   819  000001                     ?i2_next:
   820                           	opt stack 0
   821  000001                     Myusartwrite@a:
   822                           	opt stack 0
   823  000001                     i2next@ptr:
   824                           	opt stack 0
   825                           
   826                           ; 2 bytes @ 0x0
   827  000001                     	ds	2
   828  000003                     add_word@c:
   829                           	opt stack 0
   830                           
   831                           ; 1 bytes @ 0x2
   832  000003                     	ds	1
   833  000004                     ??_Hi_ISR:
   834                           
   835                           ; 1 bytes @ 0x3
   836  000004                     	ds	18
   837  000016                     ?_next:
   838                           	opt stack 0
   839  000016                     ?_prev:
   840                           	opt stack 0
   841  000016                     prev@ptr:
   842                           	opt stack 0
   843  000016                     next@ptr:
   844                           	opt stack 0
   845                           
   846                           ; 2 bytes @ 0x15
   847  000016                     	ds	2
   848  000018                     LED_DISP@start:
   849                           	opt stack 0
   850                           
   851                           ; 2 bytes @ 0x17
   852  000018                     	ds	2
   853  00001A                     LED_DISP@bright:
   854                           	opt stack 0
   855                           
   856                           ; 2 bytes @ 0x19
   857  00001A                     	ds	2
   858  00001C                     LED_DISP@dark:
   859                           	opt stack 0
   860                           
   861                           ; 2 bytes @ 0x1B
   862  00001C                     	ds	2
   863  00001E                     LED_DISP@delay:
   864                           	opt stack 0
   865                           
   866                           ; 2 bytes @ 0x1D
   867  00001E                     	ds	2
   868  000020                     LED_DISP@iter:
   869                           	opt stack 0
   870                           
   871                           ; 2 bytes @ 0x1F
   872  000020                     	ds	2
   873  000022                     LED_DISP@i:
   874                           	opt stack 0
   875                           
   876                           ; 2 bytes @ 0x21
   877  000022                     	ds	2
   878  000024                     main@start:
   879                           	opt stack 0
   880                           
   881                           ; 2 bytes @ 0x23
   882  000024                     	ds	2
   883                           tblptru	equ	0xFF8
   884                           tblptrh	equ	0xFF7
   885                           tblptrl	equ	0xFF6
   886                           tablat	equ	0xFF5
   887                           postinc0	equ	0xFEE
   888                           postdec1	equ	0xFE5
   889                           fsr1h	equ	0xFE2
   890                           fsr1l	equ	0xFE1
   891                           
   892 ;;
   893 ;;Main: autosize = 0, tempsize = 0, incstack = 0, save=0
   894 ;;
   895 ;; *************** function _main *****************
   896 ;; Defined at:
   897 ;;		line 197 in file "main.c"
   898 ;; Parameters:    Size  Location     Type
   899 ;;		None
   900 ;; Auto vars:     Size  Location     Type
   901 ;;  start           2   35[COMRAM] PTR unsigned char 
   902 ;;		 -> data(600), 
   903 ;; Return value:  Size  Location     Type
   904 ;;                  1    wreg      void 
   905 ;; Registers used:
   906 ;;		wreg, fsr2l, fsr2h, status,2, status,0, cstack
   907 ;; Tracked objects:
   908 ;;		On entry : 0/0
   909 ;;		On exit  : 0/0
   910 ;;		Unchanged: 0/0
   911 ;; Data sizes:     COMRAM   BANK0   BANK1   BANK2   BANK3   BANK4   BANK5
   912 ;;      Params:         0       0       0       0       0       0       0
   913 ;;      Locals:         2       0       0       0       0       0       0
   914 ;;      Temps:          0       0       0       0       0       0       0
   915 ;;      Totals:         2       0       0       0       0       0       0
   916 ;;Total ram usage:        2 bytes
   917 ;; Hardware stack levels required when called:    6
   918 ;; This function calls:
   919 ;;		_ISR_Init
   920 ;;		_LED_DISP
   921 ;;		_Myusartinit
   922 ;;		_next
   923 ;; This function is called by:
   924 ;;		Startup code after reset
   925 ;; This function uses a non-reentrant model
   926 ;;
   927                           
   928                           	psect	text0
   929  0003F6                     __ptext0:
   930                           	opt stack 0
   931  0003F6                     _main:
   932                           	opt stack 25
   933                           
   934                           ;main.c: 198: OSCCONbits.IRCF = 0b110;
   935                           
   936                           ;incstack = 0
   937  0003F6  50D3               	movf	4051,w,c	;volatile
   938  0003F8  0B8F               	andlw	-113
   939  0003FA  0960               	iorlw	96
   940  0003FC  6ED3               	movwf	4051,c	;volatile
   941                           
   942                           ;main.c: 199: TRISD = 0;
   943  0003FE  0E00               	movlw	0
   944  000400  6E95               	movwf	3989,c	;volatile
   945                           
   946                           ;main.c: 200: TRISA = 0;
   947  000402  0E00               	movlw	0
   948  000404  6E92               	movwf	3986,c	;volatile
   949                           
   950                           ;main.c: 201: Myusartinit();
   951  000406  EC67  F002         	call	_Myusartinit	;wreg free
   952                           
   953                           ;main.c: 202: ISR_Init();
   954  00040A  EC7E  F002         	call	_ISR_Init	;wreg free
   955                           
   956                           ;main.c: 205: unsigned char* start = (unsigned char*)data;
   957  00040E  0EA8               	movlw	low _data
   958  000410  6E24               	movwf	main@start,c
   959  000412  0E03               	movlw	high _data
   960  000414  6E25               	movwf	main@start+1,c
   961  000416                     l59:
   962                           
   963                           ;main.c: 209: start = next(start);
   964  000416  C024  F016         	movff	main@start,next@ptr
   965  00041A  C025  F017         	movff	main@start+1,next@ptr+1
   966  00041E  EC1C  F002         	call	_next	;wreg free
   967  000422  C016  F024         	movff	?_next,main@start
   968  000426  C017  F025         	movff	?_next+1,main@start+1
   969                           
   970                           ;main.c: 210: LED_DISP(start);
   971  00042A  C024  F018         	movff	main@start,LED_DISP@start
   972  00042E  C025  F019         	movff	main@start+1,LED_DISP@start+1
   973  000432  EC87  F001         	call	_LED_DISP	;wreg free
   974  000436  D7EF               	goto	l59
   975  000438                     __end_of_main:
   976                           	opt stack 0
   977                           tblptru	equ	0xFF8
   978                           tblptrh	equ	0xFF7
   979                           tblptrl	equ	0xFF6
   980                           tablat	equ	0xFF5
   981                           postinc0	equ	0xFEE
   982                           postdec1	equ	0xFE5
   983                           fsr1h	equ	0xFE2
   984                           fsr1l	equ	0xFE1
   985                           
   986 ;; *************** function _next *****************
   987 ;; Defined at:
   988 ;;		line 243 in file "main.c"
   989 ;; Parameters:    Size  Location     Type
   990 ;;  ptr             2   21[COMRAM] PTR unsigned char 
   991 ;;		 -> data(600), 
   992 ;; Auto vars:     Size  Location     Type
   993 ;;		None
   994 ;; Return value:  Size  Location     Type
   995 ;;                  2   21[COMRAM] PTR unsigned char 
   996 ;; Registers used:
   997 ;;		wreg, status,2, status,0
   998 ;; Tracked objects:
   999 ;;		On entry : 0/0
  1000 ;;		On exit  : 0/0
  1001 ;;		Unchanged: 0/0
  1002 ;; Data sizes:     COMRAM   BANK0   BANK1   BANK2   BANK3   BANK4   BANK5
  1003 ;;      Params:         2       0       0       0       0       0       0
  1004 ;;      Locals:         0       0       0       0       0       0       0
  1005 ;;      Temps:          0       0       0       0       0       0       0
  1006 ;;      Totals:         2       0       0       0       0       0       0
  1007 ;;Total ram usage:        2 bytes
  1008 ;; Hardware stack levels used:    1
  1009 ;; Hardware stack levels required when called:    4
  1010 ;; This function calls:
  1011 ;;		Nothing
  1012 ;; This function is called by:
  1013 ;;		_main
  1014 ;; This function uses a non-reentrant model
  1015 ;;
  1016                           
  1017                           	psect	text1
  1018  000438                     __ptext1:
  1019                           	opt stack 0
  1020  000438                     _next:
  1021                           	opt stack 26
  1022                           
  1023                           ;main.c: 244: if(ptr == TAIL)
  1024                           
  1025                           ;incstack = 0
  1026  000438  5026               	movf	_TAIL,w,c
  1027  00043A  1816               	xorwf	next@ptr,w,c
  1028  00043C  E109               	bnz	l878
  1029  00043E  5027               	movf	_TAIL+1,w,c
  1030  000440  1817               	xorwf	next@ptr+1,w,c
  1031  000442  A4D8               	btfss	status,2,c
  1032  000444  D005               	goto	l86
  1033                           
  1034                           ;main.c: 245: return (unsigned char*)data;
  1035  000446  0EA8               	movlw	low _data
  1036  000448  6E16               	movwf	?_next,c
  1037  00044A  0E03               	movlw	high _data
  1038  00044C  6E17               	movwf	?_next+1,c
  1039  00044E  0012               	return	
  1040  000450                     l86:
  1041  000450                     l878:
  1042                           
  1043                           ;main.c: 246: return ptr+1;
  1044  000450  0E01               	movlw	1
  1045  000452  2416               	addwf	next@ptr,w,c
  1046  000454  6E16               	movwf	?_next,c
  1047  000456  0E00               	movlw	0
  1048  000458  2017               	addwfc	next@ptr+1,w,c
  1049  00045A  6E17               	movwf	?_next+1,c
  1050  00045C  0012               	return	
  1051  00045E                     __end_of_next:
  1052                           	opt stack 0
  1053                           tblptru	equ	0xFF8
  1054                           tblptrh	equ	0xFF7
  1055                           tblptrl	equ	0xFF6
  1056                           tablat	equ	0xFF5
  1057                           postinc0	equ	0xFEE
  1058                           postdec1	equ	0xFE5
  1059                           fsr1h	equ	0xFE2
  1060                           fsr1l	equ	0xFE1
  1061                           status	equ	0xFD8
  1062                           
  1063 ;; *************** function _Myusartinit *****************
  1064 ;; Defined at:
  1065 ;;		line 281 in file "main.c"
  1066 ;; Parameters:    Size  Location     Type
  1067 ;;		None
  1068 ;; Auto vars:     Size  Location     Type
  1069 ;;		None
  1070 ;; Return value:  Size  Location     Type
  1071 ;;                  1    wreg      void 
  1072 ;; Registers used:
  1073 ;;		wreg, status,2
  1074 ;; Tracked objects:
  1075 ;;		On entry : 0/0
  1076 ;;		On exit  : 0/0
  1077 ;;		Unchanged: 0/0
  1078 ;; Data sizes:     COMRAM   BANK0   BANK1   BANK2   BANK3   BANK4   BANK5
  1079 ;;      Params:         0       0       0       0       0       0       0
  1080 ;;      Locals:         0       0       0       0       0       0       0
  1081 ;;      Temps:          0       0       0       0       0       0       0
  1082 ;;      Totals:         0       0       0       0       0       0       0
  1083 ;;Total ram usage:        0 bytes
  1084 ;; Hardware stack levels used:    1
  1085 ;; Hardware stack levels required when called:    4
  1086 ;; This function calls:
  1087 ;;		Nothing
  1088 ;; This function is called by:
  1089 ;;		_main
  1090 ;; This function uses a non-reentrant model
  1091 ;;
  1092                           
  1093                           	psect	text2
  1094  0004CE                     __ptext2:
  1095                           	opt stack 0
  1096  0004CE                     _Myusartinit:
  1097                           	opt stack 26
  1098                           
  1099                           ;main.c: 284: TRISCbits.TRISC6 = 1;
  1100                           
  1101                           ;incstack = 0
  1102  0004CE  8C94               	bsf	3988,6,c	;volatile
  1103                           
  1104                           ;main.c: 285: TRISCbits.TRISC7 = 1;
  1105  0004D0  8E94               	bsf	3988,7,c	;volatile
  1106                           
  1107                           ;main.c: 298: BAUDCONbits.BRG16 = 0 ;
  1108  0004D2  96B8               	bcf	4024,3,c	;volatile
  1109                           
  1110                           ;main.c: 299: TXSTAbits.BRGH = 1;
  1111  0004D4  84AC               	bsf	4012,2,c	;volatile
  1112                           
  1113                           ;main.c: 300: SPBRG = 25;
  1114  0004D6  0E19               	movlw	25
  1115  0004D8  6EAF               	movwf	4015,c	;volatile
  1116                           
  1117                           ;main.c: 303: TXSTAbits.SYNC = 0;
  1118  0004DA  98AC               	bcf	4012,4,c	;volatile
  1119                           
  1120                           ;main.c: 304: RCSTAbits.SPEN = 1;
  1121  0004DC  8EAB               	bsf	4011,7,c	;volatile
  1122                           
  1123                           ;main.c: 309: PIR1bits.TXIF = 1;
  1124  0004DE  889E               	bsf	3998,4,c	;volatile
  1125                           
  1126                           ;main.c: 310: PIR1bits.RCIF = 0;
  1127  0004E0  9A9E               	bcf	3998,5,c	;volatile
  1128                           
  1129                           ;main.c: 311: TXSTAbits.TXEN = 1;
  1130  0004E2  8AAC               	bsf	4012,5,c	;volatile
  1131                           
  1132                           ;main.c: 312: RCSTAbits.CREN = 1;
  1133  0004E4  88AB               	bsf	4011,4,c	;volatile
  1134                           
  1135                           ;main.c: 314: PIE1bits.TXIE = 0;
  1136  0004E6  989D               	bcf	3997,4,c	;volatile
  1137                           
  1138                           ;main.c: 315: IPR1bits.TXIP = 1;
  1139  0004E8  889F               	bsf	3999,4,c	;volatile
  1140                           
  1141                           ;main.c: 316: PIE1bits.RCIE = 1;
  1142  0004EA  8A9D               	bsf	3997,5,c	;volatile
  1143                           
  1144                           ;main.c: 317: IPR1bits.RCIP = 1;
  1145  0004EC  8A9F               	bsf	3999,5,c	;volatile
  1146  0004EE  0012               	return	
  1147  0004F0                     __end_of_Myusartinit:
  1148                           	opt stack 0
  1149                           tblptru	equ	0xFF8
  1150                           tblptrh	equ	0xFF7
  1151                           tblptrl	equ	0xFF6
  1152                           tablat	equ	0xFF5
  1153                           postinc0	equ	0xFEE
  1154                           postdec1	equ	0xFE5
  1155                           fsr1h	equ	0xFE2
  1156                           fsr1l	equ	0xFE1
  1157                           status	equ	0xFD8
  1158                           
  1159 ;; *************** function _LED_DISP *****************
  1160 ;; Defined at:
  1161 ;;		line 217 in file "main.c"
  1162 ;; Parameters:    Size  Location     Type
  1163 ;;  start           2   23[COMRAM] PTR unsigned char 
  1164 ;;		 -> data(600), 
  1165 ;; Auto vars:     Size  Location     Type
  1166 ;;  dark            2   27[COMRAM] int 
  1167 ;;  bright          2   25[COMRAM] int 
  1168 ;;  i               2   33[COMRAM] int 
  1169 ;;  iter            2   31[COMRAM] PTR unsigned char 
  1170 ;;		 -> data(600), 
  1171 ;;  delay           2   29[COMRAM] int 
  1172 ;; Return value:  Size  Location     Type
  1173 ;;                  1    wreg      void 
  1174 ;; Registers used:
  1175 ;;		wreg, fsr2l, fsr2h, status,2, status,0, cstack
  1176 ;; Tracked objects:
  1177 ;;		On entry : 0/0
  1178 ;;		On exit  : 0/0
  1179 ;;		Unchanged: 0/0
  1180 ;; Data sizes:     COMRAM   BANK0   BANK1   BANK2   BANK3   BANK4   BANK5
  1181 ;;      Params:         2       0       0       0       0       0       0
  1182 ;;      Locals:        10       0       0       0       0       0       0
  1183 ;;      Temps:          0       0       0       0       0       0       0
  1184 ;;      Totals:        12       0       0       0       0       0       0
  1185 ;;Total ram usage:       12 bytes
  1186 ;; Hardware stack levels used:    1
  1187 ;; Hardware stack levels required when called:    5
  1188 ;; This function calls:
  1189 ;;		_prev
  1190 ;; This function is called by:
  1191 ;;		_main
  1192 ;; This function uses a non-reentrant model
  1193 ;;
  1194                           
  1195                           	psect	text3
  1196  00030E                     __ptext3:
  1197                           	opt stack 0
  1198  00030E                     _LED_DISP:
  1199                           	opt stack 25
  1200                           
  1201                           ;main.c: 218: unsigned char* iter = start;
  1202                           
  1203                           ;incstack = 0
  1204  00030E  C018  F020         	movff	LED_DISP@start,LED_DISP@iter
  1205  000312  C019  F021         	movff	LED_DISP@start+1,LED_DISP@iter+1
  1206                           
  1207                           ;main.c: 219: for(int i = 0; i < 220; ++i){
  1208  000316  0E00               	movlw	0
  1209  000318  6E23               	movwf	LED_DISP@i+1,c
  1210  00031A  0E00               	movlw	0
  1211  00031C  6E22               	movwf	LED_DISP@i,c
  1212  00031E                     l886:
  1213  00031E  BE23               	btfsc	LED_DISP@i+1,7,c
  1214  000320  D006               	goto	l65
  1215  000322  5023               	movf	LED_DISP@i+1,w,c
  1216  000324  E131               	bnz	l906
  1217  000326  0EDC               	movlw	220
  1218  000328  5C22               	subwf	LED_DISP@i,w,c
  1219  00032A  B0D8               	btfsc	status,0,c
  1220  00032C  D02D               	goto	u160
  1221  00032E                     l65:
  1222                           
  1223                           ;main.c: 220: LATA = *iter;
  1224  00032E  C020  FFD9         	movff	LED_DISP@iter,fsr2l
  1225  000332  C021  FFDA         	movff	LED_DISP@iter+1,fsr2h
  1226  000336  50DF               	movf	indf2,w,c
  1227  000338  6E89               	movwf	3977,c	;volatile
  1228                           
  1229                           ;main.c: 221: int bright = 30;
  1230  00033A  0E00               	movlw	0
  1231  00033C  6E1B               	movwf	LED_DISP@bright+1,c
  1232  00033E  0E1E               	movlw	30
  1233  000340  6E1A               	movwf	LED_DISP@bright,c
  1234  000342                     l894:
  1235  000342  061A               	decf	LED_DISP@bright,f,c
  1236  000344  A0D8               	btfss	status,0,c
  1237  000346  061B               	decf	LED_DISP@bright+1,f,c
  1238  000348  281A               	incf	LED_DISP@bright,w,c
  1239  00034A  E1FB               	bnz	l894
  1240  00034C  281B               	incf	LED_DISP@bright+1,w,c
  1241  00034E  A4D8               	btfss	status,2,c
  1242  000350  D7F8               	goto	l68
  1243                           
  1244                           ;main.c: 223: LATA = 0;
  1245  000352  0E00               	movlw	0
  1246  000354  6E89               	movwf	3977,c	;volatile
  1247                           
  1248                           ;main.c: 224: int dark = 30;
  1249  000356  0E00               	movlw	0
  1250  000358  6E1D               	movwf	LED_DISP@dark+1,c
  1251  00035A  0E1E               	movlw	30
  1252  00035C  6E1C               	movwf	LED_DISP@dark,c
  1253  00035E                     l898:
  1254  00035E  061C               	decf	LED_DISP@dark,f,c
  1255  000360  A0D8               	btfss	status,0,c
  1256  000362  061D               	decf	LED_DISP@dark+1,f,c
  1257  000364  281C               	incf	LED_DISP@dark,w,c
  1258  000366  E1FB               	bnz	l898
  1259  000368  281D               	incf	LED_DISP@dark+1,w,c
  1260  00036A  A4D8               	btfss	status,2,c
  1261  00036C  D7F8               	goto	l71
  1262                           
  1263                           ;main.c: 226: iter = prev(iter);
  1264  00036E  C020  F016         	movff	LED_DISP@iter,prev@ptr
  1265  000372  C021  F017         	movff	LED_DISP@iter+1,prev@ptr+1
  1266  000376  EC2F  F002         	call	_prev	;wreg free
  1267  00037A  C016  F020         	movff	?_prev,LED_DISP@iter
  1268  00037E  C017  F021         	movff	?_prev+1,LED_DISP@iter+1
  1269  000382  4A22               	infsnz	LED_DISP@i,f,c
  1270  000384  2A23               	incf	LED_DISP@i+1,f,c
  1271  000386  D7CB               	goto	l886
  1272  000388                     u160:
  1273  000388                     l906:
  1274                           
  1275                           ;main.c: 227: }
  1276                           ;main.c: 228: int delay = 0;
  1277  000388  0E00               	movlw	0
  1278  00038A  6E1F               	movwf	LED_DISP@delay+1,c
  1279  00038C  0E00               	movlw	0
  1280  00038E  6E1E               	movwf	LED_DISP@delay,c
  1281  000390                     l908:
  1282  000390  061E               	decf	LED_DISP@delay,f,c
  1283  000392  A0D8               	btfss	status,0,c
  1284  000394  061F               	decf	LED_DISP@delay+1,f,c
  1285  000396  281E               	incf	LED_DISP@delay,w,c
  1286  000398  E1FB               	bnz	l908
  1287  00039A  281F               	incf	LED_DISP@delay+1,w,c
  1288  00039C  B4D8               	btfsc	status,2,c
  1289  00039E  0012               	return	
  1290  0003A0  D7F7               	goto	l74
  1291  0003A2                     __end_of_LED_DISP:
  1292                           	opt stack 0
  1293                           tblptru	equ	0xFF8
  1294                           tblptrh	equ	0xFF7
  1295                           tblptrl	equ	0xFF6
  1296                           tablat	equ	0xFF5
  1297                           postinc0	equ	0xFEE
  1298                           postdec1	equ	0xFE5
  1299                           fsr1h	equ	0xFE2
  1300                           fsr1l	equ	0xFE1
  1301                           indf2	equ	0xFDF
  1302                           fsr2h	equ	0xFDA
  1303                           fsr2l	equ	0xFD9
  1304                           status	equ	0xFD8
  1305                           
  1306 ;; *************** function _prev *****************
  1307 ;; Defined at:
  1308 ;;		line 237 in file "main.c"
  1309 ;; Parameters:    Size  Location     Type
  1310 ;;  ptr             2   21[COMRAM] PTR unsigned char 
  1311 ;;		 -> data(600), 
  1312 ;; Auto vars:     Size  Location     Type
  1313 ;;		None
  1314 ;; Return value:  Size  Location     Type
  1315 ;;                  2   21[COMRAM] PTR unsigned char 
  1316 ;; Registers used:
  1317 ;;		wreg, status,2, status,0
  1318 ;; Tracked objects:
  1319 ;;		On entry : 0/0
  1320 ;;		On exit  : 0/0
  1321 ;;		Unchanged: 0/0
  1322 ;; Data sizes:     COMRAM   BANK0   BANK1   BANK2   BANK3   BANK4   BANK5
  1323 ;;      Params:         2       0       0       0       0       0       0
  1324 ;;      Locals:         0       0       0       0       0       0       0
  1325 ;;      Temps:          0       0       0       0       0       0       0
  1326 ;;      Totals:         2       0       0       0       0       0       0
  1327 ;;Total ram usage:        2 bytes
  1328 ;; Hardware stack levels used:    1
  1329 ;; Hardware stack levels required when called:    4
  1330 ;; This function calls:
  1331 ;;		Nothing
  1332 ;; This function is called by:
  1333 ;;		_LED_DISP
  1334 ;; This function uses a non-reentrant model
  1335 ;;
  1336                           
  1337                           	psect	text4
  1338  00045E                     __ptext4:
  1339                           	opt stack 0
  1340  00045E                     _prev:
  1341                           	opt stack 25
  1342                           
  1343                           ;main.c: 238: if(ptr == (unsigned char*)data)
  1344                           
  1345                           ;incstack = 0
  1346  00045E  0EA8               	movlw	low _data
  1347  000460  1816               	xorwf	prev@ptr,w,c
  1348  000462  E109               	bnz	l864
  1349  000464  0E03               	movlw	high _data
  1350  000466  1817               	xorwf	prev@ptr+1,w,c
  1351  000468  A4D8               	btfss	status,2,c
  1352  00046A  D005               	goto	l82
  1353                           
  1354                           ;main.c: 239: return TAIL;
  1355  00046C  C026  F016         	movff	_TAIL,?_prev
  1356  000470  C027  F017         	movff	_TAIL+1,?_prev+1
  1357  000474  0012               	return	
  1358  000476                     l82:
  1359  000476                     l864:
  1360                           
  1361                           ;main.c: 240: return ptr-1;
  1362  000476  0EFF               	movlw	255
  1363  000478  2416               	addwf	prev@ptr,w,c
  1364  00047A  6E16               	movwf	?_prev,c
  1365  00047C  0EFF               	movlw	255
  1366  00047E  2017               	addwfc	prev@ptr+1,w,c
  1367  000480  6E17               	movwf	?_prev+1,c
  1368  000482  0012               	return	
  1369  000484                     __end_of_prev:
  1370                           	opt stack 0
  1371                           tblptru	equ	0xFF8
  1372                           tblptrh	equ	0xFF7
  1373                           tblptrl	equ	0xFF6
  1374                           tablat	equ	0xFF5
  1375                           postinc0	equ	0xFEE
  1376                           postdec1	equ	0xFE5
  1377                           fsr1h	equ	0xFE2
  1378                           fsr1l	equ	0xFE1
  1379                           indf2	equ	0xFDF
  1380                           fsr2h	equ	0xFDA
  1381                           fsr2l	equ	0xFD9
  1382                           status	equ	0xFD8
  1383                           
  1384 ;; *************** function _ISR_Init *****************
  1385 ;; Defined at:
  1386 ;;		line 258 in file "main.c"
  1387 ;; Parameters:    Size  Location     Type
  1388 ;;		None
  1389 ;; Auto vars:     Size  Location     Type
  1390 ;;		None
  1391 ;; Return value:  Size  Location     Type
  1392 ;;                  1    wreg      void 
  1393 ;; Registers used:
  1394 ;;		None
  1395 ;; Tracked objects:
  1396 ;;		On entry : 0/0
  1397 ;;		On exit  : 0/0
  1398 ;;		Unchanged: 0/0
  1399 ;; Data sizes:     COMRAM   BANK0   BANK1   BANK2   BANK3   BANK4   BANK5
  1400 ;;      Params:         0       0       0       0       0       0       0
  1401 ;;      Locals:         0       0       0       0       0       0       0
  1402 ;;      Temps:          0       0       0       0       0       0       0
  1403 ;;      Totals:         0       0       0       0       0       0       0
  1404 ;;Total ram usage:        0 bytes
  1405 ;; Hardware stack levels used:    1
  1406 ;; Hardware stack levels required when called:    4
  1407 ;; This function calls:
  1408 ;;		Nothing
  1409 ;; This function is called by:
  1410 ;;		_main
  1411 ;; This function uses a non-reentrant model
  1412 ;;
  1413                           
  1414                           	psect	text5
  1415  0004FC                     __ptext5:
  1416                           	opt stack 0
  1417  0004FC                     _ISR_Init:
  1418                           	opt stack 26
  1419                           
  1420                           ;main.c: 261: RCONbits.IPEN = 1;
  1421                           
  1422                           ;incstack = 0
  1423  0004FC  8ED0               	bsf	4048,7,c	;volatile
  1424                           
  1425                           ;main.c: 262: INTCONbits.GIEH = 1;
  1426  0004FE  8EF2               	bsf	intcon,7,c	;volatile
  1427                           
  1428                           ;main.c: 263: INTCONbits.GIEL = 1;
  1429  000500  8CF2               	bsf	intcon,6,c	;volatile
  1430                           
  1431                           ;main.c: 265: return ;
  1432  000502  0012               	return		;funcret
  1433  000504                     __end_of_ISR_Init:
  1434                           	opt stack 0
  1435                           tblptru	equ	0xFF8
  1436                           tblptrh	equ	0xFF7
  1437                           tblptrl	equ	0xFF6
  1438                           tablat	equ	0xFF5
  1439                           intcon	equ	0xFF2
  1440                           postinc0	equ	0xFEE
  1441                           postdec1	equ	0xFE5
  1442                           fsr1h	equ	0xFE2
  1443                           fsr1l	equ	0xFE1
  1444                           indf2	equ	0xFDF
  1445                           fsr2h	equ	0xFDA
  1446                           fsr2l	equ	0xFD9
  1447                           status	equ	0xFD8
  1448                           
  1449 ;; *************** function _Hi_ISR *****************
  1450 ;; Defined at:
  1451 ;;		line 322 in file "main.c"
  1452 ;; Parameters:    Size  Location     Type
  1453 ;;		None
  1454 ;; Auto vars:     Size  Location     Type
  1455 ;;		None
  1456 ;; Return value:  Size  Location     Type
  1457 ;;                  1    wreg      void 
  1458 ;; Registers used:
  1459 ;;		wreg, fsr2l, fsr2h, status,2, status,0, cstack
  1460 ;; Tracked objects:
  1461 ;;		On entry : 0/0
  1462 ;;		On exit  : 0/0
  1463 ;;		Unchanged: 0/0
  1464 ;; Data sizes:     COMRAM   BANK0   BANK1   BANK2   BANK3   BANK4   BANK5
  1465 ;;      Params:         0       0       0       0       0       0       0
  1466 ;;      Locals:         0       0       0       0       0       0       0
  1467 ;;      Temps:         18       0       0       0       0       0       0
  1468 ;;      Totals:        18       0       0       0       0       0       0
  1469 ;;Total ram usage:       18 bytes
  1470 ;; Hardware stack levels used:    1
  1471 ;; Hardware stack levels required when called:    3
  1472 ;; This function calls:
  1473 ;;		_MyusartRead
  1474 ;;		_Myusartwrite
  1475 ;; This function is called by:
  1476 ;;		Interrupt level 2
  1477 ;; This function uses a non-reentrant model
  1478 ;;
  1479                           
  1480                           	psect	intcode
  1481  000008                     __pintcode:
  1482                           	opt stack 0
  1483  000008                     _Hi_ISR:
  1484                           	opt stack 25
  1485                           
  1486                           ;incstack = 0
  1487  000008  822D               	bsf	btemp,1,c	;set compiler interrupt flag (level 2)
  1488  00000A  ED35  F001         	call	int_func,f	;refresh shadow registers
  1489                           tblptru	equ	0xFF8
  1490                           tblptrh	equ	0xFF7
  1491                           tblptrl	equ	0xFF6
  1492                           tablat	equ	0xFF5
  1493                           intcon	equ	0xFF2
  1494                           postinc0	equ	0xFEE
  1495                           postdec1	equ	0xFE5
  1496                           fsr1h	equ	0xFE2
  1497                           fsr1l	equ	0xFE1
  1498                           indf2	equ	0xFDF
  1499                           fsr2h	equ	0xFDA
  1500                           fsr2l	equ	0xFD9
  1501                           status	equ	0xFD8
  1502                           
  1503                           	psect	intcode_body
  1504  00026A                     __pintcode_body:
  1505                           	opt stack 25
  1506  00026A                     int_func:
  1507                           	opt stack 25
  1508  00026A  0006               	pop		; remove dummy address from shadow register refresh
  1509  00026C  CFFA F004          	movff	pclath,??_Hi_ISR
  1510  000270  CFFB F005          	movff	pclatu,??_Hi_ISR+1
  1511  000274  CFE9 F006          	movff	fsr0l,??_Hi_ISR+2
  1512  000278  CFEA F007          	movff	fsr0h,??_Hi_ISR+3
  1513  00027C  CFE1 F008          	movff	fsr1l,??_Hi_ISR+4
  1514  000280  CFE2 F009          	movff	fsr1h,??_Hi_ISR+5
  1515  000284  CFD9 F00A          	movff	fsr2l,??_Hi_ISR+6
  1516  000288  CFDA F00B          	movff	fsr2h,??_Hi_ISR+7
  1517  00028C  CFF3 F00C          	movff	prodl,??_Hi_ISR+8
  1518  000290  CFF4 F00D          	movff	prodh,??_Hi_ISR+9
  1519  000294  CFF6 F00E          	movff	tblptrl,??_Hi_ISR+10
  1520  000298  CFF7 F00F          	movff	tblptrh,??_Hi_ISR+11
  1521  00029C  CFF8 F010          	movff	tblptru,??_Hi_ISR+12
  1522  0002A0  CFF5 F011          	movff	tablat,??_Hi_ISR+13
  1523  0002A4  C02D  F012         	movff	btemp,??_Hi_ISR+14
  1524  0002A8  C02E  F013         	movff	btemp+1,??_Hi_ISR+15
  1525  0002AC  C02F  F014         	movff	btemp+2,??_Hi_ISR+16
  1526  0002B0  C030  F015         	movff	btemp+3,??_Hi_ISR+17
  1527                           
  1528                           ;main.c: 324: if(RCIF)
  1529  0002B4  AA9E               	btfss	3998,5,c	;volatile
  1530  0002B6  D005               	goto	i2l107
  1531                           
  1532                           ;main.c: 325: {
  1533                           ;main.c: 326: MyusartRead();
  1534  0002B8  EC78  F002         	call	_MyusartRead	;wreg free
  1535                           
  1536                           ;main.c: 327: Myusartwrite(global_char);
  1537  0002BC  502C               	movf	_global_char,w,c
  1538  0002BE  EC82  F002         	call	_Myusartwrite
  1539  0002C2                     i2l107:
  1540                           
  1541                           ;main.c: 328: }
  1542                           ;main.c: 329: return ;
  1543  0002C2  C015  F030         	movff	??_Hi_ISR+17,btemp+3
  1544  0002C6  C014  F02F         	movff	??_Hi_ISR+16,btemp+2
  1545  0002CA  C013  F02E         	movff	??_Hi_ISR+15,btemp+1
  1546  0002CE  C012  F02D         	movff	??_Hi_ISR+14,btemp
  1547  0002D2  C011  FFF5         	movff	??_Hi_ISR+13,tablat
  1548  0002D6  C010  FFF8         	movff	??_Hi_ISR+12,tblptru
  1549  0002DA  C00F  FFF7         	movff	??_Hi_ISR+11,tblptrh
  1550  0002DE  C00E  FFF6         	movff	??_Hi_ISR+10,tblptrl
  1551  0002E2  C00D  FFF4         	movff	??_Hi_ISR+9,prodh
  1552  0002E6  C00C  FFF3         	movff	??_Hi_ISR+8,prodl
  1553  0002EA  C00B  FFDA         	movff	??_Hi_ISR+7,fsr2h
  1554  0002EE  C00A  FFD9         	movff	??_Hi_ISR+6,fsr2l
  1555  0002F2  C009  FFE2         	movff	??_Hi_ISR+5,fsr1h
  1556  0002F6  C008  FFE1         	movff	??_Hi_ISR+4,fsr1l
  1557  0002FA  C007  FFEA         	movff	??_Hi_ISR+3,fsr0h
  1558  0002FE  C006  FFE9         	movff	??_Hi_ISR+2,fsr0l
  1559  000302  C005  FFFB         	movff	??_Hi_ISR+1,pclatu
  1560  000306  C004  FFFA         	movff	??_Hi_ISR,pclath
  1561  00030A  922D               	bcf	btemp,1,c	;clear compiler interrupt flag (level 2)
  1562  00030C  0011               	retfie		f
  1563  00030E                     __end_of_Hi_ISR:
  1564                           	opt stack 0
  1565                           pclatu	equ	0xFFB
  1566                           pclath	equ	0xFFA
  1567                           tblptru	equ	0xFF8
  1568                           tblptrh	equ	0xFF7
  1569                           tblptrl	equ	0xFF6
  1570                           tablat	equ	0xFF5
  1571                           prodh	equ	0xFF4
  1572                           prodl	equ	0xFF3
  1573                           intcon	equ	0xFF2
  1574                           postinc0	equ	0xFEE
  1575                           fsr0h	equ	0xFEA
  1576                           fsr0l	equ	0xFE9
  1577                           postdec1	equ	0xFE5
  1578                           fsr1h	equ	0xFE2
  1579                           fsr1l	equ	0xFE1
  1580                           indf2	equ	0xFDF
  1581                           fsr2h	equ	0xFDA
  1582                           fsr2l	equ	0xFD9
  1583                           status	equ	0xFD8
  1584                           
  1585 ;; *************** function _Myusartwrite *****************
  1586 ;; Defined at:
  1587 ;;		line 275 in file "main.c"
  1588 ;; Parameters:    Size  Location     Type
  1589 ;;  a               1    wreg     unsigned char 
  1590 ;; Auto vars:     Size  Location     Type
  1591 ;;  a               1    0[COMRAM] unsigned char 
  1592 ;; Return value:  Size  Location     Type
  1593 ;;                  1    wreg      void 
  1594 ;; Registers used:
  1595 ;;		wreg
  1596 ;; Tracked objects:
  1597 ;;		On entry : 0/0
  1598 ;;		On exit  : 0/0
  1599 ;;		Unchanged: 0/0
  1600 ;; Data sizes:     COMRAM   BANK0   BANK1   BANK2   BANK3   BANK4   BANK5
  1601 ;;      Params:         0       0       0       0       0       0       0
  1602 ;;      Locals:         1       0       0       0       0       0       0
  1603 ;;      Temps:          0       0       0       0       0       0       0
  1604 ;;      Totals:         1       0       0       0       0       0       0
  1605 ;;Total ram usage:        1 bytes
  1606 ;; Hardware stack levels used:    1
  1607 ;; This function calls:
  1608 ;;		Nothing
  1609 ;; This function is called by:
  1610 ;;		_Hi_ISR
  1611 ;; This function uses a non-reentrant model
  1612 ;;
  1613                           
  1614                           	psect	text7
  1615  000504                     __ptext7:
  1616                           	opt stack 0
  1617  000504                     _Myusartwrite:
  1618                           	opt stack 27
  1619                           
  1620                           ;incstack = 0
  1621                           ;Myusartwrite@a stored from wreg
  1622  000504  6E01               	movwf	Myusartwrite@a,c
  1623                           
  1624                           ;main.c: 278: TXREG = a;
  1625  000506  C001  FFAD         	movff	Myusartwrite@a,4013	;volatile
  1626  00050A  0012               	return	
  1627  00050C                     __end_of_Myusartwrite:
  1628                           	opt stack 0
  1629                           pclatu	equ	0xFFB
  1630                           pclath	equ	0xFFA
  1631                           tblptru	equ	0xFF8
  1632                           tblptrh	equ	0xFF7
  1633                           tblptrl	equ	0xFF6
  1634                           tablat	equ	0xFF5
  1635                           prodh	equ	0xFF4
  1636                           prodl	equ	0xFF3
  1637                           intcon	equ	0xFF2
  1638                           postinc0	equ	0xFEE
  1639                           fsr0h	equ	0xFEA
  1640                           fsr0l	equ	0xFE9
  1641                           postdec1	equ	0xFE5
  1642                           fsr1h	equ	0xFE2
  1643                           fsr1l	equ	0xFE1
  1644                           indf2	equ	0xFDF
  1645                           fsr2h	equ	0xFDA
  1646                           fsr2l	equ	0xFD9
  1647                           status	equ	0xFD8
  1648                           
  1649 ;; *************** function _MyusartRead *****************
  1650 ;; Defined at:
  1651 ;;		line 267 in file "main.c"
  1652 ;; Parameters:    Size  Location     Type
  1653 ;;		None
  1654 ;; Auto vars:     Size  Location     Type
  1655 ;;		None
  1656 ;; Return value:  Size  Location     Type
  1657 ;;                  1    wreg      void 
  1658 ;; Registers used:
  1659 ;;		wreg, fsr2l, fsr2h, status,2, status,0, cstack
  1660 ;; Tracked objects:
  1661 ;;		On entry : 0/0
  1662 ;;		On exit  : 0/0
  1663 ;;		Unchanged: 0/0
  1664 ;; Data sizes:     COMRAM   BANK0   BANK1   BANK2   BANK3   BANK4   BANK5
  1665 ;;      Params:         0       0       0       0       0       0       0
  1666 ;;      Locals:         0       0       0       0       0       0       0
  1667 ;;      Temps:          0       0       0       0       0       0       0
  1668 ;;      Totals:         0       0       0       0       0       0       0
  1669 ;;Total ram usage:        0 bytes
  1670 ;; Hardware stack levels used:    1
  1671 ;; Hardware stack levels required when called:    2
  1672 ;; This function calls:
  1673 ;;		_add_word
  1674 ;; This function is called by:
  1675 ;;		_Hi_ISR
  1676 ;; This function uses a non-reentrant model
  1677 ;;
  1678                           
  1679                           	psect	text8
  1680  0004F0                     __ptext8:
  1681                           	opt stack 0
  1682  0004F0                     _MyusartRead:
  1683                           	opt stack 25
  1684                           
  1685                           ;main.c: 270: global_char = RCREG;
  1686                           
  1687                           ;incstack = 0
  1688  0004F0  CFAE F02C          	movff	4014,_global_char	;volatile
  1689                           
  1690                           ;main.c: 271: add_word(global_char);
  1691  0004F4  502C               	movf	_global_char,w,c
  1692  0004F6  EC55  F002         	call	_add_word
  1693  0004FA  0012               	return	
  1694  0004FC                     __end_of_MyusartRead:
  1695                           	opt stack 0
  1696                           pclatu	equ	0xFFB
  1697                           pclath	equ	0xFFA
  1698                           tblptru	equ	0xFF8
  1699                           tblptrh	equ	0xFF7
  1700                           tblptrl	equ	0xFF6
  1701                           tablat	equ	0xFF5
  1702                           prodh	equ	0xFF4
  1703                           prodl	equ	0xFF3
  1704                           intcon	equ	0xFF2
  1705                           postinc0	equ	0xFEE
  1706                           fsr0h	equ	0xFEA
  1707                           fsr0l	equ	0xFE9
  1708                           postdec1	equ	0xFE5
  1709                           fsr1h	equ	0xFE2
  1710                           fsr1l	equ	0xFE1
  1711                           indf2	equ	0xFDF
  1712                           fsr2h	equ	0xFDA
  1713                           fsr2l	equ	0xFD9
  1714                           status	equ	0xFD8
  1715                           
  1716 ;; *************** function _add_word *****************
  1717 ;; Defined at:
  1718 ;;		line 232 in file "main.c"
  1719 ;; Parameters:    Size  Location     Type
  1720 ;;  c               1    wreg     unsigned char 
  1721 ;; Auto vars:     Size  Location     Type
  1722 ;;  c               1    2[COMRAM] unsigned char 
  1723 ;; Return value:  Size  Location     Type
  1724 ;;                  1    wreg      void 
  1725 ;; Registers used:
  1726 ;;		wreg, fsr2l, fsr2h, status,2, status,0, cstack
  1727 ;; Tracked objects:
  1728 ;;		On entry : 0/0
  1729 ;;		On exit  : 0/0
  1730 ;;		Unchanged: 0/0
  1731 ;; Data sizes:     COMRAM   BANK0   BANK1   BANK2   BANK3   BANK4   BANK5
  1732 ;;      Params:         0       0       0       0       0       0       0
  1733 ;;      Locals:         1       0       0       0       0       0       0
  1734 ;;      Temps:          0       0       0       0       0       0       0
  1735 ;;      Totals:         1       0       0       0       0       0       0
  1736 ;;Total ram usage:        1 bytes
  1737 ;; Hardware stack levels used:    1
  1738 ;; Hardware stack levels required when called:    1
  1739 ;; This function calls:
  1740 ;;		i2_next
  1741 ;; This function is called by:
  1742 ;;		_MyusartRead
  1743 ;;		_init_word
  1744 ;; This function uses a non-reentrant model
  1745 ;;
  1746                           
  1747                           	psect	text9
  1748  0004AA                     __ptext9:
  1749                           	opt stack 0
  1750  0004AA                     _add_word:
  1751                           	opt stack 25
  1752                           
  1753                           ;incstack = 0
  1754                           ;add_word@c stored from wreg
  1755  0004AA  6E03               	movwf	add_word@c,c
  1756                           
  1757                           ;main.c: 233: *NOW = c;
  1758  0004AC  C028  FFD9         	movff	_NOW,fsr2l
  1759  0004B0  C029  FFDA         	movff	_NOW+1,fsr2h
  1760  0004B4  C003  FFDF         	movff	add_word@c,indf2
  1761                           
  1762                           ;main.c: 234: NOW = next(NOW);
  1763  0004B8  C028  F001         	movff	_NOW,i2next@ptr
  1764  0004BC  C029  F002         	movff	_NOW+1,i2next@ptr+1
  1765  0004C0  EC42  F002         	call	i2_next	;wreg free
  1766  0004C4  C001  F028         	movff	?i2_next,_NOW
  1767  0004C8  C002  F029         	movff	?i2_next+1,_NOW+1
  1768  0004CC  0012               	return		;funcret
  1769  0004CE                     __end_of_add_word:
  1770                           	opt stack 0
  1771                           pclatu	equ	0xFFB
  1772                           pclath	equ	0xFFA
  1773                           tblptru	equ	0xFF8
  1774                           tblptrh	equ	0xFF7
  1775                           tblptrl	equ	0xFF6
  1776                           tablat	equ	0xFF5
  1777                           prodh	equ	0xFF4
  1778                           prodl	equ	0xFF3
  1779                           intcon	equ	0xFF2
  1780                           postinc0	equ	0xFEE
  1781                           fsr0h	equ	0xFEA
  1782                           fsr0l	equ	0xFE9
  1783                           postdec1	equ	0xFE5
  1784                           fsr1h	equ	0xFE2
  1785                           fsr1l	equ	0xFE1
  1786                           indf2	equ	0xFDF
  1787                           fsr2h	equ	0xFDA
  1788                           fsr2l	equ	0xFD9
  1789                           status	equ	0xFD8
  1790                           
  1791 ;; *************** function i2_next *****************
  1792 ;; Defined at:
  1793 ;;		line 243 in file "main.c"
  1794 ;; Parameters:    Size  Location     Type
  1795 ;;  ptr             2    0[COMRAM] PTR unsigned char 
  1796 ;;		 -> data(600), 
  1797 ;; Auto vars:     Size  Location     Type
  1798 ;;		None
  1799 ;; Return value:  Size  Location     Type
  1800 ;;                  2    0[COMRAM] PTR unsigned char 
  1801 ;; Registers used:
  1802 ;;		wreg, status,2, status,0
  1803 ;; Tracked objects:
  1804 ;;		On entry : 0/0
  1805 ;;		On exit  : 0/0
  1806 ;;		Unchanged: 0/0
  1807 ;; Data sizes:     COMRAM   BANK0   BANK1   BANK2   BANK3   BANK4   BANK5
  1808 ;;      Params:         2       0       0       0       0       0       0
  1809 ;;      Locals:         0       0       0       0       0       0       0
  1810 ;;      Temps:          0       0       0       0       0       0       0
  1811 ;;      Totals:         2       0       0       0       0       0       0
  1812 ;;Total ram usage:        2 bytes
  1813 ;; Hardware stack levels used:    1
  1814 ;; This function calls:
  1815 ;;		Nothing
  1816 ;; This function is called by:
  1817 ;;		_add_word
  1818 ;; This function uses a non-reentrant model
  1819 ;;
  1820                           
  1821                           	psect	text10
  1822  000484                     __ptext10:
  1823                           	opt stack 0
  1824  000484                     i2_next:
  1825                           	opt stack 25
  1826                           
  1827                           ;main.c: 244: if(ptr == TAIL)
  1828                           
  1829                           ;incstack = 0
  1830  000484  5026               	movf	_TAIL,w,c
  1831  000486  1801               	xorwf	i2next@ptr,w,c
  1832  000488  E109               	bnz	i2l854
  1833  00048A  5027               	movf	_TAIL+1,w,c
  1834  00048C  1802               	xorwf	i2next@ptr+1,w,c
  1835  00048E  A4D8               	btfss	status,2,c
  1836  000490  D005               	goto	i2l86
  1837                           
  1838                           ;main.c: 245: return (unsigned char*)data;
  1839  000492  0EA8               	movlw	low _data
  1840  000494  6E01               	movwf	?i2_next,c
  1841  000496  0E03               	movlw	high _data
  1842  000498  6E02               	movwf	?i2_next+1,c
  1843  00049A  0012               	return	
  1844  00049C                     i2l86:
  1845  00049C                     i2l854:
  1846                           
  1847                           ;main.c: 246: return ptr+1;
  1848  00049C  0E01               	movlw	1
  1849  00049E  2401               	addwf	i2next@ptr,w,c
  1850  0004A0  6E01               	movwf	?i2_next,c
  1851  0004A2  0E00               	movlw	0
  1852  0004A4  2002               	addwfc	i2next@ptr+1,w,c
  1853  0004A6  6E02               	movwf	?i2_next+1,c
  1854  0004A8  0012               	return	
  1855  0004AA                     __end_ofi2_next:
  1856                           	opt stack 0
  1857  0000                     pclatu	equ	0xFFB
  1858                           pclath	equ	0xFFA
  1859                           tblptru	equ	0xFF8
  1860                           tblptrh	equ	0xFF7
  1861                           tblptrl	equ	0xFF6
  1862                           tablat	equ	0xFF5
  1863                           prodh	equ	0xFF4
  1864                           prodl	equ	0xFF3
  1865                           intcon	equ	0xFF2
  1866                           postinc0	equ	0xFEE
  1867                           fsr0h	equ	0xFEA
  1868                           fsr0l	equ	0xFE9
  1869                           postdec1	equ	0xFE5
  1870                           fsr1h	equ	0xFE2
  1871                           fsr1l	equ	0xFE1
  1872                           indf2	equ	0xFDF
  1873                           fsr2h	equ	0xFDA
  1874                           fsr2l	equ	0xFD9
  1875                           status	equ	0xFD8
  1876                           pclatu	equ	0xFFB
  1877                           pclath	equ	0xFFA
  1878                           tblptru	equ	0xFF8
  1879                           tblptrh	equ	0xFF7
  1880                           tblptrl	equ	0xFF6
  1881                           tablat	equ	0xFF5
  1882                           prodh	equ	0xFF4
  1883                           prodl	equ	0xFF3
  1884                           intcon	equ	0xFF2
  1885                           postinc0	equ	0xFEE
  1886                           fsr0h	equ	0xFEA
  1887                           fsr0l	equ	0xFE9
  1888                           postdec1	equ	0xFE5
  1889                           fsr1h	equ	0xFE2
  1890                           fsr1l	equ	0xFE1
  1891                           indf2	equ	0xFDF
  1892                           fsr2h	equ	0xFDA
  1893                           fsr2l	equ	0xFD9
  1894                           status	equ	0xFD8
  1895                           
  1896                           	psect	rparam
  1897  0000                     pclatu	equ	0xFFB
  1898                           pclath	equ	0xFFA
  1899                           tblptru	equ	0xFF8
  1900                           tblptrh	equ	0xFF7
  1901                           tblptrl	equ	0xFF6
  1902                           tablat	equ	0xFF5
  1903                           prodh	equ	0xFF4
  1904                           prodl	equ	0xFF3
  1905                           intcon	equ	0xFF2
  1906                           postinc0	equ	0xFEE
  1907                           fsr0h	equ	0xFEA
  1908                           fsr0l	equ	0xFE9
  1909                           postdec1	equ	0xFE5
  1910                           fsr1h	equ	0xFE2
  1911                           fsr1l	equ	0xFE1
  1912                           indf2	equ	0xFDF
  1913                           fsr2h	equ	0xFDA
  1914                           fsr2l	equ	0xFD9
  1915                           status	equ	0xFD8
  1916                           
  1917                           	psect	temp
  1918  00002D                     btemp:
  1919                           	opt stack 0
  1920  00002D                     	ds	1
  1921  0000                     int$flags	set	btemp
  1922  0000                     wtemp6	set	btemp+1
  1923                           pclatu	equ	0xFFB
  1924                           pclath	equ	0xFFA
  1925                           tblptru	equ	0xFF8
  1926                           tblptrh	equ	0xFF7
  1927                           tblptrl	equ	0xFF6
  1928                           tablat	equ	0xFF5
  1929                           prodh	equ	0xFF4
  1930                           prodl	equ	0xFF3
  1931                           intcon	equ	0xFF2
  1932                           postinc0	equ	0xFEE
  1933                           fsr0h	equ	0xFEA
  1934                           fsr0l	equ	0xFE9
  1935                           postdec1	equ	0xFE5
  1936                           fsr1h	equ	0xFE2
  1937                           fsr1l	equ	0xFE1
  1938                           indf2	equ	0xFDF
  1939                           fsr2h	equ	0xFDA
  1940                           fsr2l	equ	0xFD9
  1941                           status	equ	0xFD8


Data Sizes:
    Strings     0
    Constant    0
    Data        604
    BSS         3
    Persistent  0
    Stack       0

Auto Spaces:
    Space          Size  Autos    Used
    COMRAM          126     37      44
    BANK0           128      0       0
    BANK1           256      0       0
    BANK2           256      0       0
    BANK3           256      0       0
    BANK4           256      0       0
    BANK5           256      0       0

Pointer List with Targets:

    next@ptr	PTR unsigned char  size(2) Largest target is 600
		 -> data(BIGRAM[600]), 

    prev@ptr	PTR unsigned char  size(2) Largest target is 600
		 -> data(BIGRAM[600]), 

    sp__prev	PTR unsigned char  size(2) Largest target is 600
		 -> data(BIGRAM[600]), 

    LED_DISP@start	PTR unsigned char  size(2) Largest target is 600
		 -> data(BIGRAM[600]), 

    LED_DISP@iter	PTR unsigned char  size(2) Largest target is 600
		 -> data(BIGRAM[600]), 

    sp__next	PTR unsigned char  size(2) Largest target is 600
		 -> data(BIGRAM[600]), 

    main@start	PTR unsigned char  size(2) Largest target is 600
		 -> data(BIGRAM[600]), 

    TAIL	PTR unsigned char  size(2) Largest target is 600
		 -> data(BIGRAM[600]), 

    NOW	PTR unsigned char  size(2) Largest target is 600
		 -> data(BIGRAM[600]), 


Critical Paths under _main in COMRAM

    _main->_LED_DISP
    _LED_DISP->_prev

Critical Paths under _Hi_ISR in COMRAM

    _MyusartRead->_add_word
    _add_word->i2_next

Critical Paths under _main in BANK0

    None.

Critical Paths under _Hi_ISR in BANK0

    None.

Critical Paths under _main in BANK1

    None.

Critical Paths under _Hi_ISR in BANK1

    None.

Critical Paths under _main in BANK2

    None.

Critical Paths under _Hi_ISR in BANK2

    None.

Critical Paths under _main in BANK3

    None.

Critical Paths under _Hi_ISR in BANK3

    None.

Critical Paths under _main in BANK4

    None.

Critical Paths under _Hi_ISR in BANK4

    None.

Critical Paths under _main in BANK5

    None.

Critical Paths under _Hi_ISR in BANK5

    None.

Call Graph Tables:

 ---------------------------------------------------------------------------------
 (Depth) Function   	        Calls       Base Space   Used Autos Params    Refs
 ---------------------------------------------------------------------------------
 (0) _main                                                 2     2      0     595
                                             35 COMRAM     2     2      0
                           _ISR_Init
                           _LED_DISP
                        _Myusartinit
                               _next
 ---------------------------------------------------------------------------------
 (1) _next                                                 2     0      2     170
                                             21 COMRAM     2     0      2
 ---------------------------------------------------------------------------------
 (1) _Myusartinit                                          0     0      0       0
 ---------------------------------------------------------------------------------
 (1) _LED_DISP                                            12    10      2     379
                                             23 COMRAM    12    10      2
                               _prev
 ---------------------------------------------------------------------------------
 (2) _prev                                                 2     0      2     120
                                             21 COMRAM     2     0      2
 ---------------------------------------------------------------------------------
 (1) _ISR_Init                                             0     0      0       0
 ---------------------------------------------------------------------------------
 Estimated maximum stack depth 2
 ---------------------------------------------------------------------------------
 (Depth) Function   	        Calls       Base Space   Used Autos Params    Refs
 ---------------------------------------------------------------------------------
 (3) _Hi_ISR                                              18    18      0     107
                                              3 COMRAM    18    18      0
                        _MyusartRead
                       _Myusartwrite
 ---------------------------------------------------------------------------------
 (4) _Myusartwrite                                         1     1      0      15
                                              0 COMRAM     1     1      0
 ---------------------------------------------------------------------------------
 (4) _MyusartRead                                          0     0      0      92
                           _add_word
 ---------------------------------------------------------------------------------
 (5) _add_word                                             1     1      0      92
                                              2 COMRAM     1     1      0
                             i2_next
 ---------------------------------------------------------------------------------
 (6) i2_next                                               2     0      2      70
                                              0 COMRAM     2     0      2
 ---------------------------------------------------------------------------------
 Estimated maximum stack depth 6
 ---------------------------------------------------------------------------------

 Call Graph Graphs:

 _main (ROOT)
   _ISR_Init
   _LED_DISP
     _prev
   _Myusartinit
   _next

 _Hi_ISR (ROOT)
   _MyusartRead
     _add_word
       i2_next
   _Myusartwrite

 Address spaces:
Name               Size   Autos  Total    Cost      Usage
BIGRAM             5FF      0     258      17       39.1%
EEDATA             100      0       0       0        0.0%
BITBANK5           100      0       0      16        0.0%
BANK5              100      0       0      14        0.0%
BITBANK4           100      0       0      12        0.0%
BANK4              100      0       0      13        0.0%
BITBANK3           100      0       0      10        0.0%
BANK3              100      0       0      11        0.0%
BITBANK2           100      0       0       8        0.0%
BANK2              100      0       0       9        0.0%
BITBANK1           100      0       0       6        0.0%
BANK1              100      0       0       7        0.0%
BITBANK0            80      0       0       4        0.0%
BANK0               80      0       0       5        0.0%
BITCOMRAM           7E      0       0       0        0.0%
COMRAM              7E     25      2C       1       34.9%
BITSFR               0      0       0     200        0.0%
SFR                  0      0       0     200        0.0%
STACK                0      0       0       2        0.0%
NULL                 0      0       0       0        0.0%
ABS                  0      0      2C      15        0.0%
DATA                 0      0     284       3        0.0%
CODE                 0      0       0       0        0.0%


Microchip Technology PIC18 Macro Assembler V1.44 build -154322312 
Symbol Table                                                                                   Fri Dec 22 23:22:42 2017

                     l71 035E                       l65 032E                       l82 0476  
                     l74 0390                       l59 0416                       l68 0342  
                     l86 0450             _Myusartwrite 0504              __CFG_BORV$3 000000  
           __CFG_CP0$OFF 000000             __CFG_CP1$OFF 000000             __CFG_CP2$OFF 000000  
           __CFG_CP3$OFF 000000                      l906 0388                      l908 0390  
                    l864 0476                      l894 0342                      l886 031E  
                    l878 0450                      l898 035E             __CFG_CPB$OFF 000000  
                    u160 0388             __CFG_CPD$OFF 000000                      _NOW 0028  
           __CFG_IESO$ON 000000             __CFG_LVP$OFF 000000             __CFG_WDT$OFF 000000  
                   _LATA 000F89                     _RCIF 007CF5                     _TAIL 0026  
                   i2l86 049C             __CFG_WDTPS$1 000000                     _data 03A8  
                   _main 03F6             LED_DISP@dark 001C                     _next 0438  
                   _prev 045E                     fsr0h 000FEA                     fsr1h 000FE2  
                   fsr2h 000FDA                     fsr0l 000FE9                     indf2 000FDF  
                   fsr1l 000FE1                     fsr2l 000FD9             LED_DISP@iter 0020  
                   btemp 002D                     prodh 000FF4                     prodl 000FF3  
                   start 000E            __CFG_MCLRE$ON 000000             ___param_bank 000000  
       __end_of_LED_DISP 03A2                    ?_main 0001                    ?_next 0016  
                  ?_prev 0016                    i2l107 02C2                    i2l854 049C  
                  _RCREG 000FAE                    _SPBRG 000FAF                    _TRISA 000F92  
                  _TRISD 000F95                    _TXREG 000FAD            __CFG_PWRT$OFF 000000  
          __CFG_WRT0$OFF 000000            __CFG_WRT1$OFF 000000         __end_of_ISR_Init 0504  
          __CFG_WRT2$OFF 000000            __CFG_WRT3$OFF 000000           __CFG_EBTR0$OFF 000000  
         __CFG_FCMEN$OFF 000000           __CFG_EBTR1$OFF 000000           __CFG_EBTR2$OFF 000000  
         __CFG_EBTR3$OFF 000000            __CFG_WRTB$OFF 000000            __CFG_WRTC$OFF 000000  
          __CFG_WRTD$OFF 000000           __CFG_EBTRB$OFF 000000            LED_DISP@delay 001E  
          LED_DISP@start 0018                    pclath 000FFA                    tablat 000FF5  
                  status 000FD8                    wtemp6 002E           __CFG_PBADEN$ON 000000  
        __initialization 03A2             __end_of_main 0438             __end_of_next 045E  
           __end_of_prev 0484                   ??_main 0024                   ??_next 0018  
                 ??_prev 0018            __activetblptr 000000         __end_of_add_word 04CE  
                 _Hi_ISR 0008                   i2_next 0484           __CFG_XINST$OFF 000000  
         __CFG_STVREN$ON 000000           LED_DISP@bright 001A             __pdataBIGRAM 03A8  
           __pdataCOMRAM 0026                   tblptrh 000FF7                   tblptrl 000FF6  
                 tblptru 000FF8                ?_LED_DISP 0018               __accesstop 0080  
__end_of__initialization 03EC                LED_DISP@i 0022            ___rparam_used 000001  
         __pcstackCOMRAM 0001                ?_ISR_Init 0001            ??_MyusartRead 0004  
          ??_Myusartinit 0016               ??_LED_DISP 001A            Myusartwrite@a 0001  
                ?_Hi_ISR 0001                  ?i2_next 0001               ??_ISR_Init 0016  
              ?_add_word 0001      __end_of_MyusartRead 04FC      __end_of_Myusartinit 04F0  
        __size_of_Hi_ISR 0306          __size_ofi2_next 0026                  __Hparam 0000  
                __Lparam 0000                  __pcinit 03A2                  __ramtop 0600  
                __ptext0 03F6                  __ptext1 0438                  __ptext2 04CE  
                __ptext3 030E                  __ptext4 045E                  __ptext5 04FC  
                __ptext7 0504                  __ptext8 04F0                  __ptext9 04AA  
             ??_add_word 0003                  _stringC 002A           __pintcode_body 026A  
   end_of_initialization 03EC                  int_func 026A                  next@ptr 0016  
                prev@ptr 0016                _RCSTAbits 000FAB                  postdec1 000FE5  
                postinc0 000FEE                _TRISCbits 000F94              _MyusartRead 04F0  
            _Myusartinit 04CE                _TXSTAbits 000FAC        __size_of_LED_DISP 0094  
         __end_of_Hi_ISR 030E           __end_ofi2_next 04AA            ?_Myusartwrite 0001  
          __pidataBIGRAM 0012        __size_of_ISR_Init 0008              _BAUDCONbits 000FB8  
          __pidataCOMRAM 050C                i2next@ptr 0001      start_initialization 03A2  
       __CFG_OSC$INTIO67 000000                 ??_Hi_ISR 0004                 ??i2_next 0003  
         ??_Myusartwrite 0001         __CFG_LPT1OSC$OFF 000000              __pbssCOMRAM 002A  
      __size_of_add_word 0024        __CFG_CCP2MX$PORTC 000000                __pintcode 0008  
              add_word@c 0003                 _LED_DISP 030E                 _IPR1bits 000F9F  
               _PIE1bits 000F9D                 _PIR1bits 000F9E                 _RCONbits 000FD0  
               _ISR_Init 04FC              _global_char 002C                main@start 0024  
           ?_MyusartRead 0001             ?_Myusartinit 0001                copy_data0 03B6  
              copy_data1 03DA     __end_of_Myusartwrite 050C                 __Hrparam 0000  
               __Lrparam 0000       __CFG_BOREN$SBORDIS 000000                 _add_word 04AA  
               __ptext10 0484            __size_of_main 0042            __size_of_next 0026  
          __size_of_prev 0026                 int$flags 002D               _INTCONbits 000FF2  
               intlevel2 0000               _OSCCONbits 000FD3    __size_of_Myusartwrite 0008  
   __size_of_MyusartRead 000C     __size_of_Myusartinit 0022  
