Microchip MPLAB XC8 Compiler V1.44 ()

Linker command line:

-W-3 --edf=C:\Program Files (x86)\Microchip\xc8\v1.44\dat\en_msgs.txt -cs \
  -h+dist/default/production\LED_fan2.X.production.sym \
  --cmf=dist/default/production\LED_fan2.X.production.cmf -z -Q18F4520 \
  -oC:\Users\Lenovo\AppData\Local\Temp\s1a4.2 \
  -Mdist/default/production/LED_fan2.X.production.map -E1 -ver=XC8 \
  -ASTACK=034Eh-05ffh -pstack=STACK -ACODE=00h-07FFFh -ACONST=00h-07FFFh \
  -ASMALLCONST=0600h-06FFhx122 -AMEDIUMCONST=0600h-07FFFh -ACOMRAM=01h-07Fh \
  -AABS1=00h-05FFh -ABIGRAM=01h-05FFh -ARAM=080h-0FFh,0100h-01FFhx5 \
  -ABANK0=080h-0FFh -ABANK1=0100h-01FFh -ABANK2=0200h-02FFh \
  -ABANK3=0300h-03FFh -ABANK4=0400h-04FFh -ABANK5=0500h-05FFh \
  -ASFR=0F80h-0FFFh -preset_vec=00h,intcode=08h,intcodelo,powerup,init \
  -pramtop=0600h -psmallconst=SMALLCONST -pmediumconst=MEDIUMCONST \
  -pconst=CONST -AFARRAM=00h-00h -ACONFIG=0300000h-030000Dh -pconfig=CONFIG \
  -AIDLOC=0200000h-0200007h -pidloc=IDLOC -AEEDATA=0F00000h-0F000FFh \
  -peeprom_data=EEDATA \
  -prdata=COMRAM,nvrram=COMRAM,nvbit=COMRAM,rbss=COMRAM,rbit=COMRAM \
  -pfarbss=FARRAM,fardata=FARRAM,nvFARRAM=FARRAM \
  -pintsave_regs=BIGRAM,bigbss=BIGRAM,bigdata=BIGRAM -pbss=RAM \
  -pidata=CODE,irdata=CODE,ibigdata=CODE,ifardata=CODE -prparam=COMRAM \
  C:\Users\Lenovo\AppData\Local\Temp\s1a4.obj \
  dist/default/production\LED_fan2.X.production.obj 

Object code version is 3.11

Machine type is 18F4520

Call graph: (short form)




                Name                               Link     Load   Length Selector   Space Scale
C:\Users\Lenovo\AppData\Local\Temp\s1a4.obj
                init                                  E        E        4        4       0
                reset_vec                             0        0        4        0       0
                idloc                            200000   200000        8   200000       0
                config                           300000   300000        E   300000       0
dist/default/production\LED_fan2.X.production.obj
                intcode                               8        8        6        4       0
                temp                                 69       69        1        1       1
                text11                             1E3C     1E3C       44      EBC       0
                intcode_body                       1A9A     1A9A       C0        4       0
                text9                               D10      D10      542        4       0
                text8                              1C78     1C78       84        4       0
                text7                              1D78     1D78       70      EBC       0
                text6                              1E80     1E80       26      EBC       0
                text5                              1BF4     1BF4       84        4       0
                text4                              1252     1252      3D4        4       0
                text3                              1626     1626      2AC        4       0
                text2                               74C      74C      5C4        4       0
                text1                                12       12      73A        4       0
                text0                              1DE8     1DE8       54      EBC       0
                cstackCOMRAM                          1        1       4C        1       1
                cstackBANK3                         300      300       4E      300       1
                dataBANK2                           200      200       EE      200       1
                dataBANK1                           100      100       DA      100       1
                dataBANK0                            80       80       7B       80       1
                dataCOMRAM                           4D       4D       14        1       1
                bssCOMRAM                            61       61        6        1       1
                cinit                              1B5A     1B5A       9A        4       0
                nvCOMRAM                             67       67        2        1       1
                idataBANK2                         18D2     18D2       EE        4       0
                idataBANK1                         19C0     19C0       DA        4       0
                idataBANK0                         1CFC     1CFC       7B        4       0
                idataCOMRAM                        1EA6     1EA6       14      EBC       0

TOTAL           Name                               Link     Load   Length     Space
        CLASS   STACK          

        CLASS   CODE           
                intcode                               8        8        6         0
                init                                  E        E        4         0
                reset_vec                             0        0        4         0
                text11                             1E3C     1E3C       44         0
                intcode_body                       1A9A     1A9A       C0         0
                text9                               D10      D10      542         0
                text8                              1C78     1C78       84         0
                text7                              1D78     1D78       70         0
                text6                              1E80     1E80       26         0
                text5                              1BF4     1BF4       84         0
                text4                              1252     1252      3D4         0
                text3                              1626     1626      2AC         0
                text2                               74C      74C      5C4         0
                text1                                12       12      73A         0
                text0                              1DE8     1DE8       54         0
                cinit                              1B5A     1B5A       9A         0
                idataBANK2                         18D2     18D2       EE         0
                idataBANK1                         19C0     19C0       DA         0
                idataBANK0                         1CFC     1CFC       7B         0
                idataCOMRAM                        1EA6     1EA6       14         0

        CLASS   CONST          

        CLASS   SMALLCONST     

        CLASS   MEDIUMCONST    

        CLASS   COMRAM         
                temp                                 69       69        1         1
                cstackCOMRAM                          1        1       4C         1
                dataCOMRAM                           4D       4D       14         1
                bssCOMRAM                            61       61        6         1
                nvCOMRAM                             67       67        2         1

        CLASS   ABS1           

        CLASS   BIGRAM         

        CLASS   RAM            

        CLASS   BANK0          
                dataBANK0                            80       80       7B         1

        CLASS   BANK1          
                dataBANK1                           100      100       DA         1

        CLASS   BANK2          
                dataBANK2                           200      200       EE         1

        CLASS   BANK3          
                cstackBANK3                         300      300       4E         1

        CLASS   BANK4          

        CLASS   BANK5          

        CLASS   SFR            

        CLASS   FARRAM         

        CLASS   CONFIG         
                config                           300000   300000        E         0

        CLASS   IDLOC          
                idloc                            200000   200000        8         0

        CLASS   EEDATA         



SEGMENTS        Name                           Load    Length   Top    Selector   Space  Class

                reset_vec                      000000  000004  000004         0       0  CODE    
                cstackCOMRAM                   000001  000069  00006A         1       1  COMRAM  
                intcode                        000008  001D6F  001D77         4       0  CODE    
                dataBANK0                      000080  00007B  0000FB        80       1  BANK0   
                dataBANK1                      000100  0000DA  0001DA       100       1  BANK1   
                dataBANK2                      000200  0000EE  0002EE       200       1  BANK2   
                cstackBANK3                    000300  00004E  00034E       300       1  BANK3   
                text7                          001D78  000142  001EBA       EBC       0  CODE    
                idloc                          200000  000008  200008    200000       0  IDLOC   
                config                         300000  00000E  30000E    300000       0  CONFIG  


UNUSED ADDRESS RANGES

        Name                Unused          Largest block    Delta
        BANK0            0000FB-0000FF                5
        BANK1            0001DA-0001FF               26
        BANK2            0002EE-0002FF               12
        BANK3            00034E-0003FF               B2
        BANK4            000400-0004FF              100
        BANK5            000500-0005FF              100
        BIGRAM           00006A-00007F               16
                         0000FB-0000FF                5
                         0001DA-0001FF               26
                         0002EE-0002FF               12
                         00034E-0005FF              2B2
        CODE             000004-000007                4
                         001D77-001D77                1
                         001EBA-007FFF             6146
        COMRAM           00006A-00007F               16
        CONST            000004-000007                4
                         001D77-001D77                1
                         001EBA-007FFF             6146
        EEDATA           F00000-F000FF              100
        MEDIUMCONST      001D77-001D77                1
                         001EBA-007FFF             6146
        RAM              0000FB-0000FF                5
                         0001DA-0001FF               26
                         0002EE-0002FF               12
                         00034E-0005FF              100
        SFR              000F80-000FFF               80
        SMALLCONST       001D77-001D77                1
                         001EBA-007FFF              100
        STACK            00034E-0005FF              2B2

                                  Symbol Table

?___awdiv                      cstackCOMRAM 000013
?___awmod                      cstackCOMRAM 000013
?___wmul                       cstackCOMRAM 000013
_A                             dataCOMRAM   000052
_E                             dataBANK0    00009E
_INTCONbits                    (abs)        000FF2
_IPR1bits                      (abs)        000F9F
_L                             dataBANK0    0000AD
_LATA                          (abs)        000F89
_LATAbits                      (abs)        000F89
_LATD                          (abs)        000F8C
_LATDbits                      (abs)        000F8C
_MAS                           dataBANK2    000256
_N                             dataCOMRAM   00004D
_O                             dataBANK0    0000A8
_OSCCONbits                    (abs)        000FD3
_PIE1bits                      (abs)        000F9D
_PIR1bits                      (abs)        000F9E
_R                             dataCOMRAM   000057
_RCONbits                      (abs)        000FD0
_S                             dataBANK0    0000B2
_T                             dataCOMRAM   00005C
_T1CON                         (abs)        000FCD
_TMR1                          (abs)        000FCE
_TMR1IE                        (abs)        007CE8
_TMR1IF                        (abs)        007CF0
_TRISA                         (abs)        000F92
_TRISD                         (abs)        000F95
_V                             dataBANK0    0000A3
_X                             dataBANK1    0001BE
__CFG_LVP$ON                   (abs)        000000
__CFG_MCLRE$ON                 (abs)        000000
__CFG_OSC$INTIO67              (abs)        000000
__CFG_PBADEN$OFF               (abs)        000000
__CFG_WDT$OFF                  (abs)        000000
__HRAM                         (abs)        000000
__Habs1                        abs1         000000
__Hbank0                       bank0        000000
__Hbank1                       bank1        000000
__Hbank2                       bank2        000000
__Hbank3                       bank3        000000
__Hbank4                       bank4        000000
__Hbank5                       bank5        000000
__Hbigbss                      bigbss       000000
__Hbigdata                     bigdata      000000
__Hbigram                      bigram       000000
__Hbss                         bss          000000
__HbssCOMRAM                   bssCOMRAM    000000
__Hcinit                       cinit        000000
__Hclrtext                     clrtext      000000
__Hcomram                      comram       000000
__Hconfig                      config       30000E
__Hconst                       const        000000
__HcstackBANK3                 cstackBANK3  000000
__HcstackCOMRAM                cstackCOMRAM 000000
__Hdata                        data         000000
__HdataBANK0                   dataBANK0    000000
__HdataBANK1                   dataBANK1    000000
__HdataBANK2                   dataBANK2    000000
__HdataCOMRAM                  dataCOMRAM   000000
__Heeprom_data                 eeprom_data  000000
__Hfarbss                      farbss       000000
__Hfardata                     fardata      000000
__Hibigdata                    ibigdata     000000
__Hidata                       idata        000000
__HidataBANK0                  idataBANK0   000000
__HidataBANK1                  idataBANK1   000000
__HidataBANK2                  idataBANK2   000000
__HidataCOMRAM                 idataCOMRAM  000000
__Hidloc                       idloc        200008
__Hifardata                    ifardata     000000
__Hinit                        init         000012
__Hintcode                     intcode      00000E
__Hintcode_body                intcode_body 000000
__Hintcodelo                   intcodelo    00000E
__Hintentry                    intentry     000000
__Hintret                      intret       000000
__Hintsave_regs                intsave_regs 000000
__Hirdata                      irdata       000000
__Hmediumconst                 mediumconst  000000
__HnvCOMRAM                    nvCOMRAM     000000
__HnvFARRAM                    nvFARRAM     000000
__Hnvbit                       nvbit        000000
__Hnvrram                      nvrram       000000
__Hparam                       rparam       000000
__Hpowerup                     powerup      00000E
__Hram                         ram          000000
__Hramtop                      ramtop       000600
__Hrbit                        rbit         000000
__Hrbss                        rbss         000000
__Hrdata                       rdata        000000
__Hreset_vec                   reset_vec    000004
__Hrparam                      rparam       000000
__Hsfr                         sfr          000000
__Hsmallconst                  smallconst   000000
__Hspace_0                     (abs)        30000E
__Hspace_1                     (abs)        00034E
__Hspace_2                     (abs)        000000
__Hstack                       stack        000000
__Hstruct                      struct       000000
__Htemp                        temp         00006A
__Htext                        text         000000
__Htext0                       text0        000000
__Htext1                       text1        000000
__Htext11                      text11       000000
__Htext2                       text2        000000
__Htext3                       text3        000000
__Htext4                       text4        000000
__Htext5                       text5        000000
__Htext6                       text6        000000
__Htext7                       text7        000000
__Htext8                       text8        000000
__Htext9                       text9        000000
__LRAM                         (abs)        000001
__Labs1                        abs1         000000
__Lbank0                       bank0        000000
__Lbank1                       bank1        000000
__Lbank2                       bank2        000000
__Lbank3                       bank3        000000
__Lbank4                       bank4        000000
__Lbank5                       bank5        000000
__Lbigbss                      bigbss       000000
__Lbigdata                     bigdata      000000
__Lbigram                      bigram       000000
__Lbss                         bss          000000
__LbssCOMRAM                   bssCOMRAM    000000
__Lcinit                       cinit        000000
__Lclrtext                     clrtext      000000
__Lcomram                      comram       000000
__Lconfig                      config       300000
__Lconst                       const        000000
__LcstackBANK3                 cstackBANK3  000000
__LcstackCOMRAM                cstackCOMRAM 000000
__Ldata                        data         000000
__LdataBANK0                   dataBANK0    000000
__LdataBANK1                   dataBANK1    000000
__LdataBANK2                   dataBANK2    000000
__LdataCOMRAM                  dataCOMRAM   000000
__Leeprom_data                 eeprom_data  000000
__Lfarbss                      farbss       000000
__Lfardata                     fardata      000000
__Libigdata                    ibigdata     000000
__Lidata                       idata        000000
__LidataBANK0                  idataBANK0   000000
__LidataBANK1                  idataBANK1   000000
__LidataBANK2                  idataBANK2   000000
__LidataCOMRAM                 idataCOMRAM  000000
__Lidloc                       idloc        200000
__Lifardata                    ifardata     000000
__Linit                        init         00000E
__Lintcode                     intcode      000008
__Lintcode_body                intcode_body 000000
__Lintcodelo                   intcodelo    00000E
__Lintentry                    intentry     000000
__Lintret                      intret       000000
__Lintsave_regs                intsave_regs 000000
__Lirdata                      irdata       000000
__Lmediumconst                 mediumconst  000000
__LnvCOMRAM                    nvCOMRAM     000000
__LnvFARRAM                    nvFARRAM     000000
__Lnvbit                       nvbit        000000
__Lnvrram                      nvrram       000000
__Lparam                       rparam       000000
__Lpowerup                     powerup      00000E
__Lram                         ram          000000
__Lramtop                      ramtop       000600
__Lrbit                        rbit         000000
__Lrbss                        rbss         000000
__Lrdata                       rdata        000000
__Lreset_vec                   reset_vec    000000
__Lrparam                      rparam       000000
__Lsfr                         sfr          000000
__Lsmallconst                  smallconst   000000
__Lspace_0                     (abs)        000000
__Lspace_1                     (abs)        000000
__Lspace_2                     (abs)        000000
__Lstack                       stack        000000
__Lstruct                      struct       000000
__Ltemp                        temp         000069
__Ltext                        text         000000
__Ltext0                       text0        000000
__Ltext1                       text1        000000
__Ltext11                      text11       000000
__Ltext2                       text2        000000
__Ltext3                       text3        000000
__Ltext4                       text4        000000
__Ltext5                       text5        000000
__Ltext6                       text6        000000
__Ltext7                       text7        000000
__Ltext8                       text8        000000
__Ltext9                       text9        000000
__S0                           (abs)        30000E
__S1                           (abs)        00034E
__S2                           (abs)        000000
___awdiv                       text8        001C78
___awdiv@counter               cstackCOMRAM 000017
___awdiv@dividend              cstackCOMRAM 000013
___awdiv@divisor               cstackCOMRAM 000015
___awdiv@quotient              cstackCOMRAM 000019
___awdiv@sign                  cstackCOMRAM 000018
___awmod                       text7        001D78
___awmod@counter               cstackCOMRAM 000017
___awmod@dividend              cstackCOMRAM 000013
___awmod@divisor               cstackCOMRAM 000015
___awmod@sign                  cstackCOMRAM 000018
___inthi_sp                    stack        000000
___intlo_sp                    stack        000000
___param_bank                  (abs)        000000
___rparam_used                 (abs)        000001
___sp                          stack        000000
___wmul                        text6        001E80
___wmul@multiplicand           cstackCOMRAM 000015
___wmul@multiplier             cstackCOMRAM 000013
___wmul@product                cstackCOMRAM 000017
__accesstop                    (abs)        000080
__activetblptr                 (abs)        000002
__end_of___awdiv               text8        001CFC
__end_of___awmod               text7        001DE8
__end_of___wmul                text6        001EA6
__end_of__initialization       cinit        001BE6
__end_of_display_num           text5        001C78
__end_of_main                  text0        001E3C
__end_of_mode_TransLove        text9        001252
__end_of_mode_clock            text4        001626
__end_of_mode_snow             text3        0018D2
__end_of_mode_tree             text2        000D10
__end_of_mode_walker           text1        00074C
__end_of_tc_int                intcode_body 001B5A
__end_of_update_time           text11       001E80
__initialization               cinit        001B5A
__mediumconst                  mediumconst  000000
__pbssCOMRAM                   bssCOMRAM    000061
__pcinit                       cinit        001B5A
__pcstackBANK3                 cstackBANK3  000300
__pcstackCOMRAM                cstackCOMRAM 000001
__pdataBANK0                   dataBANK0    000080
__pdataBANK1                   dataBANK1    000100
__pdataBANK2                   dataBANK2    000200
__pdataCOMRAM                  dataCOMRAM   00004D
__pidataBANK0                  idataBANK0   001CFC
__pidataBANK1                  idataBANK1   0019C0
__pidataBANK2                  idataBANK2   0018D2
__pidataCOMRAM                 idataCOMRAM  001EA6
__pintcode                     intcode      000008
__pintcode_body                intcode_body 001A9A
__pnvCOMRAM                    nvCOMRAM     000067
__ptext0                       text0        001DE8
__ptext1                       text1        000012
__ptext11                      text11       001E3C
__ptext2                       text2        00074C
__ptext3                       text3        001626
__ptext4                       text4        001252
__ptext5                       text5        001BF4
__ptext6                       text6        001E80
__ptext7                       text7        001D78
__ptext8                       text8        001C78
__ptext9                       text9        000D10
__ramtop                       ramtop       000600
__size_of___awdiv              (abs)        000000
__size_of___awmod              (abs)        000000
__size_of___wmul               (abs)        000000
__size_of_display_num          (abs)        000000
__size_of_main                 (abs)        000000
__size_of_mode_TransLove       (abs)        000000
__size_of_mode_clock           (abs)        000000
__size_of_mode_snow            (abs)        000000
__size_of_mode_tree            (abs)        000000
__size_of_mode_walker          (abs)        000000
__size_of_tc_int               (abs)        000000
__size_of_update_time          (abs)        000000
__smallconst                   smallconst   000000
_arrow                         dataBANK1    000100
_count                         bssCOMRAM    000065
_display_num                   text5        001BF4
_elk                           dataBANK2    0002A6
_face                          dataBANK0    0000E1
_hours                         nvCOMRAM     000067
_love                          dataBANK0    00008C
_main                          text0        001DE8
_minutes                       bssCOMRAM    000061
_mode_TransLove                text9        000D10
_mode_clock                    text4        001252
_mode_snow                     text3        001626
_mode_tree                     text2        00074C
_mode_walker                   text1        000012
_num                           dataBANK1    00018C
_seconds                       bssCOMRAM    000063
_snow_car                      dataBANK2    000200
_tc_int                        intcode      000008
_tree                          dataBANK0    0000B7
_update_time                   text11       001E3C
_walker                        dataBANK1    000120
btemp                          temp         000069
display_num@bright_i           cstackCOMRAM 00001D
display_num@dark_i             cstackCOMRAM 00001F
display_num@i                  cstackCOMRAM 000023
display_num@iter               cstackCOMRAM 000021
display_num@n                  cstackCOMRAM 00001B
end_of_initialization          cinit        001BE6
int$flags                      temp         000069
int_func                       intcode_body 001A9A
intlevel0                      text         000000
intlevel1                      text         000000
intlevel2                      text         000000
intlevel3                      text         000000
mode_TransLove@arrow_i         cstackCOMRAM 000023
mode_TransLove@arrow_speed     cstackCOMRAM 00001F
mode_TransLove@bright          cstackCOMRAM 000019
mode_TransLove@cycle           cstackCOMRAM 000017
mode_TransLove@dark            cstackCOMRAM 00001B
mode_TransLove@delay           cstackCOMRAM 000021
mode_TransLove@i               cstackCOMRAM 000025
mode_TransLove@stop_arrow      cstackCOMRAM 00001D
mode_clock@bright              cstackCOMRAM 000031
mode_clock@bright_493          cstackCOMRAM 000035
mode_clock@bright_497          cstackCOMRAM 000039
mode_clock@dark                cstackCOMRAM 000033
mode_clock@dark_494            cstackCOMRAM 000037
mode_clock@dark_498            cstackCOMRAM 00003B
mode_clock@delay               cstackCOMRAM 00004B
mode_clock@display_cycle       cstackCOMRAM 000027
mode_clock@face_i              cstackCOMRAM 000043
mode_clock@i                   cstackCOMRAM 00003F
mode_clock@i_491               cstackCOMRAM 000047
mode_clock@i_496               cstackCOMRAM 000045
mode_clock@j                   cstackCOMRAM 000041
mode_clock@minH                cstackCOMRAM 000029
mode_clock@minL                cstackCOMRAM 00002B
mode_clock@secH                cstackCOMRAM 00002D
mode_clock@secL                cstackCOMRAM 00002F
mode_clock@show                cstackCOMRAM 000049
mode_clock@state               cstackCOMRAM 00003D
mode_snow@count_elk            cstackCOMRAM 00001F
mode_snow@count_walker         cstackCOMRAM 00001D
mode_snow@delay                cstackCOMRAM 00002D
mode_snow@display_cycle        cstackCOMRAM 00001B
mode_snow@elk_pic_i            cstackCOMRAM 000023
mode_snow@i                    cstackCOMRAM 000029
mode_snow@i_399                cstackCOMRAM 000025
mode_snow@i_400                cstackCOMRAM 000027
mode_snow@show                 cstackCOMRAM 00002B
mode_snow@walker_pic_i         cstackCOMRAM 000021
mode_tree@F3046                dataBANK0    000080
mode_tree@bright               cstackBANK3  000304
mode_tree@bright_420           cstackBANK3  00030A
mode_tree@bright_425           cstackBANK3  00030E
mode_tree@bright_429           cstackBANK3  000312
mode_tree@bright_435           cstackBANK3  000316
mode_tree@count                cstackBANK3  00034A
mode_tree@count_4              cstackBANK3  000300
mode_tree@cycle                cstackBANK3  000344
mode_tree@dark                 cstackBANK3  000306
mode_tree@dark_421             cstackBANK3  00030C
mode_tree@dark_426             cstackBANK3  000310
mode_tree@dark_430             cstackBANK3  000314
mode_tree@dark_436             cstackBANK3  000318
mode_tree@delay                cstackBANK3  00034C
mode_tree@i                    cstackBANK3  000322
mode_tree@i_418                cstackBANK3  000328
mode_tree@i_424                cstackBANK3  00032C
mode_tree@i_428                cstackBANK3  000330
mode_tree@i_434                cstackBANK3  000336
mode_tree@interval             cstackBANK3  000348
mode_tree@move                 cstackBANK3  000324
mode_tree@show                 cstackBANK3  000320
mode_tree@show_417             cstackBANK3  000326
mode_tree@show_423             cstackBANK3  00032A
mode_tree@show_427             cstackBANK3  00032E
mode_tree@show_433             cstackBANK3  000334
mode_tree@six                  cstackBANK3  000338
mode_tree@six_i                cstackBANK3  00031E
mode_tree@six_i_416            cstackBANK3  000346
mode_tree@six_ptr              cstackBANK3  00031A
mode_tree@six_ptr_415          cstackBANK3  00031C
mode_tree@state                cstackBANK3  000302
mode_tree@tree_i               cstackBANK3  000332
mode_tree@wait                 cstackBANK3  000308
mode_walker@F3089              dataBANK0    000096
mode_walker@bright             cstackBANK3  000300
mode_walker@bright_457         cstackBANK3  000304
mode_walker@bright_461         cstackBANK3  000308
mode_walker@column             cstackBANK3  00031A
mode_walker@column_456         cstackBANK3  00031C
mode_walker@column_460         cstackBANK3  00031E
mode_walker@dark               cstackBANK3  000302
mode_walker@dark_455           cstackBANK3  000316
mode_walker@dark_458           cstackBANK3  000306
mode_walker@dark_459           cstackBANK3  00030E
mode_walker@dark_462           cstackBANK3  00030A
mode_walker@delay              cstackBANK3  000334
mode_walker@display_cycle      cstackBANK3  00032A
mode_walker@four               cstackBANK3  000322
mode_walker@i                  cstackBANK3  000336
mode_walker@move               cstackBANK3  000332
mode_walker@pic_cycle          cstackBANK3  000314
mode_walker@pic_cycle_i        cstackBANK3  000320
mode_walker@pic_i              cstackBANK3  00032C
mode_walker@show               cstackBANK3  00032E
mode_walker@state              cstackBANK3  000330
mode_walker@state_change_cycle cstackBANK3  00030C
mode_walker@update             cstackBANK3  000310
mode_walker@update_next_time   cstackBANK3  000312
stackhi                        (abs)        0005FF
stacklo                        (abs)        00034E
start                          init         00000E
start_initialization           cinit        001B5A
wtemp6                         temp         00006A


FUNCTION INFORMATION:

 *************** function _main *****************
 Defined at:
		line 1078 in file "main2.c"
 Parameters:    Size  Location     Type
		None
 Auto vars:     Size  Location     Type
		None
 Return value:  Size  Location     Type
                  1    wreg      void 
 Registers used:
		wreg, fsr1l, fsr1h, fsr2l, fsr2h, status,2, status,0, prodl, prodh, cstack
 Tracked objects:
		On entry : 
		On exit  : 
		Unchanged: 
 Data sizes:     COMRAM   BANK0   BANK1   BANK2   BANK3   BANK4   BANK5
      Params:         0       0       0       0       0       0       0
      Locals:         0       0       0       0       0       0       0
      Temps:          0       0       0       0       0       0       0
      Totals:         0       0       0       0       0       0       0
Total ram usage:        0 bytes
 Hardware stack levels required when called:    5
 This function calls:
		_mode_TransLove
		_mode_clock
		_mode_snow
		_mode_tree
		_mode_walker
 This function is called by:
		Startup code after reset
 This function uses a non-reentrant model


 *************** function _mode_walker *****************
 Defined at:
		line 671 in file "main2.c"
 Parameters:    Size  Location     Type
		None
 Auto vars:     Size  Location     Type
  dark            2    2[BANK3 ] int 
  bright          2    0[BANK3 ] int 
  column          2   26[BANK3 ] int 
  dark            2   10[BANK3 ] int 
  bright          2    8[BANK3 ] int 
  dark            2    6[BANK3 ] int 
  bright          2    4[BANK3 ] int 
  dark            4   22[BANK3 ] long 
  column          2   30[BANK3 ] int 
  column          2   28[BANK3 ] int 
  dark            2   14[BANK3 ] int 
  i               2   54[BANK3 ] int 
  four            8   34[BANK3 ] int [4]
  delay           2   52[BANK3 ] int 
  move            2   50[BANK3 ] int 
  state           2   48[BANK3 ] int 
  show            2   46[BANK3 ] PTR unsigned int 
		 -> walker(108), 
  pic_i           2   44[BANK3 ] int 
  display_cycl    2   42[BANK3 ] int 
  pic_cycle_i     2   32[BANK3 ] int 
  pic_cycle       2   20[BANK3 ] const int 
  update_next_    2   18[BANK3 ] int 
  update          2   16[BANK3 ] int 
  state_change    2   12[BANK3 ] int 
 Return value:  Size  Location     Type
                  1    wreg      void 
 Registers used:
		wreg, fsr1l, fsr1h, fsr2l, fsr2h, status,2, status,0, prodl, prodh, cstack
 Tracked objects:
		On entry : 
		On exit  : 
		Unchanged: 
 Data sizes:     COMRAM   BANK0   BANK1   BANK2   BANK3   BANK4   BANK5
      Params:         0       0       0       0       0       0       0
      Locals:         0       0       0       0      56       0       0
      Temps:          6       0       0       0       0       0       0
      Totals:         6       0       0       0      56       0       0
Total ram usage:       62 bytes
 Hardware stack levels used:    1
 Hardware stack levels required when called:    3
 This function calls:
		___wmul
 This function is called by:
		_main
 This function uses a non-reentrant model


 *************** function _mode_tree *****************
 Defined at:
		line 539 in file "main2.c"
 Parameters:    Size  Location     Type
		None
 Auto vars:     Size  Location     Type
  wait            2    8[BANK3 ] int 
  dark            2   12[BANK3 ] int 
  bright          2   10[BANK3 ] int 
  dark            2    6[BANK3 ] int 
  bright          2    4[BANK3 ] int 
  dark            2   24[BANK3 ] int 
  bright          2   22[BANK3 ] int 
  i               2   40[BANK3 ] int 
  i               2   34[BANK3 ] int 
  i               2   54[BANK3 ] int 
  show            2   38[BANK3 ] PTR int 
		 -> tree(42), 
  show            2   32[BANK3 ] PTR int 
		 -> tree(42), 
  show            2   52[BANK3 ] PTR int 
		 -> tree(42), 
  dark            2   20[BANK3 ] int 
  bright          2   18[BANK3 ] int 
  dark            2   16[BANK3 ] int 
  bright          2   14[BANK3 ] int 
  six_i           2   70[BANK3 ] int 
  six_i           2   30[BANK3 ] int 
  tree_i          2   50[BANK3 ] int 
  i               2   48[BANK3 ] int 
  i               2   44[BANK3 ] int 
  six_ptr         2   28[BANK3 ] PTR int 
		 -> mode_tree@six(12), 
  six_ptr         2   26[BANK3 ] PTR int 
		 -> mode_tree@six(12), 
  show            2   46[BANK3 ] PTR int 
		 -> tree(42), 
  show            2   42[BANK3 ] PTR int 
		 -> tree(42), 
  move            2   36[BANK3 ] int 
  six            12   56[BANK3 ] int [6]
  delay           2   76[BANK3 ] int 
  count           2   74[BANK3 ] int 
  interval        2   72[BANK3 ] int 
  cycle           2   68[BANK3 ] int 
  state           2    2[BANK3 ] int 
  count_4         2    0[BANK3 ] int 
 Return value:  Size  Location     Type
                  1    wreg      void 
 Registers used:
		wreg, fsr1l, fsr1h, fsr2l, fsr2h, status,2, status,0
 Tracked objects:
		On entry : 
		On exit  : 
		Unchanged: 
 Data sizes:     COMRAM   BANK0   BANK1   BANK2   BANK3   BANK4   BANK5
      Params:         0       0       0       0       0       0       0
      Locals:         0       0       0       0      78       0       0
      Temps:          2       0       0       0       0       0       0
      Totals:         2       0       0       0      78       0       0
Total ram usage:       80 bytes
 Hardware stack levels used:    1
 Hardware stack levels required when called:    2
 This function calls:
		Nothing
 This function is called by:
		_main
 This function uses a non-reentrant model


 *************** function _mode_snow *****************
 Defined at:
		line 474 in file "main2.c"
 Parameters:    Size  Location     Type
		None
 Auto vars:     Size  Location     Type
  i               2   38[COMRAM] int 
  i               2   36[COMRAM] int 
  i               2   40[COMRAM] int 
  delay           2   44[COMRAM] int 
  show            2   42[COMRAM] PTR int 
		 -> elk(72), snow_car(86), walker(108), 
  elk_pic_i       2   34[COMRAM] int 
  walker_pic_i    2   32[COMRAM] int 
  count_elk       2   30[COMRAM] int 
  count_walker    2   28[COMRAM] int 
  display_cycl    2   26[COMRAM] int 
 Return value:  Size  Location     Type
                  1    wreg      void 
 Registers used:
		wreg, fsr2l, fsr2h, status,2, status,0, prodl, prodh, cstack
 Tracked objects:
		On entry : 
		On exit  : 
		Unchanged: 
 Data sizes:     COMRAM   BANK0   BANK1   BANK2   BANK3   BANK4   BANK5
      Params:         0       0       0       0       0       0       0
      Locals:        20       0       0       0       0       0       0
      Temps:          2       0       0       0       0       0       0
      Totals:        22       0       0       0       0       0       0
Total ram usage:       22 bytes
 Hardware stack levels used:    1
 Hardware stack levels required when called:    3
 This function calls:
		___wmul
 This function is called by:
		_main
 This function uses a non-reentrant model


 *************** function _mode_clock *****************
 Defined at:
		line 958 in file "main2.c"
 Parameters:    Size  Location     Type
		None
 Auto vars:     Size  Location     Type
  dark            2   54[COMRAM] int 
  bright          2   52[COMRAM] int 
  j               2   64[COMRAM] int 
  dark            2   58[COMRAM] int 
  bright          2   56[COMRAM] int 
  dark            2   50[COMRAM] int 
  bright          2   48[COMRAM] int 
  i               2   68[COMRAM] int 
  i               2   70[COMRAM] int 
  i               2   62[COMRAM] int 
  delay           2   74[COMRAM] int 
  show            2   72[COMRAM] PTR int 
		 -> MAS(80), X(28), 
  face_i          2   66[COMRAM] PTR int 
		 -> face(26), 
  secL            2   46[COMRAM] int 
  secH            2   44[COMRAM] int 
  minL            2   42[COMRAM] int 
  minH            2   40[COMRAM] int 
  state           2   60[COMRAM] int 
  display_cycl    2   38[COMRAM] int 
 Return value:  Size  Location     Type
                  1    wreg      void 
 Registers used:
		wreg, fsr2l, fsr2h, status,2, status,0, prodl, prodh, cstack
 Tracked objects:
		On entry : 
		On exit  : 
		Unchanged: 
 Data sizes:     COMRAM   BANK0   BANK1   BANK2   BANK3   BANK4   BANK5
      Params:         0       0       0       0       0       0       0
      Locals:        38       0       0       0       0       0       0
      Temps:          2       0       0       0       0       0       0
      Totals:        40       0       0       0       0       0       0
Total ram usage:       40 bytes
 Hardware stack levels used:    1
 Hardware stack levels required when called:    4
 This function calls:
		___awdiv
		___awmod
		___wmul
		_display_num
 This function is called by:
		_main
 This function uses a non-reentrant model


 *************** function _display_num *****************
 Defined at:
		line 946 in file "main2.c"
 Parameters:    Size  Location     Type
  n               2   26[COMRAM] int 
 Auto vars:     Size  Location     Type
  dark_i          2   30[COMRAM] int 
  bright_i        2   28[COMRAM] int 
  i               2   34[COMRAM] int 
  iter            2   32[COMRAM] PTR unsigned char 
		 -> num(50), 
 Return value:  Size  Location     Type
                  1    wreg      void 
 Registers used:
		wreg, fsr2l, fsr2h, status,2, status,0, prodl, prodh, cstack
 Tracked objects:
		On entry : 
		On exit  : 
		Unchanged: 
 Data sizes:     COMRAM   BANK0   BANK1   BANK2   BANK3   BANK4   BANK5
      Params:         2       0       0       0       0       0       0
      Locals:         8       0       0       0       0       0       0
      Temps:          0       0       0       0       0       0       0
      Totals:        10       0       0       0       0       0       0
Total ram usage:       10 bytes
 Hardware stack levels used:    1
 Hardware stack levels required when called:    3
 This function calls:
		___wmul
 This function is called by:
		_mode_clock
 This function uses a non-reentrant model


 *************** function ___wmul *****************
 Defined at:
		line 15 in file "C:\Program Files (x86)\Microchip\xc8\v1.44\sources\common\Umul16.c"
 Parameters:    Size  Location     Type
  multiplier      2   18[COMRAM] unsigned int 
  multiplicand    2   20[COMRAM] unsigned int 
 Auto vars:     Size  Location     Type
  product         2   22[COMRAM] unsigned int 
 Return value:  Size  Location     Type
                  2   18[COMRAM] unsigned int 
 Registers used:
		wreg, status,2, status,0, prodl, prodh
 Tracked objects:
		On entry : 
		On exit  : 
		Unchanged: 
 Data sizes:     COMRAM   BANK0   BANK1   BANK2   BANK3   BANK4   BANK5
      Params:         4       0       0       0       0       0       0
      Locals:         2       0       0       0       0       0       0
      Temps:          0       0       0       0       0       0       0
      Totals:         6       0       0       0       0       0       0
Total ram usage:        6 bytes
 Hardware stack levels used:    1
 Hardware stack levels required when called:    2
 This function calls:
		Nothing
 This function is called by:
		_mode_snow
		_mode_walker
		_display_num
		_mode_clock
 This function uses a non-reentrant model


 *************** function ___awmod *****************
 Defined at:
		line 8 in file "C:\Program Files (x86)\Microchip\xc8\v1.44\sources\common\awmod.c"
 Parameters:    Size  Location     Type
  dividend        2   18[COMRAM] int 
  divisor         2   20[COMRAM] int 
 Auto vars:     Size  Location     Type
  sign            1   23[COMRAM] unsigned char 
  counter         1   22[COMRAM] unsigned char 
 Return value:  Size  Location     Type
                  2   18[COMRAM] int 
 Registers used:
		wreg, status,2, status,0
 Tracked objects:
		On entry : 
		On exit  : 
		Unchanged: 
 Data sizes:     COMRAM   BANK0   BANK1   BANK2   BANK3   BANK4   BANK5
      Params:         4       0       0       0       0       0       0
      Locals:         2       0       0       0       0       0       0
      Temps:          0       0       0       0       0       0       0
      Totals:         6       0       0       0       0       0       0
Total ram usage:        6 bytes
 Hardware stack levels used:    1
 Hardware stack levels required when called:    2
 This function calls:
		Nothing
 This function is called by:
		_mode_clock
 This function uses a non-reentrant model


 *************** function ___awdiv *****************
 Defined at:
		line 8 in file "C:\Program Files (x86)\Microchip\xc8\v1.44\sources\common\awdiv.c"
 Parameters:    Size  Location     Type
  dividend        2   18[COMRAM] int 
  divisor         2   20[COMRAM] int 
 Auto vars:     Size  Location     Type
  quotient        2   24[COMRAM] int 
  sign            1   23[COMRAM] unsigned char 
  counter         1   22[COMRAM] unsigned char 
 Return value:  Size  Location     Type
                  2   18[COMRAM] int 
 Registers used:
		wreg, status,2, status,0
 Tracked objects:
		On entry : 
		On exit  : 
		Unchanged: 
 Data sizes:     COMRAM   BANK0   BANK1   BANK2   BANK3   BANK4   BANK5
      Params:         4       0       0       0       0       0       0
      Locals:         4       0       0       0       0       0       0
      Temps:          0       0       0       0       0       0       0
      Totals:         8       0       0       0       0       0       0
Total ram usage:        8 bytes
 Hardware stack levels used:    1
 Hardware stack levels required when called:    2
 This function calls:
		Nothing
 This function is called by:
		_mode_clock
 This function uses a non-reentrant model


 *************** function _mode_TransLove *****************
 Defined at:
		line 865 in file "main2.c"
 Parameters:    Size  Location     Type
		None
 Auto vars:     Size  Location     Type
  delay           2   32[COMRAM] int 
  dark            2   26[COMRAM] int 
  bright          2   24[COMRAM] int 
  i               2   36[COMRAM] int 
  arrow_i         2   34[COMRAM] int 
  arrow_speed     2   30[COMRAM] int 
  stop_arrow      2   28[COMRAM] int 
  cycle           2   22[COMRAM] int 
 Return value:  Size  Location     Type
                  1    wreg      void 
 Registers used:
		wreg, fsr2l, fsr2h, status,2, status,0
 Tracked objects:
		On entry : 
		On exit  : 
		Unchanged: 
 Data sizes:     COMRAM   BANK0   BANK1   BANK2   BANK3   BANK4   BANK5
      Params:         0       0       0       0       0       0       0
      Locals:        16       0       0       0       0       0       0
      Temps:          4       0       0       0       0       0       0
      Totals:        20       0       0       0       0       0       0
Total ram usage:       20 bytes
 Hardware stack levels used:    1
 Hardware stack levels required when called:    2
 This function calls:
		Nothing
 This function is called by:
		_main
 This function uses a non-reentrant model


 *************** function _tc_int *****************
 Defined at:
		line 1065 in file "main2.c"
 Parameters:    Size  Location     Type
		None
 Auto vars:     Size  Location     Type
		None
 Return value:  Size  Location     Type
                  1    wreg      void 
 Registers used:
		wreg, status,2, status,0, cstack
 Tracked objects:
		On entry : 
		On exit  : 
		Unchanged: 
 Data sizes:     COMRAM   BANK0   BANK1   BANK2   BANK3   BANK4   BANK5
      Params:         0       0       0       0       0       0       0
      Locals:         0       0       0       0       0       0       0
      Temps:         18       0       0       0       0       0       0
      Totals:        18       0       0       0       0       0       0
Total ram usage:       18 bytes
 Hardware stack levels used:    1
 Hardware stack levels required when called:    1
 This function calls:
		_update_time
 This function is called by:
		Interrupt level 2
 This function uses a non-reentrant model


 *************** function _update_time *****************
 Defined at:
		line 1054 in file "main2.c"
 Parameters:    Size  Location     Type
		None
 Auto vars:     Size  Location     Type
		None
 Return value:  Size  Location     Type
                  1    wreg      void 
 Registers used:
		wreg, status,2, status,0
 Tracked objects:
		On entry : 
		On exit  : 
		Unchanged: 
 Data sizes:     COMRAM   BANK0   BANK1   BANK2   BANK3   BANK4   BANK5
      Params:         0       0       0       0       0       0       0
      Locals:         0       0       0       0       0       0       0
      Temps:          0       0       0       0       0       0       0
      Totals:         0       0       0       0       0       0       0
Total ram usage:        0 bytes
 Hardware stack levels used:    1
 This function calls:
		Nothing
 This function is called by:
		_tc_int
 This function uses a non-reentrant model



MODULE INFORMATION

Module		Function		Class		Link	Load	Size
C:\Program Files (x86)\Microchip\xc8\v1.44\sources\common\awmod.c
		___awmod       		CODE           	1D78	0000	113

C:\Program Files (x86)\Microchip\xc8\v1.44\sources\common\awmod.c estimated size: 113

C:\Program Files (x86)\Microchip\xc8\v1.44\sources\common\Umul16.c
		___wmul        		CODE           	1E80	0000	39

C:\Program Files (x86)\Microchip\xc8\v1.44\sources\common\Umul16.c estimated size: 39

main2.c
		_mode_snow     		CODE           	1626	0000	685
		_display_num   		CODE           	1BF4	0000	133
		_mode_tree     		CODE           	074C	0000	1477
		_main          		CODE           	1DE8	0000	85
		_mode_clock    		CODE           	1252	0000	981
		_tc_int        		CODE           	0008	0000	199
		_update_time   		CODE           	1E3C	0000	69
		_mode_TransLove		CODE           	0D10	0000	1347
		_mode_walker   		CODE           	0012	0000	1851

main2.c estimated size: 6827

shared
		__initialization		CODE           	1B5A	0000	141

shared estimated size: 141

C:\Program Files (x86)\Microchip\xc8\v1.44\sources\common\awdiv.c
		___awdiv       		CODE           	1C78	0000	133

C:\Program Files (x86)\Microchip\xc8\v1.44\sources\common\awdiv.c estimated size: 133

