

Microchip Technology PIC18 LITE Macro Assembler V1.44 build -154322312 
                                                                                               Thu Dec 21 23:39:01 2017

Microchip Technology Omniscient Code Generator v1.44 (Free mode) build 201709140600
     1                           	processor	18F4520
     2                           	fnconf	rparam,??,?,0
     3                           	opt	pw 120
     4                           	opt	lm
     5                           	psect	idataCOMRAM,global,class=CODE,delta=1,noexec
     6                           	psect	idataBANK0,global,class=CODE,delta=1,noexec
     7                           	psect	idataBANK1,global,class=CODE,delta=1,noexec
     8                           	psect	idataBANK2,global,class=CODE,delta=1,noexec
     9                           	psect	idataBANK3,global,class=CODE,delta=1,noexec
    10                           	psect	nvBANK1,global,class=BANK1,space=1,delta=1,lowdata,noexec
    11                           	psect	cinit,global,reloc=2,class=CODE,delta=1
    12                           	psect	bssCOMRAM,global,class=COMRAM,space=1,delta=1,noexec
    13                           	psect	dataCOMRAM,global,class=COMRAM,space=1,delta=1,noexec
    14                           	psect	dataBANK0,global,class=BANK0,space=1,delta=1,lowdata,noexec
    15                           	psect	bssBANK1,global,class=BANK1,space=1,delta=1,lowdata,noexec
    16                           	psect	dataBANK1,global,class=BANK1,space=1,delta=1,lowdata,noexec
    17                           	psect	dataBANK2,global,class=BANK2,space=1,delta=1,lowdata,noexec
    18                           	psect	dataBANK3,global,class=BANK3,space=1,delta=1,lowdata,noexec
    19                           	psect	cstackBANK1,global,class=BANK1,space=1,delta=1,noexec
    20                           	psect	cstackBANK0,global,class=BANK0,space=1,delta=1,noexec
    21                           	psect	cstackCOMRAM,global,class=COMRAM,space=1,delta=1,noexec
    22                           	psect	text0,global,reloc=2,class=CODE,delta=1
    23                           	psect	text1,global,reloc=2,class=CODE,delta=1
    24                           	psect	text2,global,reloc=2,class=CODE,delta=1
    25                           	psect	text3,global,reloc=2,class=CODE,delta=1
    26                           	psect	text4,global,reloc=2,class=CODE,delta=1
    27                           	psect	text5,global,reloc=2,class=CODE,delta=1
    28                           	psect	text6,global,reloc=2,class=CODE,delta=1,group=1
    29                           	psect	text7,global,reloc=2,class=CODE,delta=1,group=1
    30                           	psect	text8,global,reloc=2,class=CODE,delta=1,group=1
    31                           	psect	text9,global,reloc=2,class=CODE,delta=1
    32                           	psect	intcode,global,reloc=2,class=CODE,delta=1
    33                           	psect	intcode_body,global,reloc=2,class=CODE,delta=1
    34                           	psect	text11,global,reloc=2,class=CODE,delta=1
    35                           	psect	intsave_regs,global,class=BIGRAM,space=1,delta=1,noexec
    36                           	psect	rparam,global,class=COMRAM,space=1,delta=1,noexec
    37                           	psect	temp,global,ovrld,common,class=COMRAM,space=1,delta=1
    38  0000                     
    39                           ; Version 1.44
    40                           ; Generated 14/09/2017 GMT
    41                           ; 
    42                           ; Copyright © 2017, Microchip Technology Inc. and its subsidiaries ("Microchip")
    43                           ; All rights reserved.
    44                           ; 
    45                           ; This software is developed by Microchip Technology Inc. and its subsidiaries ("Microch
      +                          ip").
    46                           ; 
    47                           ; Redistribution and use in source and binary forms, with or without modification, are
    48                           ; permitted provided that the following conditions are met:
    49                           ; 
    50                           ;     1. Redistributions of source code must retain the above copyright notice, this lis
      +                          t of
    51                           ;        conditions and the following disclaimer.
    52                           ; 
    53                           ;     2. Redistributions in binary form must reproduce the above copyright notice, this 
      +                          list
    54                           ;        of conditions and the following disclaimer in the documentation and/or other
    55                           ;        materials provided with the distribution.
    56                           ; 
    57                           ;     3. Microchip's name may not be used to endorse or promote products derived from th
      +                          is
    58                           ;        software without specific prior written permission.
    59                           ; 
    60                           ; THIS SOFTWARE IS PROVIDED BY MICROCHIP "AS IS" AND ANY EXPRESS OR IMPLIED WARRANTIES,
    61                           ; INCLUDING, BUT NOT LIMITED TO, THE IMPLIED WARRANTIES OF MERCHANTABILITY AND FITNESS F
      +                          OR
    62                           ; PURPOSE ARE DISCLAIMED.  IN NO EVENT SHALL MICROCHIP BE LIABLE FOR ANY DIRECT, INDIREC
      +                          T,
    63                           ; INCIDENTAL, SPECIAL, EXEMPLARY, OR CONSEQUENTIAL DAMAGES (INCLUDING BUT NOT LIMITED TO
    64                           ; PROCUREMENT OF SUBSTITUTE GOODS OR SERVICES; LOSS OF USE, DATA OR PROFITS; OR BUSINESS
    65                           ; INTERRUPTION) HOWSOEVER CAUSED AND ON ANY THEORY OF LIABILITY, WHETHER IN CONTRACT, ST
      +                          RICT
    66                           ; LIABILITY, OR TORT (INCLUDING NEGLIGENCE OR OTHERWISE) ARISING IN ANY WAY OUT OF THE U
      +                          SE OF
    67                           ; THIS SOFTWARE, EVEN IF ADVISED OF THE POSSIBILITY OF SUCH DAMAGE.
    68                           ; 
    69                           ; 
    70                           ; Code-generator required, PIC18F4520 Definitions
    71                           ; 
    72                           ; SFR Addresses
    73  0000                     
    74                           	psect	idataCOMRAM
    75  001EF4                     __pidataCOMRAM:
    76                           	opt stack 0
    77                           
    78                           ;initializer for mode_TransLove@F3114
    79  001EF4  0E                 	db	14
    80  001EF5  11                 	db	17
    81  001EF6  11                 	db	17
    82  001EF7  11                 	db	17
    83  001EF8  0E                 	db	14
    84                           
    85                           ;initializer for mode_TransLove@F3112
    86  001EF9  1F                 	db	31
    87  001EFA  10                 	db	16
    88  001EFB  10                 	db	16
    89  001EFC  10                 	db	16
    90  001EFD  10                 	db	16
    91                           
    92                           ;initializer for mode_TransLove@F3110
    93  001EFE  12                 	db	18
    94  001EFF  15                 	db	21
    95  001F00  15                 	db	21
    96  001F01  15                 	db	21
    97  001F02  09                 	db	9
    98                           
    99                           ;initializer for mode_TransLove@F3108
   100  001F03  1F                 	db	31
   101  001F04  02                 	db	2
   102  001F05  04                 	db	4
   103  001F06  08                 	db	8
   104  001F07  1F                 	db	31
   105                           
   106                           ;initializer for mode_TransLove@F3106
   107  001F08  1C                 	db	28
   108  001F09  0A                 	db	10
   109  001F0A  09                 	db	9
   110  001F0B  0A                 	db	10
   111  001F0C  1C                 	db	28
   112                           
   113                           ;initializer for mode_TransLove@F3104
   114  001F0D  1F                 	db	31
   115  001F0E  05                 	db	5
   116  001F0F  05                 	db	5
   117  001F10  0D                 	db	13
   118  001F11  12                 	db	18
   119                           
   120                           	psect	idataBANK0
   121  001F12                     __pidataBANK0:
   122                           	opt stack 0
   123                           
   124                           ;initializer for mode_TransLove@F3102
   125  001F12  03                 	db	3
   126  001F13  01                 	db	1
   127  001F14  1F                 	db	31
   128  001F15  01                 	db	1
   129  001F16  03                 	db	3
   130                           
   131                           	psect	idataBANK1
   132  001E8C                     __pidataBANK1:
   133                           	opt stack 0
   134                           
   135                           ;initializer for mode_clock@F3145
   136  001E8C  00FE               	dw	254
   137  001E8E  0107               	dw	263
   138  001E90  0237               	dw	567
   139  001E92  0236               	dw	566
   140  001E94  0237               	dw	567
   141  001E96  0286               	dw	646
   142  001E98  0286               	dw	646
   143  001E9A  0287               	dw	647
   144  001E9C  0236               	dw	566
   145  001E9E  0237               	dw	567
   146  001EA0  0237               	dw	567
   147  001EA2  0107               	dw	263
   148  001EA4  00FE               	dw	254
   149                           
   150                           ;initializer for mode_tree@F3025
   151  001EA6  0001               	dw	1
   152  001EA8  0000               	dw	0
   153  001EAA  0000               	dw	0
   154  001EAC  0000               	dw	0
   155  001EAE  0000               	dw	0
   156  001EB0  0000               	dw	0
   157                           
   158                           ;initializer for mode_TransLove@F3098
   159  001EB2  00                 	db	0
   160  001EB3  0C                 	db	12
   161  001EB4  1E                 	db	30
   162  001EB5  3E                 	db	62
   163  001EB6  7C                 	db	124
   164  001EB7  3E                 	db	62
   165  001EB8  1E                 	db	30
   166  001EB9  0C                 	db	12
   167  001EBA  00                 	db	0
   168  001EBB  00                 	db	0
   169                           
   170                           ;initializer for mode_walker@F3068
   171  001EBC  0001               	dw	1
   172  001EBE  00                 	db	0
   173  001EBF  00                 	db	0
   174  001EC0  00                 	db	0
   175  001EC1  00                 	db	0
   176  001EC2  00                 	db	0
   177  001EC3  00                 	db	0
   178                           
   179                           ;initializer for mode_TransLove@F3118
   180  001EC4  1F                 	db	31
   181  001EC5  15                 	db	21
   182  001EC6  15                 	db	21
   183  001EC7  15                 	db	21
   184  001EC8  15                 	db	21
   185                           
   186                           ;initializer for mode_TransLove@F3116
   187  001EC9  07                 	db	7
   188  001ECA  0C                 	db	12
   189  001ECB  10                 	db	16
   190  001ECC  0C                 	db	12
   191  001ECD  07                 	db	7
   192                           
   193                           	psect	idataBANK2
   194  00193E                     __pidataBANK2:
   195                           	opt stack 0
   196                           
   197                           ;initializer for mode_clock@F3143
   198  00193E  0000               	dw	0
   199  001940  0000               	dw	0
   200  001942  0000               	dw	0
   201  001944  0003               	dw	3
   202  001946  000B               	dw	11
   203  001948  0007               	dw	7
   204  00194A  0000               	dw	0
   205  00194C  0000               	dw	0
   206  00194E  0000               	dw	0
   207  001950  0000               	dw	0
   208  001952  0303               	dw	771
   209  001954  03FF               	dw	1023
   210  001956  000E               	dw	14
   211  001958  0018               	dw	24
   212  00195A  0030               	dw	48
   213  00195C  0030               	dw	48
   214  00195E  0018               	dw	24
   215  001960  000E               	dw	14
   216  001962  03FF               	dw	1023
   217  001964  0303               	dw	771
   218  001966  0300               	dw	768
   219  001968  03F0               	dw	1008
   220  00196A  027C               	dw	636
   221  00196C  002E               	dw	46
   222  00196E  0023               	dw	35
   223  001970  0023               	dw	35
   224  001972  002E               	dw	46
   225  001974  027C               	dw	636
   226  001976  03F0               	dw	1008
   227  001978  0300               	dw	768
   228  00197A  038C               	dw	908
   229  00197C  019E               	dw	414
   230  00197E  0333               	dw	819
   231  001980  0323               	dw	803
   232  001982  0221               	dw	545
   233  001984  0211               	dw	529
   234  001986  0313               	dw	787
   235  001988  0337               	dw	823
   236  00198A  01E6               	dw	486
   237  00198C  00C7               	dw	199
   238                           
   239                           ;initializer for display_num@F3131
   240  00198E  1F                 	db	31
   241  00198F  11                 	db	17
   242  001990  11                 	db	17
   243  001991  11                 	db	17
   244  001992  1F                 	db	31
   245  001993  00                 	db	0
   246  001994  00                 	db	0
   247  001995  1F                 	db	31
   248  001996  00                 	db	0
   249  001997  00                 	db	0
   250  001998  1C                 	db	28
   251  001999  15                 	db	21
   252  00199A  15                 	db	21
   253  00199B  15                 	db	21
   254  00199C  17                 	db	23
   255  00199D  10                 	db	16
   256  00199E  11                 	db	17
   257  00199F  15                 	db	21
   258  0019A0  15                 	db	21
   259  0019A1  1F                 	db	31
   260  0019A2  07                 	db	7
   261  0019A3  04                 	db	4
   262  0019A4  04                 	db	4
   263  0019A5  1F                 	db	31
   264  0019A6  04                 	db	4
   265  0019A7  17                 	db	23
   266  0019A8  15                 	db	21
   267  0019A9  15                 	db	21
   268  0019AA  15                 	db	21
   269  0019AB  1D                 	db	29
   270  0019AC  1F                 	db	31
   271  0019AD  14                 	db	20
   272  0019AE  14                 	db	20
   273  0019AF  14                 	db	20
   274  0019B0  1C                 	db	28
   275  0019B1  00                 	db	0
   276  0019B2  01                 	db	1
   277  0019B3  01                 	db	1
   278  0019B4  01                 	db	1
   279  0019B5  1F                 	db	31
   280  0019B6  1F                 	db	31
   281  0019B7  15                 	db	21
   282  0019B8  15                 	db	21
   283  0019B9  15                 	db	21
   284  0019BA  1F                 	db	31
   285  0019BB  07                 	db	7
   286  0019BC  05                 	db	5
   287  0019BD  05                 	db	5
   288  0019BE  05                 	db	5
   289  0019BF  1F                 	db	31
   290                           
   291                           ;initializer for mode_tree@F3023
   292  0019C0  0100               	dw	256
   293  0019C2  0000               	dw	0
   294  0019C4  0000               	dw	0
   295  0019C6  0180               	dw	384
   296  0019C8  0020               	dw	32
   297  0019CA  0060               	dw	96
   298  0019CC  0110               	dw	272
   299  0019CE  0024               	dw	36
   300  0019D0  010E               	dw	270
   301  0019D2  0325               	dw	805
   302  0019D4  010E               	dw	270
   303  0019D6  0024               	dw	36
   304  0019D8  0110               	dw	272
   305  0019DA  0060               	dw	96
   306  0019DC  0020               	dw	32
   307  0019DE  0180               	dw	384
   308  0019E0  0000               	dw	0
   309  0019E2  0000               	dw	0
   310  0019E4  0100               	dw	256
   311  0019E6  00                 	db	0
   312  0019E7  00                 	db	0
   313  0019E8  00                 	db	0
   314  0019E9  00                 	db	0
   315                           
   316                           ;initializer for mode_TransLove@F3100
   317  0019EA  0032               	dw	50
   318  0019EC  0036               	dw	54
   319  0019EE  001C               	dw	28
   320  0019F0  0008               	dw	8
   321  0019F2  0008               	dw	8
   322  0019F4  0008               	dw	8
   323  0019F6  0008               	dw	8
   324  0019F8  0008               	dw	8
   325  0019FA  0008               	dw	8
   326  0019FC  0008               	dw	8
   327  0019FE  0008               	dw	8
   328  001A00  0008               	dw	8
   329  001A02  0008               	dw	8
   330  001A04  002A               	dw	42
   331  001A06  001C               	dw	28
   332  001A08  0008               	dw	8
   333                           
   334                           ;initializer for mode_clock@F3140
   335  001A0A  0200               	dw	512
   336  001A0C  0200               	dw	512
   337  001A0E  0303               	dw	771
   338  001A10  0101               	dw	257
   339  001A12  01CF               	dw	463
   340  001A14  00DC               	dw	220
   341  001A16  0070               	dw	112
   342  001A18  0038               	dw	56
   343  001A1A  00EC               	dw	236
   344  001A1C  01CF               	dw	463
   345  001A1E  0301               	dw	769
   346  001A20  0203               	dw	515
   347  001A22  0200               	dw	512
   348  001A24  0200               	dw	512
   349                           
   350                           	psect	idataBANK3
   351  001A26                     __pidataBANK3:
   352                           	opt stack 0
   353                           
   354                           ;initializer for mode_snow@F3011
   355  001A26  0018               	dw	24
   356  001A28  003C               	dw	60
   357  001A2A  003C               	dw	60
   358  001A2C  0078               	dw	120
   359  001A2E  00D0               	dw	208
   360  001A30  0190               	dw	400
   361  001A32  0010               	dw	16
   362  001A34  0010               	dw	16
   363  001A36  0010               	dw	16
   364  001A38  0010               	dw	16
   365  001A3A  0024               	dw	36
   366  001A3C  004C               	dw	76
   367  001A3E  00FC               	dw	252
   368  001A40  0080               	dw	128
   369  001A42  0180               	dw	384
   370  001A44  00FC               	dw	252
   371  001A46  0095               	dw	149
   372  001A48  00FE               	dw	254
   373  001A4A  0096               	dw	150
   374  001A4C  01FD               	dw	509
   375  001A4E  0080               	dw	128
   376  001A50  00FC               	dw	252
   377  001A52  0095               	dw	149
   378  001A54  00FE               	dw	254
   379  001A56  0095               	dw	149
   380  001A58  00FC               	dw	252
   381  001A5A  0080               	dw	128
   382  001A5C  00FC               	dw	252
   383  001A5E  0095               	dw	149
   384  001A60  00FE               	dw	254
   385  001A62  0095               	dw	149
   386  001A64  00FC               	dw	252
   387  001A66  0080               	dw	128
   388  001A68  01FD               	dw	509
   389  001A6A  0096               	dw	150
   390  001A6C  00FE               	dw	254
   391  001A6E  0195               	dw	405
   392  001A70  00FC               	dw	252
   393  001A72  0080               	dw	128
   394  001A74  00FC               	dw	252
   395  001A76  000C               	dw	12
   396  001A78  0004               	dw	4
   397  001A7A  0000               	dw	0
   398                           
   399                           ;initializer for _walker
   400  001A7C  0000               	dw	0
   401  001A7E  0200               	dw	512
   402  001A80  0120               	dw	288
   403  001A82  00D0               	dw	208
   404  001A84  007F               	dw	127
   405  001A86  02A7               	dw	679
   406  001A88  0110               	dw	272
   407  001A8A  0000               	dw	0
   408  001A8C  0000               	dw	0
   409  001A8E  0000               	dw	0
   410  001A90  0080               	dw	128
   411  001A92  0130               	dw	304
   412  001A94  0090               	dw	144
   413  001A96  007F               	dw	127
   414  001A98  0297               	dw	663
   415  001A9A  0120               	dw	288
   416  001A9C  0020               	dw	32
   417  001A9E  0000               	dw	0
   418  001AA0  0080               	dw	128
   419  001AA2  0108               	dw	264
   420  001AA4  0088               	dw	136
   421  001AA6  0050               	dw	80
   422  001AA8  00BF               	dw	191
   423  001AAA  0317               	dw	791
   424  001AAC  0020               	dw	32
   425  001AAE  0040               	dw	64
   426  001AB0  0000               	dw	0
   427  001AB2  0000               	dw	0
   428  001AB4  0140               	dw	320
   429  001AB6  0120               	dw	288
   430  001AB8  0090               	dw	144
   431  001ABA  037F               	dw	895
   432  001ABC  0057               	dw	87
   433  001ABE  0020               	dw	32
   434  001AC0  0000               	dw	0
   435  001AC2  0000               	dw	0
   436  001AC4  0000               	dw	0
   437  001AC6  0200               	dw	512
   438  001AC8  0100               	dw	256
   439  001ACA  02B0               	dw	688
   440  001ACC  017F               	dw	383
   441  001ACE  0037               	dw	55
   442  001AD0  0000               	dw	0
   443  001AD2  0000               	dw	0
   444  001AD4  0000               	dw	0
   445  001AD6  0200               	dw	512
   446  001AD8  0100               	dw	256
   447  001ADA  0080               	dw	128
   448  001ADC  0050               	dw	80
   449  001ADE  007F               	dw	127
   450  001AE0  01D7               	dw	471
   451  001AE2  0120               	dw	288
   452  001AE4  0010               	dw	16
   453  001AE6  0000               	dw	0
   454                           
   455                           	psect	nvBANK1
   456  0001F2                     __pnvBANK1:
   457                           	opt stack 0
   458  0001F2                     _hours:
   459                           	opt stack 0
   460  0001F2                     	ds	2
   461  0000                     _TMR1	set	4046
   462  0000                     _TRISD	set	3989
   463  0000                     _TRISA	set	3986
   464  0000                     _INTCONbits	set	4082
   465  0000                     _PIR1bits	set	3998
   466  0000                     _IPR1bits	set	3999
   467  0000                     _PIE1bits	set	3997
   468  0000                     _T1CON	set	4045
   469  0000                     _RCONbits	set	4048
   470  0000                     _OSCCONbits	set	4051
   471  0000                     _LATDbits	set	3980
   472  0000                     _LATAbits	set	3977
   473  0000                     _LATD	set	3980
   474  0000                     _LATA	set	3977
   475  0000                     _TMR1IF	set	31984
   476  0000                     _TMR1IE	set	31976
   477                           
   478                           ; #config settings
   479  0000                     
   480                           	psect	cinit
   481  001BA8                     __pcinit:
   482                           	opt stack 0
   483  001BA8                     start_initialization:
   484                           	opt stack 0
   485  001BA8                     __initialization:
   486                           	opt stack 0
   487                           
   488                           ; Initialize objects allocated to BANK3 (194 bytes)
   489                           ; load TBLPTR registers with __pidataBANK3
   490  001BA8  0E26               	movlw	low __pidataBANK3
   491  001BAA  6EF6               	movwf	tblptrl,c
   492  001BAC  0E1A               	movlw	high __pidataBANK3
   493  001BAE  6EF7               	movwf	tblptrh,c
   494  001BB0  0E00               	movlw	low (__pidataBANK3 shr (0+16))
   495  001BB2  6EF8               	movwf	tblptru,c
   496  001BB4  EE03  F000         	lfsr	0,__pdataBANK3
   497  001BB8  EE10 F0C2          	lfsr	1,194
   498  001BBC                     copy_data0:
   499  001BBC  0009               	tblrd		*+
   500  001BBE  CFF5 FFEE          	movff	tablat,postinc0
   501  001BC2  50E5               	movf	postdec1,w,c
   502  001BC4  50E1               	movf	fsr1l,w,c
   503  001BC6  E1FA               	bnz	copy_data0
   504                           
   505                           ; Initialize objects allocated to BANK2 (232 bytes)
   506                           ; load TBLPTR registers with __pidataBANK2
   507  001BC8  0E3E               	movlw	low __pidataBANK2
   508  001BCA  6EF6               	movwf	tblptrl,c
   509  001BCC  0E19               	movlw	high __pidataBANK2
   510  001BCE  6EF7               	movwf	tblptrh,c
   511  001BD0  0E00               	movlw	low (__pidataBANK2 shr (0+16))
   512  001BD2  6EF8               	movwf	tblptru,c
   513  001BD4  EE02  F000         	lfsr	0,__pdataBANK2
   514  001BD8  EE10 F0E8          	lfsr	1,232
   515  001BDC                     copy_data1:
   516  001BDC  0009               	tblrd		*+
   517  001BDE  CFF5 FFEE          	movff	tablat,postinc0
   518  001BE2  50E5               	movf	postdec1,w,c
   519  001BE4  50E1               	movf	fsr1l,w,c
   520  001BE6  E1FA               	bnz	copy_data1
   521                           
   522                           ; Initialize objects allocated to BANK1 (66 bytes)
   523                           ; load TBLPTR registers with __pidataBANK1
   524  001BE8  0E8C               	movlw	low __pidataBANK1
   525  001BEA  6EF6               	movwf	tblptrl,c
   526  001BEC  0E1E               	movlw	high __pidataBANK1
   527  001BEE  6EF7               	movwf	tblptrh,c
   528  001BF0  0E00               	movlw	low (__pidataBANK1 shr (0+16))
   529  001BF2  6EF8               	movwf	tblptru,c
   530  001BF4  EE01  F0AC         	lfsr	0,__pdataBANK1
   531  001BF8  EE10 F042          	lfsr	1,66
   532  001BFC                     copy_data2:
   533  001BFC  0009               	tblrd		*+
   534  001BFE  CFF5 FFEE          	movff	tablat,postinc0
   535  001C02  50E5               	movf	postdec1,w,c
   536  001C04  50E1               	movf	fsr1l,w,c
   537  001C06  E1FA               	bnz	copy_data2
   538                           
   539                           ; Initialize objects allocated to BANK0 (5 bytes)
   540                           ; load TBLPTR registers with __pidataBANK0
   541  001C08  0E12               	movlw	low __pidataBANK0
   542  001C0A  6EF6               	movwf	tblptrl,c
   543  001C0C  0E1F               	movlw	high __pidataBANK0
   544  001C0E  6EF7               	movwf	tblptrh,c
   545  001C10  0E00               	movlw	low (__pidataBANK0 shr (0+16))
   546  001C12  6EF8               	movwf	tblptru,c
   547  001C14  EE00  F0F8         	lfsr	0,__pdataBANK0
   548  001C18  EE10 F005          	lfsr	1,5
   549  001C1C                     copy_data3:
   550  001C1C  0009               	tblrd		*+
   551  001C1E  CFF5 FFEE          	movff	tablat,postinc0
   552  001C22  50E5               	movf	postdec1,w,c
   553  001C24  50E1               	movf	fsr1l,w,c
   554  001C26  E1FA               	bnz	copy_data3
   555                           
   556                           ; Initialize objects allocated to COMRAM (30 bytes)
   557                           ; load TBLPTR registers with __pidataCOMRAM
   558  001C28  0EF4               	movlw	low __pidataCOMRAM
   559  001C2A  6EF6               	movwf	tblptrl,c
   560  001C2C  0E1E               	movlw	high __pidataCOMRAM
   561  001C2E  6EF7               	movwf	tblptrh,c
   562  001C30  0E00               	movlw	low (__pidataCOMRAM shr (0+16))
   563  001C32  6EF8               	movwf	tblptru,c
   564  001C34  EE00  F001         	lfsr	0,__pdataCOMRAM
   565  001C38  EE10 F01E          	lfsr	1,30
   566  001C3C                     copy_data4:
   567  001C3C  0009               	tblrd		*+
   568  001C3E  CFF5 FFEE          	movff	tablat,postinc0
   569  001C42  50E5               	movf	postdec1,w,c
   570  001C44  50E1               	movf	fsr1l,w,c
   571  001C46  E1FA               	bnz	copy_data4
   572                           
   573                           ; Clear objects allocated to BANK1 (4 bytes)
   574  001C48  0101               	movlb	1
   575  001C4A  6BF1               	clrf	(__pbssBANK1+3)& (0+255),b
   576  001C4C  6BF0               	clrf	(__pbssBANK1+2)& (0+255),b
   577  001C4E  6BEF               	clrf	(__pbssBANK1+1)& (0+255),b
   578  001C50  6BEE               	clrf	__pbssBANK1& (0+255),b
   579                           
   580                           ; Clear objects allocated to COMRAM (2 bytes)
   581  001C52  6A3E               	clrf	(__pbssCOMRAM+1)& (0+255),c
   582  001C54  6A3D               	clrf	__pbssCOMRAM& (0+255),c
   583  001C56                     end_of_initialization:
   584                           	opt stack 0
   585  001C56                     __end_of__initialization:
   586                           	opt stack 0
   587  001C56  903F               	bcf	int$flags,0,c	;clear compiler interrupt flag (level 1)
   588  001C58  923F               	bcf	int$flags,1,c	;clear compiler interrupt flag (level 2)
   589  001C5A  0E00               	movlw	low (__Lmediumconst shr (0+16))
   590  001C5C  6EF8               	movwf	tblptru,c
   591  001C5E  0100               	movlb	0
   592  001C60  EFF8  F00E         	goto	_main	;jump to C main() function
   593                           tblptru	equ	0xFF8
   594                           tblptrh	equ	0xFF7
   595                           tblptrl	equ	0xFF6
   596                           tablat	equ	0xFF5
   597                           postinc0	equ	0xFEE
   598                           postdec1	equ	0xFE5
   599                           fsr1l	equ	0xFE1
   600                           
   601                           	psect	bssCOMRAM
   602  00003D                     __pbssCOMRAM:
   603                           	opt stack 0
   604  00003D                     _count:
   605                           	opt stack 0
   606  00003D                     	ds	2
   607                           tblptru	equ	0xFF8
   608                           tblptrh	equ	0xFF7
   609                           tblptrl	equ	0xFF6
   610                           tablat	equ	0xFF5
   611                           postinc0	equ	0xFEE
   612                           postdec1	equ	0xFE5
   613                           fsr1l	equ	0xFE1
   614                           
   615                           	psect	dataCOMRAM
   616  000001                     __pdataCOMRAM:
   617                           	opt stack 0
   618  000001                     mode_TransLove@F3114:
   619                           	opt stack 0
   620  000001                     	ds	5
   621  000006                     mode_TransLove@F3112:
   622                           	opt stack 0
   623  000006                     	ds	5
   624  00000B                     mode_TransLove@F3110:
   625                           	opt stack 0
   626  00000B                     	ds	5
   627  000010                     mode_TransLove@F3108:
   628                           	opt stack 0
   629  000010                     	ds	5
   630  000015                     mode_TransLove@F3106:
   631                           	opt stack 0
   632  000015                     	ds	5
   633  00001A                     mode_TransLove@F3104:
   634                           	opt stack 0
   635  00001A                     	ds	5
   636                           tblptru	equ	0xFF8
   637                           tblptrh	equ	0xFF7
   638                           tblptrl	equ	0xFF6
   639                           tablat	equ	0xFF5
   640                           postinc0	equ	0xFEE
   641                           postdec1	equ	0xFE5
   642                           fsr1l	equ	0xFE1
   643                           
   644                           	psect	dataBANK0
   645  0000F8                     __pdataBANK0:
   646                           	opt stack 0
   647  0000F8                     mode_TransLove@F3102:
   648                           	opt stack 0
   649  0000F8                     	ds	5
   650                           tblptru	equ	0xFF8
   651                           tblptrh	equ	0xFF7
   652                           tblptrl	equ	0xFF6
   653                           tablat	equ	0xFF5
   654                           postinc0	equ	0xFEE
   655                           postdec1	equ	0xFE5
   656                           fsr1l	equ	0xFE1
   657                           
   658                           	psect	bssBANK1
   659  0001EE                     __pbssBANK1:
   660                           	opt stack 0
   661  0001EE                     _minutes:
   662                           	opt stack 0
   663  0001EE                     	ds	2
   664  0001F0                     _seconds:
   665                           	opt stack 0
   666  0001F0                     	ds	2
   667                           tblptru	equ	0xFF8
   668                           tblptrh	equ	0xFF7
   669                           tblptrl	equ	0xFF6
   670                           tablat	equ	0xFF5
   671                           postinc0	equ	0xFEE
   672                           postdec1	equ	0xFE5
   673                           fsr1l	equ	0xFE1
   674                           
   675                           	psect	dataBANK1
   676  0001AC                     __pdataBANK1:
   677                           	opt stack 0
   678  0001AC                     mode_clock@F3145:
   679                           	opt stack 0
   680  0001AC                     	ds	26
   681  0001C6                     mode_tree@F3025:
   682                           	opt stack 0
   683  0001C6                     	ds	12
   684  0001D2                     mode_TransLove@F3098:
   685                           	opt stack 0
   686  0001D2                     	ds	10
   687  0001DC                     mode_walker@F3068:
   688                           	opt stack 0
   689  0001DC                     	ds	8
   690  0001E4                     mode_TransLove@F3118:
   691                           	opt stack 0
   692  0001E4                     	ds	5
   693  0001E9                     mode_TransLove@F3116:
   694                           	opt stack 0
   695  0001E9                     	ds	5
   696                           tblptru	equ	0xFF8
   697                           tblptrh	equ	0xFF7
   698                           tblptrl	equ	0xFF6
   699                           tablat	equ	0xFF5
   700                           postinc0	equ	0xFEE
   701                           postdec1	equ	0xFE5
   702                           fsr1l	equ	0xFE1
   703                           
   704                           	psect	dataBANK2
   705  000200                     __pdataBANK2:
   706                           	opt stack 0
   707  000200                     mode_clock@F3143:
   708                           	opt stack 0
   709  000200                     	ds	80
   710  000250                     display_num@F3131:
   711                           	opt stack 0
   712  000250                     	ds	50
   713  000282                     mode_tree@F3023:
   714                           	opt stack 0
   715  000282                     	ds	42
   716  0002AC                     mode_TransLove@F3100:
   717                           	opt stack 0
   718  0002AC                     	ds	32
   719  0002CC                     mode_clock@F3140:
   720                           	opt stack 0
   721  0002CC                     	ds	28
   722                           tblptru	equ	0xFF8
   723                           tblptrh	equ	0xFF7
   724                           tblptrl	equ	0xFF6
   725                           tablat	equ	0xFF5
   726                           postinc0	equ	0xFEE
   727                           postdec1	equ	0xFE5
   728                           fsr1l	equ	0xFE1
   729                           
   730                           	psect	dataBANK3
   731  000300                     __pdataBANK3:
   732                           	opt stack 0
   733  000300                     mode_snow@F3011:
   734                           	opt stack 0
   735  000300                     	ds	86
   736  000356                     _walker:
   737                           	opt stack 0
   738  000356                     	ds	108
   739                           tblptru	equ	0xFF8
   740                           tblptrh	equ	0xFF7
   741                           tblptrl	equ	0xFF6
   742                           tablat	equ	0xFF5
   743                           postinc0	equ	0xFEE
   744                           postdec1	equ	0xFE5
   745                           fsr1l	equ	0xFE1
   746                           
   747                           	psect	cstackBANK1
   748  000100                     __pcstackBANK1:
   749                           	opt stack 0
   750  000100                     mode_clock@MAS:
   751                           	opt stack 0
   752                           
   753                           ; 80 bytes @ 0x0
   754  000100                     	ds	80
   755  000150                     mode_clock@face:
   756                           	opt stack 0
   757                           
   758                           ; 26 bytes @ 0x50
   759  000150                     	ds	26
   760  00016A                     mode_clock@X:
   761                           	opt stack 0
   762                           
   763                           ; 28 bytes @ 0x6A
   764  00016A                     	ds	28
   765  000186                     mode_clock@display_cycle:
   766                           	opt stack 0
   767                           
   768                           ; 2 bytes @ 0x86
   769  000186                     	ds	2
   770  000188                     mode_clock@minH:
   771                           	opt stack 0
   772                           
   773                           ; 2 bytes @ 0x88
   774  000188                     	ds	2
   775  00018A                     mode_clock@minL:
   776                           	opt stack 0
   777                           
   778                           ; 2 bytes @ 0x8A
   779  00018A                     	ds	2
   780  00018C                     mode_clock@secH:
   781                           	opt stack 0
   782                           
   783                           ; 2 bytes @ 0x8C
   784  00018C                     	ds	2
   785  00018E                     mode_clock@secL:
   786                           	opt stack 0
   787                           
   788                           ; 2 bytes @ 0x8E
   789  00018E                     	ds	2
   790  000190                     mode_clock@bright:
   791                           	opt stack 0
   792                           
   793                           ; 2 bytes @ 0x90
   794  000190                     	ds	2
   795  000192                     mode_clock@dark:
   796                           	opt stack 0
   797                           
   798                           ; 2 bytes @ 0x92
   799  000192                     	ds	2
   800  000194                     mode_clock@bright_507:
   801                           	opt stack 0
   802                           
   803                           ; 2 bytes @ 0x94
   804  000194                     	ds	2
   805  000196                     mode_clock@dark_508:
   806                           	opt stack 0
   807                           
   808                           ; 2 bytes @ 0x96
   809  000196                     	ds	2
   810  000198                     mode_clock@bright_511:
   811                           	opt stack 0
   812                           
   813                           ; 2 bytes @ 0x98
   814  000198                     	ds	2
   815  00019A                     mode_clock@dark_512:
   816                           	opt stack 0
   817                           
   818                           ; 2 bytes @ 0x9A
   819  00019A                     	ds	2
   820  00019C                     mode_clock@state:
   821                           	opt stack 0
   822                           
   823                           ; 2 bytes @ 0x9C
   824  00019C                     	ds	2
   825  00019E                     mode_clock@i:
   826                           	opt stack 0
   827                           
   828                           ; 2 bytes @ 0x9E
   829  00019E                     	ds	2
   830  0001A0                     mode_clock@j:
   831                           	opt stack 0
   832                           
   833                           ; 2 bytes @ 0xA0
   834  0001A0                     	ds	2
   835  0001A2                     mode_clock@face_i:
   836                           	opt stack 0
   837                           
   838                           ; 2 bytes @ 0xA2
   839  0001A2                     	ds	2
   840  0001A4                     mode_clock@i_510:
   841                           	opt stack 0
   842                           
   843                           ; 2 bytes @ 0xA4
   844  0001A4                     	ds	2
   845  0001A6                     mode_clock@i_505:
   846                           	opt stack 0
   847                           
   848                           ; 2 bytes @ 0xA6
   849  0001A6                     	ds	2
   850  0001A8                     mode_clock@show:
   851                           	opt stack 0
   852                           
   853                           ; 2 bytes @ 0xA8
   854  0001A8                     	ds	2
   855  0001AA                     mode_clock@delay:
   856                           	opt stack 0
   857                           
   858                           ; 2 bytes @ 0xAA
   859  0001AA                     	ds	2
   860                           tblptru	equ	0xFF8
   861                           tblptrh	equ	0xFF7
   862                           tblptrl	equ	0xFF6
   863                           tablat	equ	0xFF5
   864                           postinc0	equ	0xFEE
   865                           postdec1	equ	0xFE5
   866                           fsr1l	equ	0xFE1
   867                           
   868                           	psect	cstackBANK0
   869  000080                     __pcstackBANK0:
   870                           	opt stack 0
   871  000080                     mode_walker@delay:
   872                           	opt stack 0
   873  000080                     mode_TransLove@arrow:
   874                           	opt stack 0
   875  000080                     mode_tree@tree:
   876                           	opt stack 0
   877  000080                     display_num@num:
   878                           	opt stack 0
   879  000080                     mode_snow@snow_car:
   880                           	opt stack 0
   881                           
   882                           ; 86 bytes @ 0x0
   883  000080                     	ds	2
   884  000082                     mode_walker@bright:
   885                           	opt stack 0
   886                           
   887                           ; 2 bytes @ 0x2
   888  000082                     	ds	2
   889  000084                     mode_walker@dark:
   890                           	opt stack 0
   891                           
   892                           ; 2 bytes @ 0x4
   893  000084                     	ds	2
   894  000086                     mode_walker@bright_439:
   895                           	opt stack 0
   896                           
   897                           ; 2 bytes @ 0x6
   898  000086                     	ds	2
   899  000088                     mode_walker@dark_440:
   900                           	opt stack 0
   901                           
   902                           ; 2 bytes @ 0x8
   903  000088                     	ds	2
   904  00008A                     mode_walker@bright_443:
   905                           	opt stack 0
   906                           
   907                           ; 2 bytes @ 0xA
   908  00008A                     	ds	2
   909  00008C                     mode_walker@dark_444:
   910                           	opt stack 0
   911                           
   912                           ; 2 bytes @ 0xC
   913  00008C                     	ds	2
   914  00008E                     mode_walker@state_change_cycle:
   915                           	opt stack 0
   916                           
   917                           ; 2 bytes @ 0xE
   918  00008E                     	ds	2
   919  000090                     mode_walker@dark_441:
   920                           	opt stack 0
   921                           
   922                           ; 2 bytes @ 0x10
   923  000090                     	ds	2
   924  000092                     mode_walker@update:
   925                           	opt stack 0
   926                           
   927                           ; 2 bytes @ 0x12
   928  000092                     	ds	2
   929  000094                     mode_walker@update_next_time:
   930                           	opt stack 0
   931                           
   932                           ; 2 bytes @ 0x14
   933  000094                     	ds	2
   934  000096                     mode_walker@pic_cycle:
   935                           	opt stack 0
   936                           
   937                           ; 2 bytes @ 0x16
   938  000096                     	ds	2
   939  000098                     mode_walker@dark_436:
   940                           	opt stack 0
   941                           
   942                           ; 4 bytes @ 0x18
   943  000098                     	ds	4
   944  00009C                     mode_walker@column:
   945                           	opt stack 0
   946                           
   947                           ; 2 bytes @ 0x1C
   948  00009C                     	ds	2
   949  00009E                     mode_walker@column_438:
   950                           	opt stack 0
   951                           
   952                           ; 2 bytes @ 0x1E
   953  00009E                     	ds	2
   954  0000A0                     mode_walker@column_442:
   955                           	opt stack 0
   956  0000A0                     mode_TransLove@love:
   957                           	opt stack 0
   958                           
   959                           ; 10 bytes @ 0x20
   960  0000A0                     	ds	2
   961  0000A2                     mode_walker@pic_cycle_i:
   962                           	opt stack 0
   963                           
   964                           ; 2 bytes @ 0x22
   965  0000A2                     	ds	2
   966  0000A4                     mode_walker@four:
   967                           	opt stack 0
   968                           
   969                           ; 8 bytes @ 0x24
   970  0000A4                     	ds	6
   971  0000AA                     mode_tree@count_4:
   972                           	opt stack 0
   973  0000AA                     mode_TransLove@T:
   974                           	opt stack 0
   975                           
   976                           ; 5 bytes @ 0x2A
   977  0000AA                     	ds	2
   978  0000AC                     mode_tree@state:
   979                           	opt stack 0
   980  0000AC                     mode_walker@display_cycle:
   981                           	opt stack 0
   982                           
   983                           ; 2 bytes @ 0x2C
   984  0000AC                     	ds	2
   985  0000AE                     mode_tree@bright:
   986                           	opt stack 0
   987  0000AE                     mode_walker@pic_i:
   988                           	opt stack 0
   989                           
   990                           ; 2 bytes @ 0x2E
   991  0000AE                     	ds	1
   992  0000AF                     mode_TransLove@R:
   993                           	opt stack 0
   994                           
   995                           ; 5 bytes @ 0x2F
   996  0000AF                     	ds	1
   997  0000B0                     mode_tree@dark:
   998                           	opt stack 0
   999  0000B0                     mode_walker@delay_437:
  1000                           	opt stack 0
  1001                           
  1002                           ; 2 bytes @ 0x30
  1003  0000B0                     	ds	2
  1004  0000B2                     mode_tree@wait:
  1005                           	opt stack 0
  1006  0000B2                     mode_walker@delay_432:
  1007                           	opt stack 0
  1008  0000B2                     display_num@bright_i:
  1009                           	opt stack 0
  1010                           
  1011                           ; 2 bytes @ 0x32
  1012  0000B2                     	ds	2
  1013  0000B4                     mode_tree@bright_400:
  1014                           	opt stack 0
  1015  0000B4                     mode_walker@show:
  1016                           	opt stack 0
  1017  0000B4                     display_num@dark_i:
  1018                           	opt stack 0
  1019  0000B4                     mode_TransLove@A:
  1020                           	opt stack 0
  1021                           
  1022                           ; 5 bytes @ 0x34
  1023  0000B4                     	ds	2
  1024  0000B6                     mode_tree@dark_401:
  1025                           	opt stack 0
  1026  0000B6                     mode_walker@move:
  1027                           	opt stack 0
  1028  0000B6                     display_num@iter:
  1029                           	opt stack 0
  1030                           
  1031                           ; 2 bytes @ 0x36
  1032  0000B6                     	ds	2
  1033  0000B8                     mode_tree@bright_405:
  1034                           	opt stack 0
  1035  0000B8                     mode_walker@state:
  1036                           	opt stack 0
  1037  0000B8                     display_num@i:
  1038                           	opt stack 0
  1039                           
  1040                           ; 2 bytes @ 0x38
  1041  0000B8                     	ds	1
  1042  0000B9                     mode_TransLove@N:
  1043                           	opt stack 0
  1044                           
  1045                           ; 5 bytes @ 0x39
  1046  0000B9                     	ds	1
  1047  0000BA                     mode_tree@dark_406:
  1048                           	opt stack 0
  1049  0000BA                     mode_walker@i:
  1050                           	opt stack 0
  1051                           
  1052                           ; 2 bytes @ 0x3A
  1053  0000BA                     	ds	2
  1054  0000BC                     mode_tree@bright_409:
  1055                           	opt stack 0
  1056                           
  1057                           ; 2 bytes @ 0x3C
  1058  0000BC                     	ds	2
  1059  0000BE                     mode_tree@dark_410:
  1060                           	opt stack 0
  1061  0000BE                     mode_TransLove@S:
  1062                           	opt stack 0
  1063                           
  1064                           ; 5 bytes @ 0x3E
  1065  0000BE                     	ds	2
  1066  0000C0                     mode_tree@bright_415:
  1067                           	opt stack 0
  1068                           
  1069                           ; 2 bytes @ 0x40
  1070  0000C0                     	ds	2
  1071  0000C2                     mode_tree@dark_416:
  1072                           	opt stack 0
  1073                           
  1074                           ; 2 bytes @ 0x42
  1075  0000C2                     	ds	1
  1076  0000C3                     mode_TransLove@L:
  1077                           	opt stack 0
  1078                           
  1079                           ; 5 bytes @ 0x43
  1080  0000C3                     	ds	1
  1081  0000C4                     mode_tree@six_ptr:
  1082                           	opt stack 0
  1083                           
  1084                           ; 2 bytes @ 0x44
  1085  0000C4                     	ds	2
  1086  0000C6                     mode_tree@six_ptr_395:
  1087                           	opt stack 0
  1088                           
  1089                           ; 2 bytes @ 0x46
  1090  0000C6                     	ds	2
  1091  0000C8                     mode_tree@six_i:
  1092                           	opt stack 0
  1093  0000C8                     mode_TransLove@O:
  1094                           	opt stack 0
  1095                           
  1096                           ; 5 bytes @ 0x48
  1097  0000C8                     	ds	2
  1098  0000CA                     mode_tree@show:
  1099                           	opt stack 0
  1100                           
  1101                           ; 2 bytes @ 0x4A
  1102  0000CA                     	ds	2
  1103  0000CC                     mode_tree@i:
  1104                           	opt stack 0
  1105                           
  1106                           ; 2 bytes @ 0x4C
  1107  0000CC                     	ds	1
  1108  0000CD                     mode_TransLove@V:
  1109                           	opt stack 0
  1110                           
  1111                           ; 5 bytes @ 0x4D
  1112  0000CD                     	ds	1
  1113  0000CE                     mode_tree@move:
  1114                           	opt stack 0
  1115                           
  1116                           ; 2 bytes @ 0x4E
  1117  0000CE                     	ds	2
  1118  0000D0                     mode_tree@show_397:
  1119                           	opt stack 0
  1120                           
  1121                           ; 2 bytes @ 0x50
  1122  0000D0                     	ds	2
  1123  0000D2                     mode_tree@i_398:
  1124                           	opt stack 0
  1125  0000D2                     mode_TransLove@E:
  1126                           	opt stack 0
  1127                           
  1128                           ; 5 bytes @ 0x52
  1129  0000D2                     	ds	2
  1130  0000D4                     mode_tree@show_403:
  1131                           	opt stack 0
  1132                           
  1133                           ; 2 bytes @ 0x54
  1134  0000D4                     	ds	2
  1135  0000D6                     mode_snow@display_cycle:
  1136                           	opt stack 0
  1137  0000D6                     mode_tree@i_404:
  1138                           	opt stack 0
  1139                           
  1140                           ; 2 bytes @ 0x56
  1141  0000D6                     	ds	1
  1142  0000D7                     mode_TransLove@cycle:
  1143                           	opt stack 0
  1144                           
  1145                           ; 2 bytes @ 0x57
  1146  0000D7                     	ds	1
  1147  0000D8                     mode_snow@count:
  1148                           	opt stack 0
  1149  0000D8                     mode_tree@show_407:
  1150                           	opt stack 0
  1151                           
  1152                           ; 2 bytes @ 0x58
  1153  0000D8                     	ds	1
  1154  0000D9                     mode_TransLove@bright:
  1155                           	opt stack 0
  1156                           
  1157                           ; 2 bytes @ 0x59
  1158  0000D9                     	ds	1
  1159  0000DA                     mode_snow@walker_pic_i:
  1160                           	opt stack 0
  1161  0000DA                     mode_tree@i_408:
  1162                           	opt stack 0
  1163                           
  1164                           ; 2 bytes @ 0x5A
  1165  0000DA                     	ds	1
  1166  0000DB                     mode_TransLove@dark:
  1167                           	opt stack 0
  1168                           
  1169                           ; 2 bytes @ 0x5B
  1170  0000DB                     	ds	1
  1171  0000DC                     mode_snow@i_378:
  1172                           	opt stack 0
  1173  0000DC                     mode_tree@tree_i:
  1174                           	opt stack 0
  1175                           
  1176                           ; 2 bytes @ 0x5C
  1177  0000DC                     	ds	1
  1178  0000DD                     mode_TransLove@stop_arrow:
  1179                           	opt stack 0
  1180                           
  1181                           ; 2 bytes @ 0x5D
  1182  0000DD                     	ds	1
  1183  0000DE                     mode_snow@i:
  1184                           	opt stack 0
  1185  0000DE                     mode_tree@show_413:
  1186                           	opt stack 0
  1187                           
  1188                           ; 2 bytes @ 0x5E
  1189  0000DE                     	ds	1
  1190  0000DF                     mode_TransLove@arrow_speed:
  1191                           	opt stack 0
  1192                           
  1193                           ; 2 bytes @ 0x5F
  1194  0000DF                     	ds	1
  1195  0000E0                     mode_snow@show:
  1196                           	opt stack 0
  1197  0000E0                     mode_tree@i_414:
  1198                           	opt stack 0
  1199                           
  1200                           ; 2 bytes @ 0x60
  1201  0000E0                     	ds	1
  1202  0000E1                     mode_TransLove@delay:
  1203                           	opt stack 0
  1204                           
  1205                           ; 2 bytes @ 0x61
  1206  0000E1                     	ds	1
  1207  0000E2                     mode_snow@delay:
  1208                           	opt stack 0
  1209  0000E2                     mode_tree@six:
  1210                           	opt stack 0
  1211                           
  1212                           ; 12 bytes @ 0x62
  1213  0000E2                     	ds	1
  1214  0000E3                     mode_TransLove@arrow_i:
  1215                           	opt stack 0
  1216                           
  1217                           ; 2 bytes @ 0x63
  1218  0000E3                     	ds	2
  1219  0000E5                     mode_TransLove@i:
  1220                           	opt stack 0
  1221                           
  1222                           ; 2 bytes @ 0x65
  1223  0000E5                     	ds	9
  1224  0000EE                     mode_tree@cycle:
  1225                           	opt stack 0
  1226                           
  1227                           ; 2 bytes @ 0x6E
  1228  0000EE                     	ds	2
  1229  0000F0                     mode_tree@six_i_396:
  1230                           	opt stack 0
  1231                           
  1232                           ; 2 bytes @ 0x70
  1233  0000F0                     	ds	2
  1234  0000F2                     mode_tree@interval:
  1235                           	opt stack 0
  1236                           
  1237                           ; 2 bytes @ 0x72
  1238  0000F2                     	ds	2
  1239  0000F4                     mode_tree@count:
  1240                           	opt stack 0
  1241                           
  1242                           ; 2 bytes @ 0x74
  1243  0000F4                     	ds	2
  1244  0000F6                     mode_tree@delay:
  1245                           	opt stack 0
  1246                           
  1247                           ; 2 bytes @ 0x76
  1248  0000F6                     	ds	2
  1249                           tblptru	equ	0xFF8
  1250                           tblptrh	equ	0xFF7
  1251                           tblptrl	equ	0xFF6
  1252                           tablat	equ	0xFF5
  1253                           postinc0	equ	0xFEE
  1254                           postdec1	equ	0xFE5
  1255                           fsr1l	equ	0xFE1
  1256                           
  1257                           	psect	cstackCOMRAM
  1258  00001F                     __pcstackCOMRAM:
  1259                           	opt stack 0
  1260  00001F                     ??_tc_int:
  1261  00001F                     
  1262                           ; 1 bytes @ 0x0
  1263  00001F                     	ds	18
  1264  000031                     ??_mode_tree:
  1265  000031                     ??_mode_TransLove:
  1266  000031                     ?___wmul:
  1267                           	opt stack 0
  1268  000031                     ?___awdiv:
  1269                           	opt stack 0
  1270  000031                     ?___awmod:
  1271                           	opt stack 0
  1272  000031                     ___wmul@multiplier:
  1273                           	opt stack 0
  1274  000031                     ___awdiv@dividend:
  1275                           	opt stack 0
  1276  000031                     ___awmod@dividend:
  1277                           	opt stack 0
  1278                           
  1279                           ; 2 bytes @ 0x12
  1280  000031                     	ds	2
  1281  000033                     ___wmul@multiplicand:
  1282                           	opt stack 0
  1283  000033                     ___awdiv@divisor:
  1284                           	opt stack 0
  1285  000033                     ___awmod@divisor:
  1286                           	opt stack 0
  1287                           
  1288                           ; 2 bytes @ 0x14
  1289  000033                     	ds	2
  1290  000035                     ___awdiv@counter:
  1291                           	opt stack 0
  1292  000035                     ___awmod@counter:
  1293                           	opt stack 0
  1294  000035                     ___wmul@product:
  1295                           	opt stack 0
  1296                           
  1297                           ; 2 bytes @ 0x16
  1298  000035                     	ds	1
  1299  000036                     ___awdiv@sign:
  1300                           	opt stack 0
  1301  000036                     ___awmod@sign:
  1302                           	opt stack 0
  1303                           
  1304                           ; 1 bytes @ 0x17
  1305  000036                     	ds	1
  1306  000037                     ??_mode_snow:
  1307  000037                     ??_mode_walker:
  1308  000037                     ___awdiv@quotient:
  1309                           	opt stack 0
  1310                           
  1311                           ; 2 bytes @ 0x18
  1312  000037                     	ds	2
  1313  000039                     display_num@n:
  1314                           	opt stack 0
  1315                           
  1316                           ; 2 bytes @ 0x1A
  1317  000039                     	ds	2
  1318  00003B                     ??_mode_clock:
  1319                           
  1320                           ; 1 bytes @ 0x1C
  1321  00003B                     	ds	2
  1322  00003D                     tblptru	equ	0xFF8
  1323                           tblptrh	equ	0xFF7
  1324                           tblptrl	equ	0xFF6
  1325                           tablat	equ	0xFF5
  1326                           postinc0	equ	0xFEE
  1327                           postdec1	equ	0xFE5
  1328                           fsr1l	equ	0xFE1
  1329                           
  1330                           ; 1 bytes @ 0x1E
  1331 ;;
  1332 ;;Main: autosize = 0, tempsize = 0, incstack = 0, save=0
  1333 ;;
  1334 ;; *************** function _main *****************
  1335 ;; Defined at:
  1336 ;;		line 1019 in file "main2.c"
  1337 ;; Parameters:    Size  Location     Type
  1338 ;;		None
  1339 ;; Auto vars:     Size  Location     Type
  1340 ;;		None
  1341 ;; Return value:  Size  Location     Type
  1342 ;;                  1    wreg      void 
  1343 ;; Registers used:
  1344 ;;		wreg, fsr1l, fsr1h, fsr2l, fsr2h, status,2, status,0, prodl, prodh, cstack
  1345 ;; Tracked objects:
  1346 ;;		On entry : 0/0
  1347 ;;		On exit  : 0/0
  1348 ;;		Unchanged: 0/0
  1349 ;; Data sizes:     COMRAM   BANK0   BANK1   BANK2   BANK3   BANK4   BANK5
  1350 ;;      Params:         0       0       0       0       0       0       0
  1351 ;;      Locals:         0       0       0       0       0       0       0
  1352 ;;      Temps:          0       0       0       0       0       0       0
  1353 ;;      Totals:         0       0       0       0       0       0       0
  1354 ;;Total ram usage:        0 bytes
  1355 ;; Hardware stack levels required when called:    5
  1356 ;; This function calls:
  1357 ;;		_mode_TransLove
  1358 ;;		_mode_clock
  1359 ;;		_mode_snow
  1360 ;;		_mode_tree
  1361 ;;		_mode_walker
  1362 ;; This function is called by:
  1363 ;;		Startup code after reset
  1364 ;; This function uses a non-reentrant model
  1365 ;;
  1366                           
  1367                           	psect	text0
  1368  001DF0                     __ptext0:
  1369                           	opt stack 0
  1370  001DF0                     _main:
  1371                           	opt stack 26
  1372                           
  1373                           ;main2.c: 1020: OSCCONbits.IRCF = 0b111;
  1374                           
  1375                           ;incstack = 0
  1376  001DF0  88D3               	bsf	4051,4,c	;volatile
  1377  001DF2  8AD3               	bsf	4051,5,c	;volatile
  1378  001DF4  8CD3               	bsf	4051,6,c	;volatile
  1379                           
  1380                           ;main2.c: 1023: RCONbits.IPEN=0x01;
  1381  001DF6  8ED0               	bsf	4048,7,c	;volatile
  1382                           
  1383                           ;main2.c: 1024: T1CON = 0b10110101;
  1384  001DF8  0EB5               	movlw	181
  1385  001DFA  6ECD               	movwf	4045,c	;volatile
  1386                           
  1387                           ;main2.c: 1025: TMR1 = 15536;
  1388  001DFC  0E3C               	movlw	60
  1389  001DFE  6ECF               	movwf	4047,c	;volatile
  1390  001E00  0EB0               	movlw	176
  1391  001E02  6ECE               	movwf	4046,c	;volatile
  1392                           
  1393                           ;main2.c: 1026: PIE1bits.TMR1IE=1;
  1394  001E04  809D               	bsf	3997,0,c	;volatile
  1395                           
  1396                           ;main2.c: 1027: IPR1bits.TMR1IP=1;
  1397  001E06  809F               	bsf	3999,0,c	;volatile
  1398                           
  1399                           ;main2.c: 1028: PIR1bits.TMR1IF=0;
  1400  001E08  909E               	bcf	3998,0,c	;volatile
  1401                           
  1402                           ;main2.c: 1029: INTCONbits.GIE=1;
  1403  001E0A  8EF2               	bsf	intcon,7,c	;volatile
  1404                           
  1405                           ;main2.c: 1032: hours = 21;
  1406  001E0C  0E00               	movlw	0
  1407  001E0E  0101               	movlb	1	; () banked
  1408  001E10  6FF3               	movwf	(_hours+1)& (0+255),b
  1409  001E12  0E15               	movlw	21
  1410  001E14  6FF2               	movwf	_hours& (0+255),b
  1411                           
  1412                           ;main2.c: 1033: minutes = 0;
  1413  001E16  0E00               	movlw	0
  1414  001E18  6FEF               	movwf	(_minutes+1)& (0+255),b
  1415  001E1A  0E00               	movlw	0
  1416  001E1C  6FEE               	movwf	_minutes& (0+255),b
  1417                           
  1418                           ;main2.c: 1035: TRISA = 0;
  1419  001E1E  0E00               	movlw	0
  1420  001E20  6E92               	movwf	3986,c	;volatile
  1421                           
  1422                           ;main2.c: 1036: TRISD = 0;
  1423  001E22  0E00               	movlw	0
  1424  001E24  6E95               	movwf	3989,c	;volatile
  1425                           
  1426                           ;main2.c: 1037: LATD = 0;
  1427  001E26  0E00               	movlw	0
  1428  001E28  6E8C               	movwf	3980,c	;volatile
  1429                           
  1430                           ;main2.c: 1038: LATA = 0;
  1431  001E2A  0E00               	movlw	0
  1432  001E2C  6E89               	movwf	3977,c	;volatile
  1433  001E2E                     
  1434                           ;main2.c: 1042: mode_clock();
  1435                           
  1436                           ; BSR set to: 1
  1437  001E2E  ECA5  F009         	call	_mode_clock	;wreg free
  1438                           
  1439                           ;main2.c: 1043: mode_walker();
  1440  001E32  EC09  F000         	call	_mode_walker	;wreg free
  1441                           
  1442                           ;main2.c: 1044: mode_TransLove();
  1443  001E36  ECB5  F003         	call	_mode_TransLove	;wreg free
  1444                           
  1445                           ;main2.c: 1045: mode_tree();
  1446  001E3A  ECBA  F006         	call	_mode_tree	;wreg free
  1447                           
  1448                           ;main2.c: 1046: mode_snow();
  1449  001E3E  ECB1  F00B         	call	_mode_snow	;wreg free
  1450  001E42  D7F5               	goto	l469
  1451  001E44                     
  1452                           ;main2.c: 1047: }
  1453                           ;main2.c: 1049: while(1);
  1454  001E44  D7FF               	goto	l471
  1455  001E46                     __end_of_main:
  1456                           	opt stack 0
  1457                           tblptru	equ	0xFF8
  1458                           tblptrh	equ	0xFF7
  1459                           tblptrl	equ	0xFF6
  1460                           tablat	equ	0xFF5
  1461                           intcon	equ	0xFF2
  1462                           postinc0	equ	0xFEE
  1463                           postdec1	equ	0xFE5
  1464                           fsr1l	equ	0xFE1
  1465                           
  1466 ;; *************** function _mode_walker *****************
  1467 ;; Defined at:
  1468 ;;		line 361 in file "main2.c"
  1469 ;; Parameters:    Size  Location     Type
  1470 ;;		None
  1471 ;; Auto vars:     Size  Location     Type
  1472 ;;  dark            2    4[BANK0 ] int 
  1473 ;;  bright          2    2[BANK0 ] int 
  1474 ;;  column          2   28[BANK0 ] int 
  1475 ;;  dark            2   12[BANK0 ] int 
  1476 ;;  bright          2   10[BANK0 ] int 
  1477 ;;  dark            2    8[BANK0 ] int 
  1478 ;;  bright          2    6[BANK0 ] int 
  1479 ;;  dark            4   24[BANK0 ] long 
  1480 ;;  delay           2   50[BANK0 ] int 
  1481 ;;  column          2   32[BANK0 ] int 
  1482 ;;  column          2   30[BANK0 ] int 
  1483 ;;  delay           2    0[BANK0 ] int 
  1484 ;;  dark            2   16[BANK0 ] int 
  1485 ;;  i               2   58[BANK0 ] int 
  1486 ;;  four            8   36[BANK0 ] int [4]
  1487 ;;  state           2   56[BANK0 ] int 
  1488 ;;  move            2   54[BANK0 ] int 
  1489 ;;  show            2   52[BANK0 ] PTR unsigned int 
  1490 ;;		 -> walker(108), 
  1491 ;;  delay           2   48[BANK0 ] int 
  1492 ;;  pic_i           2   46[BANK0 ] int 
  1493 ;;  display_cycl    2   44[BANK0 ] int 
  1494 ;;  pic_cycle_i     2   34[BANK0 ] int 
  1495 ;;  pic_cycle       2   22[BANK0 ] const int 
  1496 ;;  update_next_    2   20[BANK0 ] int 
  1497 ;;  update          2   18[BANK0 ] int 
  1498 ;;  state_change    2   14[BANK0 ] int 
  1499 ;; Return value:  Size  Location     Type
  1500 ;;                  1    wreg      void 
  1501 ;; Registers used:
  1502 ;;		wreg, fsr1l, fsr1h, fsr2l, fsr2h, status,2, status,0, prodl, prodh, cstack
  1503 ;; Tracked objects:
  1504 ;;		On entry : 0/0
  1505 ;;		On exit  : 0/0
  1506 ;;		Unchanged: 0/0
  1507 ;; Data sizes:     COMRAM   BANK0   BANK1   BANK2   BANK3   BANK4   BANK5
  1508 ;;      Params:         0       0       0       0       0       0       0
  1509 ;;      Locals:         0      60       0       0       0       0       0
  1510 ;;      Temps:          6       0       0       0       0       0       0
  1511 ;;      Totals:         6      60       0       0       0       0       0
  1512 ;;Total ram usage:       66 bytes
  1513 ;; Hardware stack levels used:    1
  1514 ;; Hardware stack levels required when called:    3
  1515 ;; This function calls:
  1516 ;;		___awmod
  1517 ;;		___wmul
  1518 ;; This function is called by:
  1519 ;;		_main
  1520 ;; This function uses a non-reentrant model
  1521 ;;
  1522                           
  1523                           	psect	text1
  1524  000012                     __ptext1:
  1525                           	opt stack 0
  1526  000012                     _mode_walker:
  1527                           	opt stack 27
  1528                           
  1529                           ;main2.c: 366: bool four[4] = {1};
  1530                           
  1531                           ;incstack = 0
  1532  000012  EE21  F0DC         	lfsr	2,mode_walker@F3068
  1533  000016  EE10  F0A4         	lfsr	1,mode_walker@four
  1534  00001A  0E07               	movlw	7
  1535  00001C                     u4501:
  1536  00001C  CFDB FFE3          	movff	plusw2,plusw1
  1537  000020  06E8               	decf	wreg,f,c
  1538  000022  E2FC               	bc	u4501
  1539                           
  1540                           ;main2.c: 367: int state_change_cycle = 120;
  1541  000024  0E00               	movlw	0
  1542  000026  0100               	movlb	0	; () banked
  1543  000028  6F8F               	movwf	(mode_walker@state_change_cycle+1)& (0+255),b
  1544  00002A  0E78               	movlw	120
  1545  00002C  6F8E               	movwf	mode_walker@state_change_cycle& (0+255),b
  1546                           
  1547                           ; BSR set to: 0
  1548                           ;main2.c: 368: int state = 0;
  1549  00002E  0E00               	movlw	0
  1550  000030  6FB9               	movwf	(mode_walker@state+1)& (0+255),b
  1551  000032  0E00               	movlw	0
  1552  000034  6FB8               	movwf	mode_walker@state& (0+255),b
  1553                           
  1554                           ; BSR set to: 0
  1555                           ;main2.c: 369: int move = 1000;
  1556  000036  0E03               	movlw	3
  1557  000038  6FB7               	movwf	(mode_walker@move+1)& (0+255),b
  1558  00003A  0EE8               	movlw	232
  1559  00003C  6FB6               	movwf	mode_walker@move& (0+255),b
  1560                           
  1561                           ; BSR set to: 0
  1562                           ;main2.c: 370: bool update = 0;
  1563  00003E  0E00               	movlw	0
  1564  000040  6F93               	movwf	(mode_walker@update+1)& (0+255),b
  1565  000042  0E00               	movlw	0
  1566  000044  6F92               	movwf	mode_walker@update& (0+255),b
  1567                           
  1568                           ; BSR set to: 0
  1569                           ;main2.c: 371: bool update_next_time = 0;
  1570  000046  0E00               	movlw	0
  1571  000048  6F95               	movwf	(mode_walker@update_next_time+1)& (0+255),b
  1572  00004A  0E00               	movlw	0
  1573  00004C  6F94               	movwf	mode_walker@update_next_time& (0+255),b
  1574                           
  1575                           ; BSR set to: 0
  1576                           ;main2.c: 372: const int pic_cycle = 3;
  1577  00004E  0E00               	movlw	0
  1578  000050  6F97               	movwf	(mode_walker@pic_cycle+1)& (0+255),b
  1579  000052  0E03               	movlw	3
  1580  000054  6F96               	movwf	mode_walker@pic_cycle& (0+255),b
  1581                           
  1582                           ; BSR set to: 0
  1583                           ;main2.c: 373: int pic_cycle_i = 0;
  1584  000056  0E00               	movlw	0
  1585  000058  6FA3               	movwf	(mode_walker@pic_cycle_i+1)& (0+255),b
  1586  00005A  0E00               	movlw	0
  1587  00005C  6FA2               	movwf	mode_walker@pic_cycle_i& (0+255),b
  1588                           
  1589                           ; BSR set to: 0
  1590                           ;main2.c: 374: int pic_i = 0;
  1591  00005E  0E00               	movlw	0
  1592  000060  6FAF               	movwf	(mode_walker@pic_i+1)& (0+255),b
  1593  000062  0E00               	movlw	0
  1594  000064  6FAE               	movwf	mode_walker@pic_i& (0+255),b
  1595                           
  1596                           ; BSR set to: 0
  1597                           ;main2.c: 375: unsigned int* show;
  1598                           ;main2.c: 377: int display_cycle = 480;
  1599  000066  0E01               	movlw	1
  1600  000068  6FAD               	movwf	(mode_walker@display_cycle+1)& (0+255),b
  1601  00006A  0EE0               	movlw	224
  1602  00006C  6FAC               	movwf	mode_walker@display_cycle& (0+255),b
  1603                           
  1604                           ;main2.c: 378: while(display_cycle--){
  1605  00006E  D25C               	goto	l264
  1606  000070                     
  1607                           ; BSR set to: 0
  1608                           ;main2.c: 379: if(move > 0)
  1609                           
  1610                           ; BSR set to: 0
  1611  000070  BFB7               	btfsc	(mode_walker@move+1)& (0+255),7,b
  1612  000072  D00A               	goto	l184
  1613  000074  51B7               	movf	(mode_walker@move+1)& (0+255),w,b
  1614  000076  E103               	bnz	u4510
  1615  000078  05B6               	decf	mode_walker@move& (0+255),w,b
  1616  00007A  A0D8               	btfss	status,0,c
  1617  00007C  D005               	goto	l184
  1618  00007E                     u4510:
  1619                           
  1620                           ; BSR set to: 0
  1621                           ;main2.c: 380: move -= 30;
  1622  00007E  0EE2               	movlw	226
  1623  000080  27B6               	addwf	mode_walker@move& (0+255),f,b
  1624  000082  0EFF               	movlw	255
  1625  000084  23B7               	addwfc	(mode_walker@move+1)& (0+255),f,b
  1626  000086  D00C               	goto	u4520
  1627  000088                     l184:
  1628                           
  1629                           ; BSR set to: 0
  1630                           ;main2.c: 381: else{
  1631                           ;main2.c: 382: int delay = 20;
  1632                           
  1633                           ; BSR set to: 0
  1634  000088  0E00               	movlw	0
  1635  00008A  6F81               	movwf	(mode_walker@delay+1)& (0+255),b
  1636  00008C  0E14               	movlw	20
  1637  00008E  6F80               	movwf	mode_walker@delay& (0+255),b
  1638  000090                     l3551:
  1639                           
  1640                           ; BSR set to: 0
  1641  000090  0780               	decf	mode_walker@delay& (0+255),f,b
  1642  000092  A0D8               	btfss	status,0,c
  1643  000094  0781               	decf	(mode_walker@delay+1)& (0+255),f,b
  1644  000096  2980               	incf	mode_walker@delay& (0+255),w,b
  1645  000098  E1FB               	bnz	l3551
  1646  00009A  2981               	incf	(mode_walker@delay+1)& (0+255),w,b
  1647  00009C  A4D8               	btfss	status,2,c
  1648  00009E  D7F8               	goto	l187
  1649  0000A0                     u4520:
  1650                           
  1651                           ; BSR set to: 0
  1652                           ;main2.c: 384: }
  1653                           ;main2.c: 385: if(update_next_time == 1){
  1654                           
  1655                           ; BSR set to: 0
  1656                           
  1657                           ; BSR set to: 0
  1658  0000A0  0594               	decf	mode_walker@update_next_time& (0+255),w,b
  1659  0000A2  1195               	iorwf	(mode_walker@update_next_time+1)& (0+255),w,b
  1660  0000A4  A4D8               	btfss	status,2,c
  1661  0000A6  D021               	goto	l193
  1662                           
  1663                           ; BSR set to: 0
  1664                           ;main2.c: 386: update_next_time = 0;
  1665  0000A8  0E00               	movlw	0
  1666  0000AA  6F95               	movwf	(mode_walker@update_next_time+1)& (0+255),b
  1667  0000AC  0E00               	movlw	0
  1668  0000AE  6F94               	movwf	mode_walker@update_next_time& (0+255),b
  1669                           
  1670                           ;main2.c: 388: switch(state){
  1671  0000B0  D00D               	goto	l190
  1672  0000B2                     
  1673                           ; BSR set to: 0
  1674                           ;main2.c: 390: four[2] = 0;
  1675                           
  1676                           ; BSR set to: 0
  1677  0000B2  0E00               	movlw	0
  1678  0000B4  6FA9               	movwf	(mode_walker@four+5)& (0+255),b
  1679  0000B6  0E00               	movlw	0
  1680  0000B8  6FA8               	movwf	(mode_walker@four+4)& (0+255),b
  1681  0000BA                     l192:
  1682                           
  1683                           ; BSR set to: 0
  1684                           ;main2.c: 392: four[1] = four[3] = 0;
  1685  0000BA  0E00               	movlw	0
  1686  0000BC  6FAB               	movwf	(mode_walker@four+7)& (0+255),b
  1687  0000BE  0E00               	movlw	0
  1688  0000C0  6FAA               	movwf	(mode_walker@four+6)& (0+255),b
  1689  0000C2  C0AA  F0A6         	movff	mode_walker@four+6,mode_walker@four+2
  1690  0000C6  C0AB  F0A7         	movff	mode_walker@four+7,mode_walker@four+3
  1691                           
  1692                           ;main2.c: 393: }
  1693  0000CA  D00F               	goto	l193
  1694  0000CC                     l190:
  1695                           
  1696                           ; BSR set to: 0
  1697                           
  1698                           ; BSR set to: 0
  1699  0000CC  C0B8  F037         	movff	mode_walker@state,??_mode_walker
  1700  0000D0  C0B9  F038         	movff	mode_walker@state+1,??_mode_walker+1
  1701                           
  1702                           ; Switch on 2 bytes has been partitioned into a top level switch of size 1, and 1 sub-sw
      +                          itches
  1703                           ; Switch size 1, requested type "space"
  1704                           ; Number of cases is 1, Range of values is 0 to 0
  1705                           ; switch strategies available:
  1706                           ; Name         Instructions Cycles
  1707                           ; simple_byte            4     3 (average)
  1708                           ;	Chosen strategy is simple_byte
  1709  0000D4  5038               	movf	??_mode_walker+1,w,c
  1710  0000D6  0A00               	xorlw	0	; case 0
  1711  0000D8  A4D8               	btfss	status,2,c
  1712  0000DA  D007               	goto	l193
  1713                           
  1714                           ; BSR set to: 0
  1715                           ; Switch size 1, requested type "space"
  1716                           ; Number of cases is 2, Range of values is 3 to 4
  1717                           ; switch strategies available:
  1718                           ; Name         Instructions Cycles
  1719                           ; simple_byte            7     4 (average)
  1720                           ;	Chosen strategy is simple_byte
  1721  0000DC  5037               	movf	??_mode_walker,w,c
  1722  0000DE  0A03               	xorlw	3	; case 3
  1723  0000E0  B4D8               	btfsc	status,2,c
  1724  0000E2  D7EB               	goto	l192
  1725  0000E4  0A07               	xorlw	7	; case 4
  1726  0000E6  B4D8               	btfsc	status,2,c
  1727  0000E8  D7E4               	goto	l191
  1728  0000EA                     l193:
  1729                           
  1730                           ; BSR set to: 0
  1731                           ;main2.c: 394: }
  1732                           ;main2.c: 395: if(update == 0 && move <= 0){
  1733                           
  1734                           ; BSR set to: 0
  1735                           
  1736                           ; BSR set to: 0
  1737  0000EA  5192               	movf	mode_walker@update& (0+255),w,b
  1738  0000EC  1193               	iorwf	(mode_walker@update+1)& (0+255),w,b
  1739  0000EE  A4D8               	btfss	status,2,c
  1740  0000F0  D013               	goto	l194
  1741                           
  1742                           ; BSR set to: 0
  1743  0000F2  BFB7               	btfsc	(mode_walker@move+1)& (0+255),7,b
  1744  0000F4  D005               	goto	u4550
  1745  0000F6  51B7               	movf	(mode_walker@move+1)& (0+255),w,b
  1746  0000F8  E10F               	bnz	l194
  1747  0000FA  05B6               	decf	mode_walker@move& (0+255),w,b
  1748  0000FC  B0D8               	btfsc	status,0,c
  1749  0000FE  D00C               	goto	l194
  1750  000100                     u4550:
  1751                           
  1752                           ; BSR set to: 0
  1753                           ;main2.c: 396: update = 1;
  1754  000100  0E00               	movlw	0
  1755  000102  6F93               	movwf	(mode_walker@update+1)& (0+255),b
  1756  000104  0E01               	movlw	1
  1757  000106  6F92               	movwf	mode_walker@update& (0+255),b
  1758                           
  1759                           ;main2.c: 397: update_next_time = 1;
  1760  000108  0E00               	movlw	0
  1761  00010A  6F95               	movwf	(mode_walker@update_next_time+1)& (0+255),b
  1762  00010C  0E01               	movlw	1
  1763  00010E  6F94               	movwf	mode_walker@update_next_time& (0+255),b
  1764                           
  1765                           ;main2.c: 398: move = 0;
  1766  000110  0E00               	movlw	0
  1767  000112  6FB7               	movwf	(mode_walker@move+1)& (0+255),b
  1768  000114  0E00               	movlw	0
  1769  000116  6FB6               	movwf	mode_walker@move& (0+255),b
  1770  000118                     l194:
  1771                           
  1772                           ; BSR set to: 0
  1773                           ;main2.c: 399: }
  1774                           ;main2.c: 402: int i;
  1775                           ;main2.c: 403: for(i = 0; i < 4; ++i){
  1776  000118  0E00               	movlw	0
  1777  00011A  6FBB               	movwf	(mode_walker@i+1)& (0+255),b
  1778  00011C  0E00               	movlw	0
  1779  00011E  6FBA               	movwf	mode_walker@i& (0+255),b
  1780                           
  1781                           ; BSR set to: 0
  1782  000120  BFBB               	btfsc	(mode_walker@i+1)& (0+255),7,b
  1783  000122  D049               	goto	l197
  1784  000124  51BB               	movf	(mode_walker@i+1)& (0+255),w,b
  1785  000126  E105               	bnz	u4560
  1786  000128  0E04               	movlw	4
  1787  00012A  5DBA               	subwf	mode_walker@i& (0+255),w,b
  1788  00012C  B0D8               	btfsc	status,0,c
  1789  00012E  D17A               	goto	u4810
  1790  000130  D042               	goto	l197
  1791  000132                     u4560:
  1792                           
  1793                           ; BSR set to: 0
  1794  000132  D178               	goto	u4810
  1795  000134                     
  1796                           ; BSR set to: 0
  1797                           ;main2.c: 408: delay = 28;
  1798                           
  1799                           ; BSR set to: 0
  1800  000134  0E00               	movlw	0
  1801  000136  6FB3               	movwf	(mode_walker@delay_432+1)& (0+255),b
  1802  000138  0E1C               	movlw	28
  1803  00013A  6FB2               	movwf	mode_walker@delay_432& (0+255),b
  1804  00013C                     l3573:
  1805                           
  1806                           ; BSR set to: 0
  1807  00013C  07B2               	decf	mode_walker@delay_432& (0+255),f,b
  1808  00013E  A0D8               	btfss	status,0,c
  1809  000140  07B3               	decf	(mode_walker@delay_432+1)& (0+255),f,b
  1810  000142  29B2               	incf	mode_walker@delay_432& (0+255),w,b
  1811  000144  E1FB               	bnz	l3573
  1812  000146  29B3               	incf	(mode_walker@delay_432+1)& (0+255),w,b
  1813  000148  B4D8               	btfsc	status,2,c
  1814  00014A  D04D               	goto	l202
  1815  00014C  D7F7               	goto	l200
  1816  00014E                     
  1817                           ; BSR set to: 0
  1818                           ;main2.c: 412: delay = 15;
  1819                           
  1820                           ; BSR set to: 0
  1821  00014E  0E00               	movlw	0
  1822  000150  6FB3               	movwf	(mode_walker@delay_432+1)& (0+255),b
  1823  000152  0E0F               	movlw	15
  1824  000154  6FB2               	movwf	mode_walker@delay_432& (0+255),b
  1825  000156                     l3577:
  1826                           
  1827                           ; BSR set to: 0
  1828  000156  07B2               	decf	mode_walker@delay_432& (0+255),f,b
  1829  000158  A0D8               	btfss	status,0,c
  1830  00015A  07B3               	decf	(mode_walker@delay_432+1)& (0+255),f,b
  1831  00015C  29B2               	incf	mode_walker@delay_432& (0+255),w,b
  1832  00015E  E1FB               	bnz	l3577
  1833  000160  29B3               	incf	(mode_walker@delay_432+1)& (0+255),w,b
  1834  000162  B4D8               	btfsc	status,2,c
  1835  000164  D040               	goto	l202
  1836  000166  D7F7               	goto	l205
  1837  000168                     
  1838                           ; BSR set to: 0
  1839                           ;main2.c: 416: delay = 0;
  1840                           
  1841                           ; BSR set to: 0
  1842  000168  0E00               	movlw	0
  1843  00016A  6FB3               	movwf	(mode_walker@delay_432+1)& (0+255),b
  1844  00016C  0E00               	movlw	0
  1845  00016E  6FB2               	movwf	mode_walker@delay_432& (0+255),b
  1846  000170                     l3581:
  1847                           
  1848                           ; BSR set to: 0
  1849  000170  07B2               	decf	mode_walker@delay_432& (0+255),f,b
  1850  000172  A0D8               	btfss	status,0,c
  1851  000174  07B3               	decf	(mode_walker@delay_432+1)& (0+255),f,b
  1852  000176  29B2               	incf	mode_walker@delay_432& (0+255),w,b
  1853  000178  E1FB               	bnz	l3581
  1854  00017A  29B3               	incf	(mode_walker@delay_432+1)& (0+255),w,b
  1855  00017C  B4D8               	btfsc	status,2,c
  1856  00017E  D033               	goto	l202
  1857  000180  D7F7               	goto	l209
  1858  000182                     
  1859                           ; BSR set to: 0
  1860                           ;main2.c: 420: delay = 10;
  1861                           
  1862                           ; BSR set to: 0
  1863  000182  0E00               	movlw	0
  1864  000184  6FB3               	movwf	(mode_walker@delay_432+1)& (0+255),b
  1865  000186  0E0A               	movlw	10
  1866  000188  6FB2               	movwf	mode_walker@delay_432& (0+255),b
  1867  00018A                     l3585:
  1868                           
  1869                           ; BSR set to: 0
  1870  00018A  07B2               	decf	mode_walker@delay_432& (0+255),f,b
  1871  00018C  A0D8               	btfss	status,0,c
  1872  00018E  07B3               	decf	(mode_walker@delay_432+1)& (0+255),f,b
  1873  000190  29B2               	incf	mode_walker@delay_432& (0+255),w,b
  1874  000192  E1FB               	bnz	l3585
  1875  000194  29B3               	incf	(mode_walker@delay_432+1)& (0+255),w,b
  1876  000196  B4D8               	btfsc	status,2,c
  1877  000198  D026               	goto	l202
  1878  00019A  D7F7               	goto	l213
  1879  00019C                     
  1880                           ; BSR set to: 0
  1881                           ;main2.c: 424: delay = 16;
  1882                           
  1883                           ; BSR set to: 0
  1884  00019C  0E00               	movlw	0
  1885  00019E  6FB3               	movwf	(mode_walker@delay_432+1)& (0+255),b
  1886  0001A0  0E10               	movlw	16
  1887  0001A2  6FB2               	movwf	mode_walker@delay_432& (0+255),b
  1888  0001A4                     l3589:
  1889                           
  1890                           ; BSR set to: 0
  1891  0001A4  07B2               	decf	mode_walker@delay_432& (0+255),f,b
  1892  0001A6  A0D8               	btfss	status,0,c
  1893  0001A8  07B3               	decf	(mode_walker@delay_432+1)& (0+255),f,b
  1894  0001AA  29B2               	incf	mode_walker@delay_432& (0+255),w,b
  1895  0001AC  E1FB               	bnz	l3589
  1896  0001AE  29B3               	incf	(mode_walker@delay_432+1)& (0+255),w,b
  1897  0001B0  B4D8               	btfsc	status,2,c
  1898  0001B2  D019               	goto	l202
  1899  0001B4  D7F7               	goto	l217
  1900  0001B6                     l197:
  1901                           
  1902                           ; BSR set to: 0
  1903                           
  1904                           ; BSR set to: 0
  1905  0001B6  C0B8  F037         	movff	mode_walker@state,??_mode_walker
  1906  0001BA  C0B9  F038         	movff	mode_walker@state+1,??_mode_walker+1
  1907                           
  1908                           ; Switch on 2 bytes has been partitioned into a top level switch of size 1, and 1 sub-sw
      +                          itches
  1909                           ; Switch size 1, requested type "space"
  1910                           ; Number of cases is 1, Range of values is 0 to 0
  1911                           ; switch strategies available:
  1912                           ; Name         Instructions Cycles
  1913                           ; simple_byte            4     3 (average)
  1914                           ;	Chosen strategy is simple_byte
  1915  0001BE  5038               	movf	??_mode_walker+1,w,c
  1916  0001C0  0A00               	xorlw	0	; case 0
  1917  0001C2  A4D8               	btfss	status,2,c
  1918  0001C4  D010               	goto	l202
  1919                           
  1920                           ; BSR set to: 0
  1921                           ; Switch size 1, requested type "space"
  1922                           ; Number of cases is 5, Range of values is 0 to 4
  1923                           ; switch strategies available:
  1924                           ; Name         Instructions Cycles
  1925                           ; simple_byte           16     9 (average)
  1926                           ;	Chosen strategy is simple_byte
  1927  0001C6  5037               	movf	??_mode_walker,w,c
  1928  0001C8  0A00               	xorlw	0	; case 0
  1929  0001CA  B4D8               	btfsc	status,2,c
  1930  0001CC  D7B3               	goto	l198
  1931  0001CE  0A01               	xorlw	1	; case 1
  1932  0001D0  B4D8               	btfsc	status,2,c
  1933  0001D2  D7BD               	goto	l203
  1934  0001D4  0A03               	xorlw	3	; case 2
  1935  0001D6  B4D8               	btfsc	status,2,c
  1936  0001D8  D7C7               	goto	l207
  1937  0001DA  0A01               	xorlw	1	; case 3
  1938  0001DC  B4D8               	btfsc	status,2,c
  1939  0001DE  D7D1               	goto	l211
  1940  0001E0  0A07               	xorlw	7	; case 4
  1941  0001E2  B4D8               	btfsc	status,2,c
  1942  0001E4  D7DB               	goto	l215
  1943  0001E6                     l202:
  1944                           
  1945                           ; BSR set to: 0
  1946                           ;main2.c: 428: show = (unsigned int*)walker[pic_i];
  1947                           
  1948                           ; BSR set to: 0
  1949  0001E6  C0AE  F031         	movff	mode_walker@pic_i,___wmul@multiplier
  1950  0001EA  C0AF  F032         	movff	mode_walker@pic_i+1,___wmul@multiplier+1
  1951  0001EE  0E00               	movlw	0
  1952  0001F0  6E34               	movwf	___wmul@multiplicand+1,c
  1953  0001F2  0E12               	movlw	18
  1954  0001F4  6E33               	movwf	___wmul@multiplicand,c
  1955  0001F6  EC67  F00F         	call	___wmul	;wreg free
  1956  0001FA  0E56               	movlw	low _walker
  1957  0001FC  2431               	addwf	?___wmul,w,c
  1958  0001FE  0100               	movlb	0	; () banked
  1959  000200  6FB4               	movwf	mode_walker@show& (0+255),b
  1960  000202  0E03               	movlw	high _walker
  1961  000204  2032               	addwfc	?___wmul+1,w,c
  1962  000206  6FB5               	movwf	(mode_walker@show+1)& (0+255),b
  1963                           
  1964                           ; BSR set to: 0
  1965                           ;main2.c: 429: for(int column = 0; column < 9; ++column, ++show){
  1966  000208  0E00               	movlw	0
  1967  00020A  6F9D               	movwf	(mode_walker@column+1)& (0+255),b
  1968  00020C  0E00               	movlw	0
  1969  00020E  6F9C               	movwf	mode_walker@column& (0+255),b
  1970  000210                     l3599:
  1971                           
  1972                           ; BSR set to: 0
  1973  000210  BF9D               	btfsc	(mode_walker@column+1)& (0+255),7,b
  1974  000212  D006               	goto	l219
  1975  000214  519D               	movf	(mode_walker@column+1)& (0+255),w,b
  1976  000216  E14B               	bnz	l3621
  1977  000218  0E09               	movlw	9
  1978  00021A  5D9C               	subwf	mode_walker@column& (0+255),w,b
  1979  00021C  B0D8               	btfsc	status,0,c
  1980  00021E  D047               	goto	u4660
  1981  000220                     l219:
  1982                           
  1983                           ; BSR set to: 0
  1984                           ;main2.c: 430: if(four[i]){
  1985                           
  1986                           ; BSR set to: 0
  1987  000220  90D8               	bcf	status,0,c
  1988  000222  35BA               	rlcf	mode_walker@i& (0+255),w,b
  1989  000224  6ED9               	movwf	fsr2l,c
  1990  000226  35BB               	rlcf	(mode_walker@i+1)& (0+255),w,b
  1991  000228  6EDA               	movwf	fsr2h,c
  1992  00022A  0EA4               	movlw	low mode_walker@four
  1993  00022C  26D9               	addwf	fsr2l,f,c
  1994  00022E  0E00               	movlw	high mode_walker@four
  1995  000230  22DA               	addwfc	fsr2h,f,c
  1996  000232  50DE               	movf	postinc2,w,c
  1997  000234  10DE               	iorwf	postinc2,w,c
  1998  000236  B4D8               	btfsc	status,2,c
  1999  000238  D013               	goto	l221
  2000                           
  2001                           ; BSR set to: 0
  2002                           ;main2.c: 431: LATA = *show;
  2003  00023A  C0B4  FFD9         	movff	mode_walker@show,fsr2l
  2004  00023E  C0B5  FFDA         	movff	mode_walker@show+1,fsr2h
  2005  000242  50DF               	movf	indf2,w,c
  2006  000244  6E89               	movwf	3977,c	;volatile
  2007                           
  2008                           ;main2.c: 432: LATD = (*show) >> 8;
  2009  000246  C0B4  FFD9         	movff	mode_walker@show,fsr2l
  2010  00024A  C0B5  FFDA         	movff	mode_walker@show+1,fsr2h
  2011  00024E  CFDE F037          	movff	postinc2,??_mode_walker
  2012  000252  CFDD F038          	movff	postdec2,??_mode_walker+1
  2013  000256  C038  F037         	movff	??_mode_walker+1,??_mode_walker
  2014  00025A  6A38               	clrf	??_mode_walker+1,c
  2015  00025C  5037               	movf	??_mode_walker,w,c
  2016  00025E  D003               	goto	L1
  2017  000260                     l221:
  2018                           
  2019                           ; BSR set to: 0
  2020                           ;main2.c: 434: else{
  2021                           ;main2.c: 435: LATA = 0;
  2022                           
  2023                           ; BSR set to: 0
  2024  000260  0E00               	movlw	0
  2025  000262  6E89               	movwf	3977,c	;volatile
  2026                           
  2027                           ;main2.c: 436: LATD = 0;
  2028  000264  0E00               	movlw	0
  2029  000266                     L1:
  2030  000266  6E8C               	movwf	3980,c	;volatile
  2031                           
  2032                           ; BSR set to: 0
  2033                           ;main2.c: 437: }
  2034                           ;main2.c: 438: int bright = 60;
  2035  000268  0E00               	movlw	0
  2036  00026A  6F83               	movwf	(mode_walker@bright+1)& (0+255),b
  2037  00026C  0E3C               	movlw	60
  2038  00026E  6F82               	movwf	mode_walker@bright& (0+255),b
  2039  000270                     l3609:
  2040                           
  2041                           ; BSR set to: 0
  2042  000270  0782               	decf	mode_walker@bright& (0+255),f,b
  2043  000272  A0D8               	btfss	status,0,c
  2044  000274  0783               	decf	(mode_walker@bright+1)& (0+255),f,b
  2045  000276  2982               	incf	mode_walker@bright& (0+255),w,b
  2046  000278  E1FB               	bnz	l3609
  2047  00027A  2983               	incf	(mode_walker@bright+1)& (0+255),w,b
  2048  00027C  A4D8               	btfss	status,2,c
  2049  00027E  D7F8               	goto	l224
  2050                           
  2051                           ; BSR set to: 0
  2052                           ;main2.c: 440: LATA = 0;
  2053                           
  2054                           ; BSR set to: 0
  2055  000280  0E00               	movlw	0
  2056  000282  6E89               	movwf	3977,c	;volatile
  2057                           
  2058                           ;main2.c: 441: LATD = 0;
  2059  000284  0E00               	movlw	0
  2060  000286  6E8C               	movwf	3980,c	;volatile
  2061                           
  2062                           ;main2.c: 442: int dark = 60;
  2063  000288  0E00               	movlw	0
  2064  00028A  6F85               	movwf	(mode_walker@dark+1)& (0+255),b
  2065  00028C  0E3C               	movlw	60
  2066  00028E  6F84               	movwf	mode_walker@dark& (0+255),b
  2067  000290                     l3613:
  2068                           
  2069                           ; BSR set to: 0
  2070  000290  0784               	decf	mode_walker@dark& (0+255),f,b
  2071  000292  A0D8               	btfss	status,0,c
  2072  000294  0785               	decf	(mode_walker@dark+1)& (0+255),f,b
  2073  000296  2984               	incf	mode_walker@dark& (0+255),w,b
  2074  000298  E1FB               	bnz	l3613
  2075  00029A  2985               	incf	(mode_walker@dark+1)& (0+255),w,b
  2076  00029C  A4D8               	btfss	status,2,c
  2077  00029E  D7F8               	goto	l227
  2078                           
  2079                           ; BSR set to: 0
  2080                           
  2081                           ; BSR set to: 0
  2082  0002A0  4B9C               	infsnz	mode_walker@column& (0+255),f,b
  2083  0002A2  2B9D               	incf	(mode_walker@column+1)& (0+255),f,b
  2084                           
  2085                           ; BSR set to: 0
  2086  0002A4  0E02               	movlw	2
  2087  0002A6  27B4               	addwf	mode_walker@show& (0+255),f,b
  2088  0002A8  0E00               	movlw	0
  2089  0002AA  23B5               	addwfc	(mode_walker@show+1)& (0+255),f,b
  2090  0002AC  D7B1               	goto	l3599
  2091  0002AE                     u4660:
  2092  0002AE                     l3621:
  2093                           
  2094                           ; BSR set to: 0
  2095                           ;main2.c: 444: }
  2096                           ;main2.c: 447: long int dark = 1000;
  2097  0002AE  0EE8               	movlw	232
  2098  0002B0  6F98               	movwf	mode_walker@dark_436& (0+255),b
  2099  0002B2  0E03               	movlw	3
  2100  0002B4  6F99               	movwf	(mode_walker@dark_436+1)& (0+255),b
  2101  0002B6  0E00               	movlw	0
  2102  0002B8  6F9A               	movwf	(mode_walker@dark_436+2)& (0+255),b
  2103  0002BA  0E00               	movlw	0
  2104  0002BC  6F9B               	movwf	(mode_walker@dark_436+3)& (0+255),b
  2105                           
  2106                           ; BSR set to: 0
  2107                           ;main2.c: 448: if(state == 1 || state == 2){
  2108  0002BE  05B8               	decf	mode_walker@state& (0+255),w,b
  2109  0002C0  11B9               	iorwf	(mode_walker@state+1)& (0+255),w,b
  2110  0002C2  B4D8               	btfsc	status,2,c
  2111  0002C4  D005               	goto	u4680
  2112                           
  2113                           ; BSR set to: 0
  2114  0002C6  0E02               	movlw	2
  2115  0002C8  19B8               	xorwf	mode_walker@state& (0+255),w,b
  2116  0002CA  11B9               	iorwf	(mode_walker@state+1)& (0+255),w,b
  2117  0002CC  A4D8               	btfss	status,2,c
  2118  0002CE  D03C               	goto	l229
  2119  0002D0                     u4680:
  2120                           
  2121                           ; BSR set to: 0
  2122                           ;main2.c: 449: if((state==1 && i<2) || (state==2 && (i==0||i==2)))
  2123                           
  2124                           ; BSR set to: 0
  2125  0002D0  05B8               	decf	mode_walker@state& (0+255),w,b
  2126  0002D2  11B9               	iorwf	(mode_walker@state+1)& (0+255),w,b
  2127  0002D4  A4D8               	btfss	status,2,c
  2128  0002D6  D008               	goto	u4700
  2129                           
  2130                           ; BSR set to: 0
  2131  0002D8  BFBB               	btfsc	(mode_walker@i+1)& (0+255),7,b
  2132  0002DA  D014               	goto	u4730
  2133  0002DC  51BB               	movf	(mode_walker@i+1)& (0+255),w,b
  2134  0002DE  E104               	bnz	l3631
  2135  0002E0  0E02               	movlw	2
  2136  0002E2  5DBA               	subwf	mode_walker@i& (0+255),w,b
  2137  0002E4  A0D8               	btfss	status,0,c
  2138  0002E6  D00E               	goto	u4730
  2139  0002E8                     u4700:
  2140  0002E8                     l3631:
  2141                           
  2142                           ; BSR set to: 0
  2143  0002E8  0E02               	movlw	2
  2144  0002EA  19B8               	xorwf	mode_walker@state& (0+255),w,b
  2145  0002EC  11B9               	iorwf	(mode_walker@state+1)& (0+255),w,b
  2146  0002EE  A4D8               	btfss	status,2,c
  2147  0002F0  D01A               	goto	l232
  2148                           
  2149                           ; BSR set to: 0
  2150  0002F2  51BA               	movf	mode_walker@i& (0+255),w,b
  2151  0002F4  11BB               	iorwf	(mode_walker@i+1)& (0+255),w,b
  2152  0002F6  B4D8               	btfsc	status,2,c
  2153  0002F8  D005               	goto	u4730
  2154                           
  2155                           ; BSR set to: 0
  2156  0002FA  0E02               	movlw	2
  2157  0002FC  19BA               	xorwf	mode_walker@i& (0+255),w,b
  2158  0002FE  11BB               	iorwf	(mode_walker@i+1)& (0+255),w,b
  2159  000300  A4D8               	btfss	status,2,c
  2160  000302  D011               	goto	l232
  2161  000304                     u4730:
  2162                           
  2163                           ; BSR set to: 0
  2164                           ;main2.c: 450: dark -= move;
  2165                           
  2166                           ; BSR set to: 0
  2167                           
  2168                           ; BSR set to: 0
  2169  000304  C0B6  F037         	movff	mode_walker@move,??_mode_walker
  2170  000308  C0B7  F038         	movff	mode_walker@move+1,??_mode_walker+1
  2171  00030C  0E00               	movlw	0
  2172  00030E  BE38               	btfsc	(??_mode_walker+1)& (0+255),7,c
  2173  000310  0EFF               	movlw	255
  2174  000312  6E39               	movwf	(??_mode_walker+2)& (0+255),c
  2175  000314  6E3A               	movwf	(??_mode_walker+3)& (0+255),c
  2176  000316  5037               	movf	??_mode_walker,w,c
  2177  000318  5F98               	subwf	mode_walker@dark_436& (0+255),f,b
  2178  00031A  5038               	movf	??_mode_walker+1,w,c
  2179  00031C  5B99               	subwfb	(mode_walker@dark_436+1)& (0+255),f,b
  2180  00031E  5039               	movf	??_mode_walker+2,w,c
  2181  000320  5B9A               	subwfb	(mode_walker@dark_436+2)& (0+255),f,b
  2182  000322  503A               	movf	??_mode_walker+3,w,c
  2183  000324  D066               	goto	L2
  2184  000326                     l232:
  2185                           
  2186                           ; BSR set to: 0
  2187                           ;main2.c: 451: else
  2188                           ;main2.c: 452: dark += move;
  2189                           
  2190                           ; BSR set to: 0
  2191  000326  C0B6  F037         	movff	mode_walker@move,??_mode_walker
  2192  00032A  C0B7  F038         	movff	mode_walker@move+1,??_mode_walker+1
  2193  00032E  0E00               	movlw	0
  2194  000330  BE38               	btfsc	(??_mode_walker+1)& (0+255),7,c
  2195  000332  0EFF               	movlw	255
  2196  000334  6E39               	movwf	(??_mode_walker+2)& (0+255),c
  2197  000336  6E3A               	movwf	(??_mode_walker+3)& (0+255),c
  2198  000338  5037               	movf	??_mode_walker,w,c
  2199  00033A  2798               	addwf	mode_walker@dark_436& (0+255),f,b
  2200  00033C  5038               	movf	??_mode_walker+1,w,c
  2201  00033E  2399               	addwfc	(mode_walker@dark_436+1)& (0+255),f,b
  2202  000340  5039               	movf	??_mode_walker+2,w,c
  2203  000342  239A               	addwfc	(mode_walker@dark_436+2)& (0+255),f,b
  2204  000344  503A               	movf	??_mode_walker+3,w,c
  2205  000346  D039               	goto	L3
  2206  000348                     l229:
  2207                           
  2208                           ; BSR set to: 0
  2209                           
  2210                           ; BSR set to: 0
  2211  000348  51B8               	movf	mode_walker@state& (0+255),w,b
  2212  00034A  11B9               	iorwf	(mode_walker@state+1)& (0+255),w,b
  2213  00034C  B4D8               	btfsc	status,2,c
  2214  00034E  D052               	goto	l249
  2215                           
  2216                           ; BSR set to: 0
  2217                           ;main2.c: 454: if((state==4 && i<2) || (state==3 && (i==0||i==2)))
  2218  000350  0E04               	movlw	4
  2219  000352  19B8               	xorwf	mode_walker@state& (0+255),w,b
  2220  000354  11B9               	iorwf	(mode_walker@state+1)& (0+255),w,b
  2221  000356  A4D8               	btfss	status,2,c
  2222  000358  D008               	goto	u4760
  2223                           
  2224                           ; BSR set to: 0
  2225  00035A  BFBB               	btfsc	(mode_walker@i+1)& (0+255),7,b
  2226  00035C  D014               	goto	u4790
  2227  00035E  51BB               	movf	(mode_walker@i+1)& (0+255),w,b
  2228  000360  E104               	bnz	l3647
  2229  000362  0E02               	movlw	2
  2230  000364  5DBA               	subwf	mode_walker@i& (0+255),w,b
  2231  000366  A0D8               	btfss	status,0,c
  2232  000368  D00E               	goto	u4790
  2233  00036A                     u4760:
  2234  00036A                     l3647:
  2235                           
  2236                           ; BSR set to: 0
  2237  00036A  0E03               	movlw	3
  2238  00036C  19B8               	xorwf	mode_walker@state& (0+255),w,b
  2239  00036E  11B9               	iorwf	(mode_walker@state+1)& (0+255),w,b
  2240  000370  A4D8               	btfss	status,2,c
  2241  000372  D025               	goto	l242
  2242                           
  2243                           ; BSR set to: 0
  2244  000374  51BA               	movf	mode_walker@i& (0+255),w,b
  2245  000376  11BB               	iorwf	(mode_walker@i+1)& (0+255),w,b
  2246  000378  B4D8               	btfsc	status,2,c
  2247  00037A  D005               	goto	u4790
  2248                           
  2249                           ; BSR set to: 0
  2250  00037C  0E02               	movlw	2
  2251  00037E  19BA               	xorwf	mode_walker@i& (0+255),w,b
  2252  000380  11BB               	iorwf	(mode_walker@i+1)& (0+255),w,b
  2253  000382  A4D8               	btfss	status,2,c
  2254  000384  D01C               	goto	l242
  2255  000386                     u4790:
  2256                           
  2257                           ; BSR set to: 0
  2258                           ;main2.c: 455: dark += 1000 - move;
  2259                           
  2260                           ; BSR set to: 0
  2261                           
  2262                           ; BSR set to: 0
  2263  000386  C0B6  F037         	movff	mode_walker@move,??_mode_walker
  2264  00038A  C0B7  F038         	movff	mode_walker@move+1,??_mode_walker+1
  2265  00038E  1E37               	comf	??_mode_walker,f,c
  2266  000390  1E38               	comf	??_mode_walker+1,f,c
  2267  000392  4A37               	infsnz	??_mode_walker,f,c
  2268  000394  2A38               	incf	??_mode_walker+1,f,c
  2269  000396  0EE8               	movlw	232
  2270  000398  2437               	addwf	??_mode_walker,w,c
  2271  00039A  6E39               	movwf	(??_mode_walker+2)& (0+255),c
  2272  00039C  0E03               	movlw	3
  2273  00039E  2038               	addwfc	??_mode_walker+1,w,c
  2274  0003A0  6E3A               	movwf	(??_mode_walker+3)& (0+255),c
  2275  0003A2  6A3B               	clrf	(??_mode_walker+4)& (0+255),c
  2276  0003A4  BE3A               	btfsc	(??_mode_walker+3)& (0+255),7,c
  2277  0003A6  063B               	decf	(??_mode_walker+4)& (0+255),f,c
  2278  0003A8  503B               	movf	(??_mode_walker+4)& (0+255),w,c
  2279  0003AA  6E3C               	movwf	(??_mode_walker+5)& (0+255),c
  2280  0003AC  5039               	movf	??_mode_walker+2,w,c
  2281  0003AE  2798               	addwf	mode_walker@dark_436& (0+255),f,b
  2282  0003B0  503A               	movf	??_mode_walker+3,w,c
  2283  0003B2  2399               	addwfc	(mode_walker@dark_436+1)& (0+255),f,b
  2284  0003B4  503B               	movf	??_mode_walker+4,w,c
  2285  0003B6  239A               	addwfc	(mode_walker@dark_436+2)& (0+255),f,b
  2286  0003B8  503C               	movf	??_mode_walker+5,w,c
  2287  0003BA                     L3:
  2288  0003BA  239B               	addwfc	(mode_walker@dark_436+3)& (0+255),f,b
  2289  0003BC  D01B               	goto	l249
  2290  0003BE                     l242:
  2291                           
  2292                           ; BSR set to: 0
  2293                           ;main2.c: 456: else
  2294                           ;main2.c: 457: dark -= 1000 - move;
  2295                           
  2296                           ; BSR set to: 0
  2297  0003BE  C0B6  F037         	movff	mode_walker@move,??_mode_walker
  2298  0003C2  C0B7  F038         	movff	mode_walker@move+1,??_mode_walker+1
  2299  0003C6  1E37               	comf	??_mode_walker,f,c
  2300  0003C8  1E38               	comf	??_mode_walker+1,f,c
  2301  0003CA  4A37               	infsnz	??_mode_walker,f,c
  2302  0003CC  2A38               	incf	??_mode_walker+1,f,c
  2303  0003CE  0EE8               	movlw	232
  2304  0003D0  2437               	addwf	??_mode_walker,w,c
  2305  0003D2  6E39               	movwf	(??_mode_walker+2)& (0+255),c
  2306  0003D4  0E03               	movlw	3
  2307  0003D6  2038               	addwfc	??_mode_walker+1,w,c
  2308  0003D8  6E3A               	movwf	(??_mode_walker+3)& (0+255),c
  2309  0003DA  6A3B               	clrf	(??_mode_walker+4)& (0+255),c
  2310  0003DC  BE3A               	btfsc	(??_mode_walker+3)& (0+255),7,c
  2311  0003DE  063B               	decf	(??_mode_walker+4)& (0+255),f,c
  2312  0003E0  503B               	movf	(??_mode_walker+4)& (0+255),w,c
  2313  0003E2  6E3C               	movwf	(??_mode_walker+5)& (0+255),c
  2314  0003E4  5039               	movf	??_mode_walker+2,w,c
  2315  0003E6  5F98               	subwf	mode_walker@dark_436& (0+255),f,b
  2316  0003E8  503A               	movf	??_mode_walker+3,w,c
  2317  0003EA  5B99               	subwfb	(mode_walker@dark_436+1)& (0+255),f,b
  2318  0003EC  503B               	movf	??_mode_walker+4,w,c
  2319  0003EE  5B9A               	subwfb	(mode_walker@dark_436+2)& (0+255),f,b
  2320  0003F0  503C               	movf	??_mode_walker+5,w,c
  2321  0003F2                     L2:
  2322  0003F2  5B9B               	subwfb	(mode_walker@dark_436+3)& (0+255),f,b
  2323  0003F4                     l249:
  2324  0003F4                     l3657:
  2325                           
  2326                           ; BSR set to: 0
  2327  0003F4  0EFF               	movlw	255
  2328  0003F6  2798               	addwf	mode_walker@dark_436& (0+255),f,b
  2329  0003F8  0EFF               	movlw	255
  2330  0003FA  2399               	addwfc	(mode_walker@dark_436+1)& (0+255),f,b
  2331  0003FC  0EFF               	movlw	255
  2332  0003FE  239A               	addwfc	(mode_walker@dark_436+2)& (0+255),f,b
  2333  000400  0EFF               	movlw	255
  2334  000402  239B               	addwfc	(mode_walker@dark_436+3)& (0+255),f,b
  2335  000404  2998               	incf	mode_walker@dark_436& (0+255),w,b
  2336  000406  E1F6               	bnz	l3657
  2337  000408  2999               	incf	(mode_walker@dark_436+1)& (0+255),w,b
  2338  00040A  E1F4               	bnz	l3657
  2339  00040C  299A               	incf	(mode_walker@dark_436+2)& (0+255),w,b
  2340  00040E  E1F2               	bnz	l3657
  2341  000410  299B               	incf	(mode_walker@dark_436+3)& (0+255),w,b
  2342  000412  A4D8               	btfss	status,2,c
  2343  000414  D7EF               	goto	l249
  2344                           
  2345                           ; BSR set to: 0
  2346                           
  2347                           ; BSR set to: 0
  2348  000416  4BBA               	infsnz	mode_walker@i& (0+255),f,b
  2349  000418  2BBB               	incf	(mode_walker@i+1)& (0+255),f,b
  2350                           
  2351                           ; BSR set to: 0
  2352  00041A  BFBB               	btfsc	(mode_walker@i+1)& (0+255),7,b
  2353  00041C  D6CC               	goto	l197
  2354  00041E  51BB               	movf	(mode_walker@i+1)& (0+255),w,b
  2355  000420  E101               	bnz	l3663
  2356  000422  D682               	goto	L4
  2357  000424                     u4810:
  2358  000424                     l3663:
  2359                           
  2360                           ; BSR set to: 0
  2361                           ;main2.c: 460: }
  2362                           ;main2.c: 462: if(++pic_cycle_i == pic_cycle){
  2363  000424  4BA2               	infsnz	mode_walker@pic_cycle_i& (0+255),f,b
  2364  000426  2BA3               	incf	(mode_walker@pic_cycle_i+1)& (0+255),f,b
  2365  000428  5196               	movf	mode_walker@pic_cycle& (0+255),w,b
  2366  00042A  19A2               	xorwf	mode_walker@pic_cycle_i& (0+255),w,b
  2367  00042C  E113               	bnz	l3671
  2368  00042E  5197               	movf	(mode_walker@pic_cycle+1)& (0+255),w,b
  2369  000430  19A3               	xorwf	(mode_walker@pic_cycle_i+1)& (0+255),w,b
  2370  000432  A4D8               	btfss	status,2,c
  2371  000434  D00F               	goto	l254
  2372                           
  2373                           ; BSR set to: 0
  2374                           ;main2.c: 463: pic_cycle_i = 0;
  2375  000436  0E00               	movlw	0
  2376  000438  6FA3               	movwf	(mode_walker@pic_cycle_i+1)& (0+255),b
  2377  00043A  0E00               	movlw	0
  2378  00043C  6FA2               	movwf	mode_walker@pic_cycle_i& (0+255),b
  2379                           
  2380                           ; BSR set to: 0
  2381                           ;main2.c: 464: if(++pic_i == 6)
  2382  00043E  4BAE               	infsnz	mode_walker@pic_i& (0+255),f,b
  2383  000440  2BAF               	incf	(mode_walker@pic_i+1)& (0+255),f,b
  2384  000442  0E06               	movlw	6
  2385  000444  19AE               	xorwf	mode_walker@pic_i& (0+255),w,b
  2386  000446  11AF               	iorwf	(mode_walker@pic_i+1)& (0+255),w,b
  2387  000448  A4D8               	btfss	status,2,c
  2388  00044A  D004               	goto	l254
  2389                           
  2390                           ; BSR set to: 0
  2391                           ;main2.c: 465: pic_i = 0;
  2392  00044C  0E00               	movlw	0
  2393  00044E  6FAF               	movwf	(mode_walker@pic_i+1)& (0+255),b
  2394  000450  0E00               	movlw	0
  2395  000452  6FAE               	movwf	mode_walker@pic_i& (0+255),b
  2396  000454                     l254:
  2397  000454                     l3671:
  2398                           
  2399                           ; BSR set to: 0
  2400                           ;main2.c: 466: }
  2401                           ;main2.c: 469: if(state_change_cycle-- == 0){
  2402  000454  078E               	decf	mode_walker@state_change_cycle& (0+255),f,b
  2403  000456  A0D8               	btfss	status,0,c
  2404  000458  078F               	decf	(mode_walker@state_change_cycle+1)& (0+255),f,b
  2405  00045A  298E               	incf	mode_walker@state_change_cycle& (0+255),w,b
  2406  00045C  E165               	bnz	l3697
  2407  00045E  298F               	incf	(mode_walker@state_change_cycle+1)& (0+255),w,b
  2408  000460  A4D8               	btfss	status,2,c
  2409  000462  D062               	goto	l264
  2410                           
  2411                           ; BSR set to: 0
  2412                           ;main2.c: 470: state_change_cycle = 120;
  2413  000464  0E00               	movlw	0
  2414  000466  6F8F               	movwf	(mode_walker@state_change_cycle+1)& (0+255),b
  2415  000468  0E78               	movlw	120
  2416  00046A  6F8E               	movwf	mode_walker@state_change_cycle& (0+255),b
  2417                           
  2418                           ;main2.c: 471: move = 1000;
  2419  00046C  0E03               	movlw	3
  2420  00046E  6FB7               	movwf	(mode_walker@move+1)& (0+255),b
  2421  000470  0EE8               	movlw	232
  2422  000472  6FB6               	movwf	mode_walker@move& (0+255),b
  2423                           
  2424                           ;main2.c: 472: update = 0;
  2425  000474  0E00               	movlw	0
  2426  000476  6F93               	movwf	(mode_walker@update+1)& (0+255),b
  2427  000478  0E00               	movlw	0
  2428  00047A  6F92               	movwf	mode_walker@update& (0+255),b
  2429                           
  2430                           ; BSR set to: 0
  2431                           ;main2.c: 473: state++;
  2432  00047C  4BB8               	infsnz	mode_walker@state& (0+255),f,b
  2433  00047E  2BB9               	incf	(mode_walker@state+1)& (0+255),f,b
  2434                           
  2435                           ; BSR set to: 0
  2436                           ;main2.c: 474: state %= 5;
  2437  000480  C0B8  F031         	movff	mode_walker@state,___awmod@dividend
  2438  000484  C0B9  F032         	movff	mode_walker@state+1,___awmod@dividend+1
  2439  000488  0E00               	movlw	0
  2440  00048A  6E34               	movwf	___awmod@divisor+1,c
  2441  00048C  0E05               	movlw	5
  2442  00048E  6E33               	movwf	___awmod@divisor,c
  2443  000490  ECC0  F00E         	call	___awmod	;wreg free
  2444  000494  C031  F0B8         	movff	?___awmod,mode_walker@state
  2445  000498  C032  F0B9         	movff	?___awmod+1,mode_walker@state+1
  2446                           
  2447                           ;main2.c: 475: for(i = 0; i < 4; ++i)
  2448  00049C  0E00               	movlw	0
  2449  00049E  0100               	movlb	0	; () banked
  2450  0004A0  6FBB               	movwf	(mode_walker@i+1)& (0+255),b
  2451  0004A2  0E00               	movlw	0
  2452  0004A4  6FBA               	movwf	mode_walker@i& (0+255),b
  2453  0004A6                     l3681:
  2454                           
  2455                           ; BSR set to: 0
  2456  0004A6  BFBB               	btfsc	(mode_walker@i+1)& (0+255),7,b
  2457  0004A8  D006               	goto	l256
  2458  0004AA  51BB               	movf	(mode_walker@i+1)& (0+255),w,b
  2459  0004AC  E125               	bnz	l3695
  2460  0004AE  0E04               	movlw	4
  2461  0004B0  5DBA               	subwf	mode_walker@i& (0+255),w,b
  2462  0004B2  B0D8               	btfsc	status,0,c
  2463  0004B4  D021               	goto	l258
  2464  0004B6                     l256:
  2465                           
  2466                           ; BSR set to: 0
  2467                           ;main2.c: 476: four[i] = 0;
  2468                           
  2469                           ; BSR set to: 0
  2470  0004B6  90D8               	bcf	status,0,c
  2471  0004B8  35BA               	rlcf	mode_walker@i& (0+255),w,b
  2472  0004BA  6ED9               	movwf	fsr2l,c
  2473  0004BC  35BB               	rlcf	(mode_walker@i+1)& (0+255),w,b
  2474  0004BE  6EDA               	movwf	fsr2h,c
  2475  0004C0  0EA4               	movlw	low mode_walker@four
  2476  0004C2  26D9               	addwf	fsr2l,f,c
  2477  0004C4  0E00               	movlw	high mode_walker@four
  2478  0004C6  22DA               	addwfc	fsr2h,f,c
  2479  0004C8  0E00               	movlw	0
  2480  0004CA  6EDE               	movwf	postinc2,c
  2481  0004CC  0E00               	movlw	0
  2482  0004CE  6EDD               	movwf	postdec2,c
  2483                           
  2484                           ; BSR set to: 0
  2485  0004D0  4BBA               	infsnz	mode_walker@i& (0+255),f,b
  2486  0004D2  2BBB               	incf	(mode_walker@i+1)& (0+255),f,b
  2487  0004D4  D7E8               	goto	l3681
  2488  0004D6                     
  2489                           ; BSR set to: 0
  2490                           ;main2.c: 479: case 3:
  2491                           ;main2.c: 480: four[1] = four[3] = 1;
  2492                           
  2493                           ; BSR set to: 0
  2494                           
  2495                           ; BSR set to: 0
  2496  0004D6  0E00               	movlw	0
  2497  0004D8  6FAB               	movwf	(mode_walker@four+7)& (0+255),b
  2498  0004DA  0E01               	movlw	1
  2499  0004DC  6FAA               	movwf	(mode_walker@four+6)& (0+255),b
  2500  0004DE  C0AA  F0A6         	movff	mode_walker@four+6,mode_walker@four+2
  2501  0004E2  C0AB  F0A7         	movff	mode_walker@four+7,mode_walker@four+3
  2502  0004E6                     
  2503                           ; BSR set to: 0
  2504                           ;main2.c: 482: case 4:
  2505                           ;main2.c: 483: four[2] = 1;
  2506                           
  2507                           ; BSR set to: 0
  2508  0004E6  0E00               	movlw	0
  2509  0004E8  6FA9               	movwf	(mode_walker@four+5)& (0+255),b
  2510  0004EA  0E01               	movlw	1
  2511  0004EC  6FA8               	movwf	(mode_walker@four+4)& (0+255),b
  2512  0004EE                     l263:
  2513                           
  2514                           ; BSR set to: 0
  2515                           ;main2.c: 485: four[0] = 1;
  2516  0004EE  0E00               	movlw	0
  2517  0004F0  6FA5               	movwf	(mode_walker@four+1)& (0+255),b
  2518  0004F2  0E01               	movlw	1
  2519  0004F4  6FA4               	movwf	mode_walker@four& (0+255),b
  2520                           
  2521                           ; BSR set to: 0
  2522                           ;main2.c: 487: }
  2523                           
  2524                           ;main2.c: 486: break;
  2525  0004F6  D018               	goto	l264
  2526  0004F8                     l258:
  2527  0004F8                     l3695:
  2528                           
  2529                           ; BSR set to: 0
  2530  0004F8  C0B8  F037         	movff	mode_walker@state,??_mode_walker
  2531  0004FC  C0B9  F038         	movff	mode_walker@state+1,??_mode_walker+1
  2532                           
  2533                           ; Switch on 2 bytes has been partitioned into a top level switch of size 1, and 1 sub-sw
      +                          itches
  2534                           ; Switch size 1, requested type "space"
  2535                           ; Number of cases is 1, Range of values is 0 to 0
  2536                           ; switch strategies available:
  2537                           ; Name         Instructions Cycles
  2538                           ; simple_byte            4     3 (average)
  2539                           ;	Chosen strategy is simple_byte
  2540  000500  5038               	movf	??_mode_walker+1,w,c
  2541  000502  0A00               	xorlw	0	; case 0
  2542  000504  A4D8               	btfss	status,2,c
  2543  000506  D010               	goto	l264
  2544                           
  2545                           ; BSR set to: 0
  2546                           ; Switch size 1, requested type "space"
  2547                           ; Number of cases is 5, Range of values is 0 to 4
  2548                           ; switch strategies available:
  2549                           ; Name         Instructions Cycles
  2550                           ; simple_byte           16     9 (average)
  2551                           ;	Chosen strategy is simple_byte
  2552  000508  5037               	movf	??_mode_walker,w,c
  2553  00050A  0A00               	xorlw	0	; case 0
  2554  00050C  B4D8               	btfsc	status,2,c
  2555  00050E  D7EF               	goto	l263
  2556  000510  0A01               	xorlw	1	; case 1
  2557  000512  B4D8               	btfsc	status,2,c
  2558  000514  D7E8               	goto	l261
  2559  000516  0A03               	xorlw	3	; case 2
  2560  000518  B4D8               	btfsc	status,2,c
  2561  00051A  D7DD               	goto	l259
  2562  00051C  0A01               	xorlw	1	; case 3
  2563  00051E  B4D8               	btfsc	status,2,c
  2564  000520  D7DA               	goto	l259
  2565  000522  0A07               	xorlw	7	; case 4
  2566  000524  B4D8               	btfsc	status,2,c
  2567  000526  D7DF               	goto	l261
  2568  000528                     l264:
  2569  000528                     l3697:
  2570                           
  2571                           ; BSR set to: 0
  2572  000528  07AC               	decf	mode_walker@display_cycle& (0+255),f,b
  2573  00052A  A0D8               	btfss	status,0,c
  2574  00052C  07AD               	decf	(mode_walker@display_cycle+1)& (0+255),f,b
  2575  00052E  29AC               	incf	mode_walker@display_cycle& (0+255),w,b
  2576  000530  E102               	bnz	u4871
  2577  000532  29AD               	incf	(mode_walker@display_cycle+1)& (0+255),w,b
  2578  000534  A4D8               	btfss	status,2,c
  2579  000536                     u4871:
  2580  000536  D59C               	goto	l183
  2581                           
  2582                           ; BSR set to: 0
  2583                           ;main2.c: 488: }
  2584                           ;main2.c: 489: }
  2585                           ;main2.c: 492: display_cycle = 120;
  2586                           
  2587                           ; BSR set to: 0
  2588  000538  0E00               	movlw	0
  2589  00053A  6FAD               	movwf	(mode_walker@display_cycle+1)& (0+255),b
  2590  00053C  0E78               	movlw	120
  2591  00053E  6FAC               	movwf	mode_walker@display_cycle& (0+255),b
  2592                           
  2593                           ;main2.c: 493: move = 0;
  2594  000540  0E00               	movlw	0
  2595  000542  6FB7               	movwf	(mode_walker@move+1)& (0+255),b
  2596  000544  0E00               	movlw	0
  2597  000546  6FB6               	movwf	mode_walker@move& (0+255),b
  2598                           
  2599                           ;main2.c: 494: int delay;
  2600                           ;main2.c: 495: while(display_cycle--){
  2601  000548  D107               	goto	u5040
  2602  00054A                     
  2603                           ; BSR set to: 0
  2604                           ;main2.c: 496: move += 70;
  2605                           
  2606                           ; BSR set to: 0
  2607  00054A  0E46               	movlw	70
  2608  00054C  27B6               	addwf	mode_walker@move& (0+255),f,b
  2609  00054E  0E00               	movlw	0
  2610  000550  23B7               	addwfc	(mode_walker@move+1)& (0+255),f,b
  2611                           
  2612                           ;main2.c: 497: if(move > 4880)
  2613  000552  BFB7               	btfsc	(mode_walker@move+1)& (0+255),7,b
  2614  000554  D00B               	goto	l268
  2615  000556  0E11               	movlw	17
  2616  000558  5DB6               	subwf	mode_walker@move& (0+255),w,b
  2617  00055A  0E13               	movlw	19
  2618  00055C  59B7               	subwfb	(mode_walker@move+1)& (0+255),w,b
  2619  00055E  A0D8               	btfss	status,0,c
  2620  000560  D005               	goto	l268
  2621                           
  2622                           ; BSR set to: 0
  2623                           ;main2.c: 498: move = 4880;
  2624  000562  0E13               	movlw	19
  2625  000564  6FB7               	movwf	(mode_walker@move+1)& (0+255),b
  2626  000566  0E10               	movlw	16
  2627  000568  6FB6               	movwf	mode_walker@move& (0+255),b
  2628  00056A  D00C               	goto	u4890
  2629  00056C                     l268:
  2630                           
  2631                           ; BSR set to: 0
  2632                           ;main2.c: 499: else{
  2633                           ;main2.c: 500: delay = 5;
  2634                           
  2635                           ; BSR set to: 0
  2636  00056C  0E00               	movlw	0
  2637  00056E  6FB1               	movwf	(mode_walker@delay_437+1)& (0+255),b
  2638  000570  0E05               	movlw	5
  2639  000572  6FB0               	movwf	mode_walker@delay_437& (0+255),b
  2640  000574                     l3707:
  2641                           
  2642                           ; BSR set to: 0
  2643  000574  07B0               	decf	mode_walker@delay_437& (0+255),f,b
  2644  000576  A0D8               	btfss	status,0,c
  2645  000578  07B1               	decf	(mode_walker@delay_437+1)& (0+255),f,b
  2646  00057A  29B0               	incf	mode_walker@delay_437& (0+255),w,b
  2647  00057C  E1FB               	bnz	l3707
  2648  00057E  29B1               	incf	(mode_walker@delay_437+1)& (0+255),w,b
  2649  000580  A4D8               	btfss	status,2,c
  2650  000582  D7F8               	goto	l271
  2651  000584                     u4890:
  2652                           
  2653                           ; BSR set to: 0
  2654                           ;main2.c: 502: }
  2655                           ;main2.c: 504: delay = move;
  2656                           
  2657                           ; BSR set to: 0
  2658  000584  C0B6  F0B0         	movff	mode_walker@move,mode_walker@delay_437
  2659  000588  C0B7  F0B1         	movff	mode_walker@move+1,mode_walker@delay_437+1
  2660  00058C                     l3709:
  2661                           
  2662                           ; BSR set to: 0
  2663  00058C  07B0               	decf	mode_walker@delay_437& (0+255),f,b
  2664  00058E  A0D8               	btfss	status,0,c
  2665  000590  07B1               	decf	(mode_walker@delay_437+1)& (0+255),f,b
  2666  000592  29B0               	incf	mode_walker@delay_437& (0+255),w,b
  2667  000594  E1FB               	bnz	l3709
  2668  000596  29B1               	incf	(mode_walker@delay_437+1)& (0+255),w,b
  2669  000598  A4D8               	btfss	status,2,c
  2670  00059A  D7F8               	goto	l274
  2671                           
  2672                           ; BSR set to: 0
  2673                           ;main2.c: 507: show = (unsigned int*)walker[pic_i];
  2674                           
  2675                           ; BSR set to: 0
  2676  00059C  C0AE  F031         	movff	mode_walker@pic_i,___wmul@multiplier
  2677  0005A0  C0AF  F032         	movff	mode_walker@pic_i+1,___wmul@multiplier+1
  2678  0005A4  0E00               	movlw	0
  2679  0005A6  6E34               	movwf	___wmul@multiplicand+1,c
  2680  0005A8  0E12               	movlw	18
  2681  0005AA  6E33               	movwf	___wmul@multiplicand,c
  2682  0005AC  EC67  F00F         	call	___wmul	;wreg free
  2683  0005B0  0E56               	movlw	low _walker
  2684  0005B2  2431               	addwf	?___wmul,w,c
  2685  0005B4  0100               	movlb	0	; () banked
  2686  0005B6  6FB4               	movwf	mode_walker@show& (0+255),b
  2687  0005B8  0E03               	movlw	high _walker
  2688  0005BA  2032               	addwfc	?___wmul+1,w,c
  2689  0005BC  6FB5               	movwf	(mode_walker@show+1)& (0+255),b
  2690                           
  2691                           ; BSR set to: 0
  2692                           ;main2.c: 508: for(int column = 0; column < 9; ++column, ++show){
  2693  0005BE  0E00               	movlw	0
  2694  0005C0  6F9F               	movwf	(mode_walker@column_438+1)& (0+255),b
  2695  0005C2  0E00               	movlw	0
  2696  0005C4  6F9E               	movwf	mode_walker@column_438& (0+255),b
  2697  0005C6                     l3715:
  2698                           
  2699                           ; BSR set to: 0
  2700  0005C6  BF9F               	btfsc	(mode_walker@column_438+1)& (0+255),7,b
  2701  0005C8  D006               	goto	l276
  2702  0005CA  519F               	movf	(mode_walker@column_438+1)& (0+255),w,b
  2703  0005CC  E13A               	bnz	l3735
  2704  0005CE  0E09               	movlw	9
  2705  0005D0  5D9E               	subwf	mode_walker@column_438& (0+255),w,b
  2706  0005D2  B0D8               	btfsc	status,0,c
  2707  0005D4  D036               	goto	u4940
  2708  0005D6                     l276:
  2709                           
  2710                           ; BSR set to: 0
  2711                           ;main2.c: 509: LATA = *show;
  2712                           
  2713                           ; BSR set to: 0
  2714  0005D6  C0B4  FFD9         	movff	mode_walker@show,fsr2l
  2715  0005DA  C0B5  FFDA         	movff	mode_walker@show+1,fsr2h
  2716  0005DE  50DF               	movf	indf2,w,c
  2717  0005E0  6E89               	movwf	3977,c	;volatile
  2718                           
  2719                           ;main2.c: 510: LATD = (*show) >> 8;
  2720  0005E2  C0B4  FFD9         	movff	mode_walker@show,fsr2l
  2721  0005E6  C0B5  FFDA         	movff	mode_walker@show+1,fsr2h
  2722  0005EA  CFDE F037          	movff	postinc2,??_mode_walker
  2723  0005EE  CFDD F038          	movff	postdec2,??_mode_walker+1
  2724  0005F2  C038  F037         	movff	??_mode_walker+1,??_mode_walker
  2725  0005F6  6A38               	clrf	??_mode_walker+1,c
  2726  0005F8  5037               	movf	??_mode_walker,w,c
  2727  0005FA  6E8C               	movwf	3980,c	;volatile
  2728                           
  2729                           ; BSR set to: 0
  2730                           ;main2.c: 511: int bright = 60;
  2731  0005FC  0E00               	movlw	0
  2732  0005FE  6F87               	movwf	(mode_walker@bright_439+1)& (0+255),b
  2733  000600  0E3C               	movlw	60
  2734  000602  6F86               	movwf	mode_walker@bright_439& (0+255),b
  2735  000604                     l3723:
  2736                           
  2737                           ; BSR set to: 0
  2738  000604  0786               	decf	mode_walker@bright_439& (0+255),f,b
  2739  000606  A0D8               	btfss	status,0,c
  2740  000608  0787               	decf	(mode_walker@bright_439+1)& (0+255),f,b
  2741  00060A  2986               	incf	mode_walker@bright_439& (0+255),w,b
  2742  00060C  E1FB               	bnz	l3723
  2743  00060E  2987               	incf	(mode_walker@bright_439+1)& (0+255),w,b
  2744  000610  A4D8               	btfss	status,2,c
  2745  000612  D7F8               	goto	l279
  2746                           
  2747                           ; BSR set to: 0
  2748                           ;main2.c: 513: LATA = 0;
  2749                           
  2750                           ; BSR set to: 0
  2751  000614  0E00               	movlw	0
  2752  000616  6E89               	movwf	3977,c	;volatile
  2753                           
  2754                           ;main2.c: 514: LATD = 0;
  2755  000618  0E00               	movlw	0
  2756  00061A  6E8C               	movwf	3980,c	;volatile
  2757                           
  2758                           ;main2.c: 515: int dark = 60;
  2759  00061C  0E00               	movlw	0
  2760  00061E  6F89               	movwf	(mode_walker@dark_440+1)& (0+255),b
  2761  000620  0E3C               	movlw	60
  2762  000622  6F88               	movwf	mode_walker@dark_440& (0+255),b
  2763  000624                     l3727:
  2764                           
  2765                           ; BSR set to: 0
  2766  000624  0788               	decf	mode_walker@dark_440& (0+255),f,b
  2767  000626  A0D8               	btfss	status,0,c
  2768  000628  0789               	decf	(mode_walker@dark_440+1)& (0+255),f,b
  2769  00062A  2988               	incf	mode_walker@dark_440& (0+255),w,b
  2770  00062C  E1FB               	bnz	l3727
  2771  00062E  2989               	incf	(mode_walker@dark_440+1)& (0+255),w,b
  2772  000630  A4D8               	btfss	status,2,c
  2773  000632  D7F8               	goto	l282
  2774                           
  2775                           ; BSR set to: 0
  2776                           
  2777                           ; BSR set to: 0
  2778  000634  4B9E               	infsnz	mode_walker@column_438& (0+255),f,b
  2779  000636  2B9F               	incf	(mode_walker@column_438+1)& (0+255),f,b
  2780                           
  2781                           ; BSR set to: 0
  2782  000638  0E02               	movlw	2
  2783  00063A  27B4               	addwf	mode_walker@show& (0+255),f,b
  2784  00063C  0E00               	movlw	0
  2785  00063E  23B5               	addwfc	(mode_walker@show+1)& (0+255),f,b
  2786  000640  D7C2               	goto	l3715
  2787  000642                     u4940:
  2788  000642                     l3735:
  2789                           
  2790                           ; BSR set to: 0
  2791                           ;main2.c: 517: }
  2792                           ;main2.c: 520: int dark = 4880;
  2793  000642  0E13               	movlw	19
  2794  000644  6F91               	movwf	(mode_walker@dark_441+1)& (0+255),b
  2795  000646  0E10               	movlw	16
  2796  000648  6F90               	movwf	mode_walker@dark_441& (0+255),b
  2797                           
  2798                           ; BSR set to: 0
  2799                           ;main2.c: 521: dark -= move;
  2800  00064A  51B6               	movf	mode_walker@move& (0+255),w,b
  2801  00064C  5F90               	subwf	mode_walker@dark_441& (0+255),f,b
  2802  00064E  51B7               	movf	(mode_walker@move+1)& (0+255),w,b
  2803  000650  5B91               	subwfb	(mode_walker@dark_441+1)& (0+255),f,b
  2804  000652                     l3739:
  2805                           
  2806                           ; BSR set to: 0
  2807  000652  0790               	decf	mode_walker@dark_441& (0+255),f,b
  2808  000654  A0D8               	btfss	status,0,c
  2809  000656  0791               	decf	(mode_walker@dark_441+1)& (0+255),f,b
  2810  000658  2990               	incf	mode_walker@dark_441& (0+255),w,b
  2811  00065A  E1FB               	bnz	l3739
  2812  00065C  2991               	incf	(mode_walker@dark_441+1)& (0+255),w,b
  2813  00065E  A4D8               	btfss	status,2,c
  2814  000660  D7F8               	goto	l285
  2815                           
  2816                           ; BSR set to: 0
  2817                           ;main2.c: 524: for(int column = 0; column < 9; ++column){
  2818                           
  2819                           ; BSR set to: 0
  2820  000662  0E00               	movlw	0
  2821  000664  6FA1               	movwf	(mode_walker@column_442+1)& (0+255),b
  2822  000666  0E00               	movlw	0
  2823  000668  6FA0               	movwf	mode_walker@column_442& (0+255),b
  2824  00066A                     l3743:
  2825                           
  2826                           ; BSR set to: 0
  2827  00066A  BFA1               	btfsc	(mode_walker@column_442+1)& (0+255),7,b
  2828  00066C  D006               	goto	l287
  2829  00066E  51A1               	movf	(mode_walker@column_442+1)& (0+255),w,b
  2830  000670  E13A               	bnz	l3765
  2831  000672  0E09               	movlw	9
  2832  000674  5DA0               	subwf	mode_walker@column_442& (0+255),w,b
  2833  000676  B0D8               	btfsc	status,0,c
  2834  000678  D036               	goto	u4990
  2835  00067A                     l287:
  2836                           
  2837                           ; BSR set to: 0
  2838                           ;main2.c: 525: --show;
  2839                           
  2840                           ; BSR set to: 0
  2841  00067A  0E02               	movlw	2
  2842  00067C  5FB4               	subwf	mode_walker@show& (0+255),f,b
  2843  00067E  0E00               	movlw	0
  2844  000680  5BB5               	subwfb	(mode_walker@show+1)& (0+255),f,b
  2845                           
  2846                           ; BSR set to: 0
  2847                           ;main2.c: 526: LATA = *show;
  2848  000682  C0B4  FFD9         	movff	mode_walker@show,fsr2l
  2849  000686  C0B5  FFDA         	movff	mode_walker@show+1,fsr2h
  2850  00068A  50DF               	movf	indf2,w,c
  2851  00068C  6E89               	movwf	3977,c	;volatile
  2852                           
  2853                           ; BSR set to: 0
  2854                           ;main2.c: 527: LATD = (*show) >> 8;
  2855  00068E  C0B4  FFD9         	movff	mode_walker@show,fsr2l
  2856  000692  C0B5  FFDA         	movff	mode_walker@show+1,fsr2h
  2857  000696  CFDE F037          	movff	postinc2,??_mode_walker
  2858  00069A  CFDD F038          	movff	postdec2,??_mode_walker+1
  2859  00069E  C038  F037         	movff	??_mode_walker+1,??_mode_walker
  2860  0006A2  6A38               	clrf	??_mode_walker+1,c
  2861  0006A4  5037               	movf	??_mode_walker,w,c
  2862  0006A6  6E8C               	movwf	3980,c	;volatile
  2863                           
  2864                           ; BSR set to: 0
  2865                           ;main2.c: 528: int bright = 60;
  2866  0006A8  0E00               	movlw	0
  2867  0006AA  6F8B               	movwf	(mode_walker@bright_443+1)& (0+255),b
  2868  0006AC  0E3C               	movlw	60
  2869  0006AE  6F8A               	movwf	mode_walker@bright_443& (0+255),b
  2870  0006B0                     l3755:
  2871                           
  2872                           ; BSR set to: 0
  2873  0006B0  078A               	decf	mode_walker@bright_443& (0+255),f,b
  2874  0006B2  A0D8               	btfss	status,0,c
  2875  0006B4  078B               	decf	(mode_walker@bright_443+1)& (0+255),f,b
  2876  0006B6  298A               	incf	mode_walker@bright_443& (0+255),w,b
  2877  0006B8  E1FB               	bnz	l3755
  2878  0006BA  298B               	incf	(mode_walker@bright_443+1)& (0+255),w,b
  2879  0006BC  A4D8               	btfss	status,2,c
  2880  0006BE  D7F8               	goto	l290
  2881                           
  2882                           ; BSR set to: 0
  2883                           ;main2.c: 530: LATA = 0;
  2884                           
  2885                           ; BSR set to: 0
  2886  0006C0  0E00               	movlw	0
  2887  0006C2  6E89               	movwf	3977,c	;volatile
  2888                           
  2889                           ;main2.c: 531: LATD = 0;
  2890  0006C4  0E00               	movlw	0
  2891  0006C6  6E8C               	movwf	3980,c	;volatile
  2892                           
  2893                           ;main2.c: 532: int dark = 60;
  2894  0006C8  0E00               	movlw	0
  2895  0006CA  6F8D               	movwf	(mode_walker@dark_444+1)& (0+255),b
  2896  0006CC  0E3C               	movlw	60
  2897  0006CE  6F8C               	movwf	mode_walker@dark_444& (0+255),b
  2898  0006D0                     l3759:
  2899                           
  2900                           ; BSR set to: 0
  2901  0006D0  078C               	decf	mode_walker@dark_444& (0+255),f,b
  2902  0006D2  A0D8               	btfss	status,0,c
  2903  0006D4  078D               	decf	(mode_walker@dark_444+1)& (0+255),f,b
  2904  0006D6  298C               	incf	mode_walker@dark_444& (0+255),w,b
  2905  0006D8  E1FB               	bnz	l3759
  2906  0006DA  298D               	incf	(mode_walker@dark_444+1)& (0+255),w,b
  2907  0006DC  A4D8               	btfss	status,2,c
  2908  0006DE  D7F8               	goto	l293
  2909                           
  2910                           ; BSR set to: 0
  2911                           
  2912                           ; BSR set to: 0
  2913  0006E0  4BA0               	infsnz	mode_walker@column_442& (0+255),f,b
  2914  0006E2  2BA1               	incf	(mode_walker@column_442+1)& (0+255),f,b
  2915  0006E4  D7C2               	goto	l3743
  2916  0006E6                     u4990:
  2917  0006E6                     l3765:
  2918                           
  2919                           ; BSR set to: 0
  2920                           ;main2.c: 534: }
  2921                           ;main2.c: 535: if(display_cycle > 40){
  2922  0006E6  BFAD               	btfsc	(mode_walker@display_cycle+1)& (0+255),7,b
  2923  0006E8  D01F               	goto	l295
  2924  0006EA  51AD               	movf	(mode_walker@display_cycle+1)& (0+255),w,b
  2925  0006EC  E104               	bnz	u5000
  2926  0006EE  0E29               	movlw	41
  2927  0006F0  5DAC               	subwf	mode_walker@display_cycle& (0+255),w,b
  2928  0006F2  A0D8               	btfss	status,0,c
  2929  0006F4  D019               	goto	l295
  2930  0006F6                     u5000:
  2931                           
  2932                           ; BSR set to: 0
  2933                           ;main2.c: 536: if(++pic_cycle_i == pic_cycle){
  2934  0006F6  4BA2               	infsnz	mode_walker@pic_cycle_i& (0+255),f,b
  2935  0006F8  2BA3               	incf	(mode_walker@pic_cycle_i+1)& (0+255),f,b
  2936  0006FA  5196               	movf	mode_walker@pic_cycle& (0+255),w,b
  2937  0006FC  19A2               	xorwf	mode_walker@pic_cycle_i& (0+255),w,b
  2938  0006FE  E120               	bnz	l3779
  2939  000700  5197               	movf	(mode_walker@pic_cycle+1)& (0+255),w,b
  2940  000702  19A3               	xorwf	(mode_walker@pic_cycle_i+1)& (0+255),w,b
  2941  000704  A4D8               	btfss	status,2,c
  2942  000706  D01C               	goto	u5030
  2943                           
  2944                           ; BSR set to: 0
  2945                           ;main2.c: 537: pic_cycle_i = 0;
  2946  000708  0E00               	movlw	0
  2947  00070A  6FA3               	movwf	(mode_walker@pic_cycle_i+1)& (0+255),b
  2948  00070C  0E00               	movlw	0
  2949  00070E  6FA2               	movwf	mode_walker@pic_cycle_i& (0+255),b
  2950                           
  2951                           ; BSR set to: 0
  2952                           ;main2.c: 538: if(++pic_i == 6)
  2953  000710  4BAE               	infsnz	mode_walker@pic_i& (0+255),f,b
  2954  000712  2BAF               	incf	(mode_walker@pic_i+1)& (0+255),f,b
  2955  000714  0E06               	movlw	6
  2956  000716  19AE               	xorwf	mode_walker@pic_i& (0+255),w,b
  2957  000718  11AF               	iorwf	(mode_walker@pic_i+1)& (0+255),w,b
  2958  00071A  A4D8               	btfss	status,2,c
  2959  00071C  D011               	goto	u5030
  2960                           
  2961                           ; BSR set to: 0
  2962                           ;main2.c: 539: pic_i = 0;
  2963  00071E  0E00               	movlw	0
  2964  000720  6FAF               	movwf	(mode_walker@pic_i+1)& (0+255),b
  2965  000722  0E00               	movlw	0
  2966  000724  6FAE               	movwf	mode_walker@pic_i& (0+255),b
  2967                           
  2968                           ; BSR set to: 0
  2969                           ;main2.c: 540: }
  2970                           ;main2.c: 541: }else{
  2971                           
  2972                           ; BSR set to: 0
  2973  000726  D00C               	goto	u5030
  2974  000728                     l295:
  2975                           
  2976                           ; BSR set to: 0
  2977                           ;main2.c: 542: delay = 15;
  2978                           
  2979                           ; BSR set to: 0
  2980  000728  0E00               	movlw	0
  2981  00072A  6FB1               	movwf	(mode_walker@delay_437+1)& (0+255),b
  2982  00072C  0E0F               	movlw	15
  2983  00072E  6FB0               	movwf	mode_walker@delay_437& (0+255),b
  2984  000730                     l3777:
  2985                           
  2986                           ; BSR set to: 0
  2987  000730  07B0               	decf	mode_walker@delay_437& (0+255),f,b
  2988  000732  A0D8               	btfss	status,0,c
  2989  000734  07B1               	decf	(mode_walker@delay_437+1)& (0+255),f,b
  2990  000736  29B0               	incf	mode_walker@delay_437& (0+255),w,b
  2991  000738  E1FB               	bnz	l3777
  2992  00073A  29B1               	incf	(mode_walker@delay_437+1)& (0+255),w,b
  2993  00073C  A4D8               	btfss	status,2,c
  2994  00073E  D7F8               	goto	l300
  2995  000740                     u5030:
  2996  000740                     l3779:
  2997                           
  2998                           ; BSR set to: 0
  2999                           ;main2.c: 544: }
  3000                           ;main2.c: 546: delay = 4950;
  3001  000740  0E13               	movlw	19
  3002  000742  6FB1               	movwf	(mode_walker@delay_437+1)& (0+255),b
  3003  000744  0E56               	movlw	86
  3004  000746  6FB0               	movwf	mode_walker@delay_437& (0+255),b
  3005  000748                     l3781:
  3006                           
  3007                           ; BSR set to: 0
  3008  000748  07B0               	decf	mode_walker@delay_437& (0+255),f,b
  3009  00074A  A0D8               	btfss	status,0,c
  3010  00074C  07B1               	decf	(mode_walker@delay_437+1)& (0+255),f,b
  3011  00074E  29B0               	incf	mode_walker@delay_437& (0+255),w,b
  3012  000750  E1FB               	bnz	l3781
  3013  000752  29B1               	incf	(mode_walker@delay_437+1)& (0+255),w,b
  3014  000754  A4D8               	btfss	status,2,c
  3015  000756  D7F8               	goto	l303
  3016  000758                     u5040:
  3017                           
  3018                           ; BSR set to: 0
  3019                           
  3020                           ; BSR set to: 0
  3021                           
  3022                           ; BSR set to: 0
  3023  000758  07AC               	decf	mode_walker@display_cycle& (0+255),f,b
  3024  00075A  A0D8               	btfss	status,0,c
  3025  00075C  07AD               	decf	(mode_walker@display_cycle+1)& (0+255),f,b
  3026  00075E  29AC               	incf	mode_walker@display_cycle& (0+255),w,b
  3027  000760  E103               	bnz	u5051
  3028  000762  29AD               	incf	(mode_walker@display_cycle+1)& (0+255),w,b
  3029  000764  B4D8               	btfsc	status,2,c
  3030  000766  0012               	return	
  3031  000768                     u5051:
  3032  000768  D6F0               	goto	l267
  3033  00076A                     __end_of_mode_walker:
  3034                           	opt stack 0
  3035                           tblptru	equ	0xFF8
  3036                           tblptrh	equ	0xFF7
  3037                           tblptrl	equ	0xFF6
  3038                           tablat	equ	0xFF5
  3039                           intcon	equ	0xFF2
  3040                           postinc0	equ	0xFEE
  3041                           wreg	equ	0xFE8
  3042                           postdec1	equ	0xFE5
  3043                           plusw1	equ	0xFE3
  3044                           fsr1l	equ	0xFE1
  3045                           indf2	equ	0xFDF
  3046                           postinc2	equ	0xFDE
  3047                           postdec2	equ	0xFDD
  3048                           plusw2	equ	0xFDB
  3049                           fsr2h	equ	0xFDA
  3050                           fsr2l	equ	0xFD9
  3051                           status	equ	0xFD8
  3052                           
  3053 ;; *************** function _mode_tree *****************
  3054 ;; Defined at:
  3055 ;;		line 207 in file "main2.c"
  3056 ;; Parameters:    Size  Location     Type
  3057 ;;		None
  3058 ;; Auto vars:     Size  Location     Type
  3059 ;;  wait            2   50[BANK0 ] int 
  3060 ;;  dark            2   54[BANK0 ] int 
  3061 ;;  bright          2   52[BANK0 ] int 
  3062 ;;  dark            2   48[BANK0 ] int 
  3063 ;;  bright          2   46[BANK0 ] int 
  3064 ;;  dark            2   66[BANK0 ] int 
  3065 ;;  bright          2   64[BANK0 ] int 
  3066 ;;  i               2   82[BANK0 ] int 
  3067 ;;  i               2   76[BANK0 ] int 
  3068 ;;  i               2   96[BANK0 ] int 
  3069 ;;  show            2   80[BANK0 ] PTR int 
  3070 ;;		 -> mode_tree@tree(42), 
  3071 ;;  show            2   74[BANK0 ] PTR int 
  3072 ;;		 -> mode_tree@tree(42), 
  3073 ;;  show            2   94[BANK0 ] PTR int 
  3074 ;;		 -> mode_tree@tree(42), 
  3075 ;;  dark            2   62[BANK0 ] int 
  3076 ;;  bright          2   60[BANK0 ] int 
  3077 ;;  dark            2   58[BANK0 ] int 
  3078 ;;  bright          2   56[BANK0 ] int 
  3079 ;;  six_i           2  112[BANK0 ] int 
  3080 ;;  six_i           2   72[BANK0 ] int 
  3081 ;;  tree_i          2   92[BANK0 ] int 
  3082 ;;  i               2   90[BANK0 ] int 
  3083 ;;  i               2   86[BANK0 ] int 
  3084 ;;  six_ptr         2   70[BANK0 ] PTR int 
  3085 ;;		 -> mode_tree@six(12), 
  3086 ;;  six_ptr         2   68[BANK0 ] PTR int 
  3087 ;;		 -> mode_tree@six(12), 
  3088 ;;  show            2   88[BANK0 ] PTR int 
  3089 ;;		 -> mode_tree@tree(42), 
  3090 ;;  show            2   84[BANK0 ] PTR int 
  3091 ;;		 -> mode_tree@tree(42), 
  3092 ;;  move            2   78[BANK0 ] int 
  3093 ;;  tree           42    0[BANK0 ] int [21]
  3094 ;;  six            12   98[BANK0 ] int [6]
  3095 ;;  delay           2  118[BANK0 ] int 
  3096 ;;  count           2  116[BANK0 ] int 
  3097 ;;  interval        2  114[BANK0 ] int 
  3098 ;;  cycle           2  110[BANK0 ] int 
  3099 ;;  state           2   44[BANK0 ] int 
  3100 ;;  count_4         2   42[BANK0 ] int 
  3101 ;; Return value:  Size  Location     Type
  3102 ;;                  1    wreg      void 
  3103 ;; Registers used:
  3104 ;;		wreg, fsr1l, fsr1h, fsr2l, fsr2h, status,2, status,0
  3105 ;; Tracked objects:
  3106 ;;		On entry : 0/0
  3107 ;;		On exit  : 0/0
  3108 ;;		Unchanged: 0/0
  3109 ;; Data sizes:     COMRAM   BANK0   BANK1   BANK2   BANK3   BANK4   BANK5
  3110 ;;      Params:         0       0       0       0       0       0       0
  3111 ;;      Locals:         0     120       0       0       0       0       0
  3112 ;;      Temps:          2       0       0       0       0       0       0
  3113 ;;      Totals:         2     120       0       0       0       0       0
  3114 ;;Total ram usage:      122 bytes
  3115 ;; Hardware stack levels used:    1
  3116 ;; Hardware stack levels required when called:    2
  3117 ;; This function calls:
  3118 ;;		Nothing
  3119 ;; This function is called by:
  3120 ;;		_main
  3121 ;; This function uses a non-reentrant model
  3122 ;;
  3123                           
  3124                           	psect	text2
  3125  000D74                     __ptext2:
  3126                           	opt stack 0
  3127  000D74                     _mode_tree:
  3128                           	opt stack 28
  3129                           
  3130                           ;main2.c: 209: int tree[21] =
  3131                           ;main2.c: 210: {
  3132                           ;main2.c: 211: 0b0100000000,
  3133                           ;main2.c: 212: 0b0000000000,
  3134                           ;main2.c: 213: 0b0000000000,
  3135                           ;main2.c: 214: 0b0110000000,
  3136                           ;main2.c: 215: 0b0000100000,
  3137                           ;main2.c: 216: 0b0001100000,
  3138                           ;main2.c: 217: 0b0100010000,
  3139                           ;main2.c: 218: 0b0000100100,
  3140                           ;main2.c: 219: 0b0100001110,
  3141                           ;main2.c: 220: 0b1100100101,
  3142                           ;main2.c: 221: 0b0100001110,
  3143                           ;main2.c: 222: 0b0000100100,
  3144                           ;main2.c: 223: 0b0100010000,
  3145                           ;main2.c: 224: 0b0001100000,
  3146                           ;main2.c: 225: 0b0000100000,
  3147                           ;main2.c: 226: 0b0110000000,
  3148                           ;main2.c: 227: 0b0000000000,
  3149                           
  3150                           ; BSR set to: 0
  3151                           ;incstack = 0
  3152  000D74  EE22  F082         	lfsr	2,mode_tree@F3023
  3153  000D78  EE10  F080         	lfsr	1,mode_tree@tree
  3154  000D7C  0E29               	movlw	41
  3155  000D7E                     u2441:
  3156  000D7E  CFDB FFE3          	movff	plusw2,plusw1
  3157  000D82  06E8               	decf	wreg,f,c
  3158  000D84  E2FC               	bc	u2441
  3159                           
  3160                           ;main2.c: 232: bool six[6] = {1, 0, 0, 0, 0, 0};
  3161  000D86  EE21  F0C6         	lfsr	2,mode_tree@F3025
  3162  000D8A  EE10  F0E2         	lfsr	1,mode_tree@six
  3163  000D8E  0E0B               	movlw	11
  3164  000D90                     u2451:
  3165  000D90  CFDB FFE3          	movff	plusw2,plusw1
  3166  000D94  06E8               	decf	wreg,f,c
  3167  000D96  E2FC               	bc	u2451
  3168                           
  3169                           ;main2.c: 233: int cycle, delay;
  3170                           ;main2.c: 234: int count_4 = 4;
  3171  000D98  0E00               	movlw	0
  3172  000D9A  0100               	movlb	0	; () banked
  3173  000D9C  6FAB               	movwf	(mode_tree@count_4+1)& (0+255),b
  3174  000D9E  0E04               	movlw	4
  3175  000DA0  6FAA               	movwf	mode_tree@count_4& (0+255),b
  3176                           
  3177                           ; BSR set to: 0
  3178                           ;main2.c: 235: int state = 0;
  3179  000DA2  0E00               	movlw	0
  3180  000DA4  6FAD               	movwf	(mode_tree@state+1)& (0+255),b
  3181  000DA6  0E00               	movlw	0
  3182  000DA8  6FAC               	movwf	mode_tree@state& (0+255),b
  3183                           
  3184                           ;main2.c: 236: while(count_4--){
  3185  000DAA  D182               	goto	l128
  3186  000DAC                     
  3187                           ; BSR set to: 0
  3188                           ;main2.c: 237: cycle = 8;
  3189                           
  3190                           ; BSR set to: 0
  3191  000DAC  0E00               	movlw	0
  3192  000DAE  6FEF               	movwf	(mode_tree@cycle+1)& (0+255),b
  3193  000DB0  0E08               	movlw	8
  3194  000DB2  6FEE               	movwf	mode_tree@cycle& (0+255),b
  3195                           
  3196                           ;main2.c: 238: while(cycle--){
  3197  000DB4  D088               	goto	u2540
  3198  000DB6                     
  3199                           ; BSR set to: 0
  3200                           ;main2.c: 239: int* six_ptr = (int*)six;
  3201                           
  3202                           ; BSR set to: 0
  3203  000DB6  0EE2               	movlw	low mode_tree@six
  3204  000DB8  6FC4               	movwf	mode_tree@six_ptr& (0+255),b
  3205  000DBA  0E00               	movlw	high mode_tree@six
  3206  000DBC  6FC5               	movwf	(mode_tree@six_ptr+1)& (0+255),b
  3207                           
  3208                           ; BSR set to: 0
  3209                           ;main2.c: 240: for(int six_i = 0; six_i < 6; ++six_i, ++six_ptr){
  3210  000DBE  0E00               	movlw	0
  3211  000DC0  6FC9               	movwf	(mode_tree@six_i+1)& (0+255),b
  3212  000DC2  0E00               	movlw	0
  3213  000DC4  6FC8               	movwf	mode_tree@six_i& (0+255),b
  3214                           
  3215                           ; BSR set to: 0
  3216  000DC6  BFC9               	btfsc	(mode_tree@six_i+1)& (0+255),7,b
  3217  000DC8  D006               	goto	l83
  3218  000DCA  51C9               	movf	(mode_tree@six_i+1)& (0+255),w,b
  3219  000DCC  E17C               	bnz	u2540
  3220  000DCE  0E06               	movlw	6
  3221  000DD0  5DC8               	subwf	mode_tree@six_i& (0+255),w,b
  3222  000DD2  B0D8               	btfsc	status,0,c
  3223  000DD4  D078               	goto	u2540
  3224  000DD6                     l83:
  3225                           
  3226                           ; BSR set to: 0
  3227                           ;main2.c: 241: int* show = (int*)tree;
  3228                           
  3229                           ; BSR set to: 0
  3230  000DD6  0E80               	movlw	low mode_tree@tree
  3231  000DD8  6FCA               	movwf	mode_tree@show& (0+255),b
  3232  000DDA  0E00               	movlw	high mode_tree@tree
  3233  000DDC  6FCB               	movwf	(mode_tree@show+1)& (0+255),b
  3234                           
  3235                           ; BSR set to: 0
  3236                           ;main2.c: 242: for(int i = 0; i < 21; ++i, ++show){
  3237  000DDE  0E00               	movlw	0
  3238  000DE0  6FCD               	movwf	(mode_tree@i+1)& (0+255),b
  3239  000DE2  0E00               	movlw	0
  3240  000DE4  6FCC               	movwf	mode_tree@i& (0+255),b
  3241  000DE6                     l2441:
  3242                           
  3243                           ; BSR set to: 0
  3244  000DE6  BFCD               	btfsc	(mode_tree@i+1)& (0+255),7,b
  3245  000DE8  D006               	goto	l85
  3246  000DEA  51CD               	movf	(mode_tree@i+1)& (0+255),w,b
  3247  000DEC  E155               	bnz	l2467
  3248  000DEE  0E15               	movlw	21
  3249  000DF0  5DCC               	subwf	mode_tree@i& (0+255),w,b
  3250  000DF2  B0D8               	btfsc	status,0,c
  3251  000DF4  D051               	goto	u2520
  3252  000DF6                     l85:
  3253                           
  3254                           ; BSR set to: 0
  3255                           ;main2.c: 243: if(*six_ptr){
  3256                           
  3257                           ; BSR set to: 0
  3258  000DF6  C0C4  FFD9         	movff	mode_tree@six_ptr,fsr2l
  3259  000DFA  C0C5  FFDA         	movff	mode_tree@six_ptr+1,fsr2h
  3260  000DFE  50DE               	movf	postinc2,w,c
  3261  000E00  10DE               	iorwf	postinc2,w,c
  3262  000E02  B4D8               	btfsc	status,2,c
  3263  000E04  D016               	goto	l87
  3264                           
  3265                           ; BSR set to: 0
  3266                           ;main2.c: 244: LATA = *show;
  3267  000E06  C0CA  FFD9         	movff	mode_tree@show,fsr2l
  3268  000E0A  C0CB  FFDA         	movff	mode_tree@show+1,fsr2h
  3269  000E0E  50DF               	movf	indf2,w,c
  3270  000E10  6E89               	movwf	3977,c	;volatile
  3271                           
  3272                           ;main2.c: 245: LATD = *show >> 8;
  3273  000E12  C0CA  FFD9         	movff	mode_tree@show,fsr2l
  3274  000E16  C0CB  FFDA         	movff	mode_tree@show+1,fsr2h
  3275  000E1A  CFDE F031          	movff	postinc2,??_mode_tree
  3276  000E1E  CFDD F032          	movff	postdec2,??_mode_tree+1
  3277  000E22  C032  F031         	movff	??_mode_tree+1,??_mode_tree
  3278  000E26  6A32               	clrf	??_mode_tree+1,c
  3279  000E28  BE31               	btfsc	??_mode_tree,7,c
  3280  000E2A  6832               	setf	??_mode_tree+1,c
  3281  000E2C  5031               	movf	??_mode_tree,w,c
  3282  000E2E  6E8C               	movwf	3980,c	;volatile
  3283                           
  3284                           ;main2.c: 246: }else{
  3285  000E30  D010               	goto	u2490
  3286  000E32                     l87:
  3287                           
  3288                           ; BSR set to: 0
  3289                           ;main2.c: 247: LATA = 0;
  3290                           
  3291                           ; BSR set to: 0
  3292  000E32  0E00               	movlw	0
  3293  000E34  6E89               	movwf	3977,c	;volatile
  3294                           
  3295                           ;main2.c: 248: LATD = 0;
  3296  000E36  0E00               	movlw	0
  3297  000E38  6E8C               	movwf	3980,c	;volatile
  3298                           
  3299                           ;main2.c: 249: delay = 1;
  3300  000E3A  0E00               	movlw	0
  3301  000E3C  6FF7               	movwf	(mode_tree@delay+1)& (0+255),b
  3302  000E3E  0E01               	movlw	1
  3303  000E40  6FF6               	movwf	mode_tree@delay& (0+255),b
  3304  000E42                     l2451:
  3305                           
  3306                           ; BSR set to: 0
  3307  000E42  07F6               	decf	mode_tree@delay& (0+255),f,b
  3308  000E44  A0D8               	btfss	status,0,c
  3309  000E46  07F7               	decf	(mode_tree@delay+1)& (0+255),f,b
  3310  000E48  29F6               	incf	mode_tree@delay& (0+255),w,b
  3311  000E4A  E1FB               	bnz	l2451
  3312  000E4C  29F7               	incf	(mode_tree@delay+1)& (0+255),w,b
  3313  000E4E  A4D8               	btfss	status,2,c
  3314  000E50  D7F8               	goto	l90
  3315  000E52                     u2490:
  3316                           
  3317                           ; BSR set to: 0
  3318                           ;main2.c: 251: }
  3319                           ;main2.c: 252: int bright = 30;
  3320                           
  3321                           ; BSR set to: 0
  3322                           
  3323                           ; BSR set to: 0
  3324  000E52  0E00               	movlw	0
  3325  000E54  6FAF               	movwf	(mode_tree@bright+1)& (0+255),b
  3326  000E56  0E1E               	movlw	30
  3327  000E58  6FAE               	movwf	mode_tree@bright& (0+255),b
  3328  000E5A                     l2455:
  3329                           
  3330                           ; BSR set to: 0
  3331  000E5A  07AE               	decf	mode_tree@bright& (0+255),f,b
  3332  000E5C  A0D8               	btfss	status,0,c
  3333  000E5E  07AF               	decf	(mode_tree@bright+1)& (0+255),f,b
  3334  000E60  29AE               	incf	mode_tree@bright& (0+255),w,b
  3335  000E62  E1FB               	bnz	l2455
  3336  000E64  29AF               	incf	(mode_tree@bright+1)& (0+255),w,b
  3337  000E66  A4D8               	btfss	status,2,c
  3338  000E68  D7F8               	goto	l93
  3339                           
  3340                           ; BSR set to: 0
  3341                           ;main2.c: 254: LATA = LATD = 0;
  3342                           
  3343                           ; BSR set to: 0
  3344  000E6A  0E00               	movlw	0
  3345  000E6C  6E8C               	movwf	3980,c	;volatile
  3346  000E6E  CF8C FF89          	movff	3980,3977	;volatile
  3347                           
  3348                           ;main2.c: 255: int dark = 30;
  3349  000E72  0E00               	movlw	0
  3350  000E74  6FB1               	movwf	(mode_tree@dark+1)& (0+255),b
  3351  000E76  0E1E               	movlw	30
  3352  000E78  6FB0               	movwf	mode_tree@dark& (0+255),b
  3353  000E7A                     l2459:
  3354                           
  3355                           ; BSR set to: 0
  3356  000E7A  07B0               	decf	mode_tree@dark& (0+255),f,b
  3357  000E7C  A0D8               	btfss	status,0,c
  3358  000E7E  07B1               	decf	(mode_tree@dark+1)& (0+255),f,b
  3359  000E80  29B0               	incf	mode_tree@dark& (0+255),w,b
  3360  000E82  E1FB               	bnz	l2459
  3361  000E84  29B1               	incf	(mode_tree@dark+1)& (0+255),w,b
  3362  000E86  A4D8               	btfss	status,2,c
  3363  000E88  D7F8               	goto	l96
  3364                           
  3365                           ; BSR set to: 0
  3366                           
  3367                           ; BSR set to: 0
  3368  000E8A  4BCC               	infsnz	mode_tree@i& (0+255),f,b
  3369  000E8C  2BCD               	incf	(mode_tree@i+1)& (0+255),f,b
  3370                           
  3371                           ; BSR set to: 0
  3372  000E8E  0E02               	movlw	2
  3373  000E90  27CA               	addwf	mode_tree@show& (0+255),f,b
  3374  000E92  0E00               	movlw	0
  3375  000E94  23CB               	addwfc	(mode_tree@show+1)& (0+255),f,b
  3376  000E96  D7A7               	goto	l2441
  3377  000E98                     u2520:
  3378  000E98                     l2467:
  3379                           
  3380                           ; BSR set to: 0
  3381                           ;main2.c: 257: }
  3382                           ;main2.c: 258: delay = 510;
  3383  000E98  0E01               	movlw	1
  3384  000E9A  6FF7               	movwf	(mode_tree@delay+1)& (0+255),b
  3385  000E9C  0EFE               	movlw	254
  3386  000E9E  6FF6               	movwf	mode_tree@delay& (0+255),b
  3387  000EA0                     l2469:
  3388                           
  3389                           ; BSR set to: 0
  3390  000EA0  07F6               	decf	mode_tree@delay& (0+255),f,b
  3391  000EA2  A0D8               	btfss	status,0,c
  3392  000EA4  07F7               	decf	(mode_tree@delay+1)& (0+255),f,b
  3393  000EA6  29F6               	incf	mode_tree@delay& (0+255),w,b
  3394  000EA8  E1FB               	bnz	l2469
  3395  000EAA  29F7               	incf	(mode_tree@delay+1)& (0+255),w,b
  3396  000EAC  A4D8               	btfss	status,2,c
  3397  000EAE  D7F8               	goto	l99
  3398                           
  3399                           ; BSR set to: 0
  3400                           
  3401                           ; BSR set to: 0
  3402  000EB0  4BC8               	infsnz	mode_tree@six_i& (0+255),f,b
  3403  000EB2  2BC9               	incf	(mode_tree@six_i+1)& (0+255),f,b
  3404                           
  3405                           ; BSR set to: 0
  3406  000EB4  0E02               	movlw	2
  3407  000EB6  27C4               	addwf	mode_tree@six_ptr& (0+255),f,b
  3408  000EB8  0E00               	movlw	0
  3409  000EBA  23C5               	addwfc	(mode_tree@six_ptr+1)& (0+255),f,b
  3410                           
  3411                           ; BSR set to: 0
  3412  000EBC  BFC9               	btfsc	(mode_tree@six_i+1)& (0+255),7,b
  3413  000EBE  D78B               	goto	l83
  3414  000EC0  51C9               	movf	(mode_tree@six_i+1)& (0+255),w,b
  3415  000EC2  E101               	bnz	l2477
  3416  000EC4  D784               	goto	L5
  3417  000EC6                     u2540:
  3418  000EC6                     l2477:
  3419                           
  3420                           ; BSR set to: 0
  3421  000EC6  07EE               	decf	mode_tree@cycle& (0+255),f,b
  3422  000EC8  A0D8               	btfss	status,0,c
  3423  000ECA  07EF               	decf	(mode_tree@cycle+1)& (0+255),f,b
  3424  000ECC  29EE               	incf	mode_tree@cycle& (0+255),w,b
  3425  000ECE  E102               	bnz	u2551
  3426  000ED0  29EF               	incf	(mode_tree@cycle+1)& (0+255),w,b
  3427  000ED2  A4D8               	btfss	status,2,c
  3428  000ED4                     u2551:
  3429  000ED4  D770               	goto	l82
  3430                           
  3431                           ; BSR set to: 0
  3432                           ;main2.c: 260: }
  3433                           ;main2.c: 261: }
  3434                           ;main2.c: 262: cycle = 15;
  3435                           
  3436                           ; BSR set to: 0
  3437  000ED6  0E00               	movlw	0
  3438  000ED8  6FEF               	movwf	(mode_tree@cycle+1)& (0+255),b
  3439  000EDA  0E0F               	movlw	15
  3440  000EDC  6FEE               	movwf	mode_tree@cycle& (0+255),b
  3441                           
  3442                           ;main2.c: 263: int move = 0;
  3443  000EDE  0E00               	movlw	0
  3444  000EE0  6FCF               	movwf	(mode_tree@move+1)& (0+255),b
  3445  000EE2  0E00               	movlw	0
  3446  000EE4  6FCE               	movwf	mode_tree@move& (0+255),b
  3447                           
  3448                           ;main2.c: 264: while(cycle--){
  3449  000EE6  D09D               	goto	u2660
  3450  000EE8                     
  3451                           ; BSR set to: 0
  3452                           ;main2.c: 265: int* six_ptr = (int*)six;
  3453                           
  3454                           ; BSR set to: 0
  3455  000EE8  0EE2               	movlw	low mode_tree@six
  3456  000EEA  6FC6               	movwf	mode_tree@six_ptr_395& (0+255),b
  3457  000EEC  0E00               	movlw	high mode_tree@six
  3458  000EEE  6FC7               	movwf	(mode_tree@six_ptr_395+1)& (0+255),b
  3459                           
  3460                           ; BSR set to: 0
  3461                           ;main2.c: 266: for(int six_i = 0; six_i < 6; ++six_i, ++six_ptr){
  3462  000EF0  0E00               	movlw	0
  3463  000EF2  6FF1               	movwf	(mode_tree@six_i_396+1)& (0+255),b
  3464  000EF4  0E00               	movlw	0
  3465  000EF6  6FF0               	movwf	mode_tree@six_i_396& (0+255),b
  3466                           
  3467                           ; BSR set to: 0
  3468  000EF8  BFF1               	btfsc	(mode_tree@six_i_396+1)& (0+255),7,b
  3469  000EFA  D008               	goto	l104
  3470  000EFC  51F1               	movf	(mode_tree@six_i_396+1)& (0+255),w,b
  3471  000EFE  E105               	bnz	u2560
  3472  000F00  0E06               	movlw	6
  3473  000F02  5DF0               	subwf	mode_tree@six_i_396& (0+255),w,b
  3474  000F04  B0D8               	btfsc	status,0,c
  3475  000F06  D08D               	goto	u2660
  3476  000F08  D001               	goto	l104
  3477  000F0A                     u2560:
  3478                           
  3479                           ; BSR set to: 0
  3480  000F0A  D08B               	goto	u2660
  3481  000F0C                     l104:
  3482                           
  3483                           ; BSR set to: 0
  3484                           ;main2.c: 267: int* show = (int*)tree;
  3485                           
  3486                           ; BSR set to: 0
  3487  000F0C  0E80               	movlw	low mode_tree@tree
  3488  000F0E  6FD0               	movwf	mode_tree@show_397& (0+255),b
  3489  000F10  0E00               	movlw	high mode_tree@tree
  3490  000F12  6FD1               	movwf	(mode_tree@show_397+1)& (0+255),b
  3491                           
  3492                           ; BSR set to: 0
  3493                           ;main2.c: 268: for(int i = 0; i < 21; ++i, ++show){
  3494  000F14  0E00               	movlw	0
  3495  000F16  6FD3               	movwf	(mode_tree@i_398+1)& (0+255),b
  3496  000F18  0E00               	movlw	0
  3497  000F1A  6FD2               	movwf	mode_tree@i_398& (0+255),b
  3498  000F1C                     l2493:
  3499                           
  3500                           ; BSR set to: 0
  3501  000F1C  BFD3               	btfsc	(mode_tree@i_398+1)& (0+255),7,b
  3502  000F1E  D006               	goto	l106
  3503  000F20  51D3               	movf	(mode_tree@i_398+1)& (0+255),w,b
  3504  000F22  E155               	bnz	l2519
  3505  000F24  0E15               	movlw	21
  3506  000F26  5DD2               	subwf	mode_tree@i_398& (0+255),w,b
  3507  000F28  B0D8               	btfsc	status,0,c
  3508  000F2A  D051               	goto	u2620
  3509  000F2C                     l106:
  3510                           
  3511                           ; BSR set to: 0
  3512                           ;main2.c: 269: if(*six_ptr){
  3513                           
  3514                           ; BSR set to: 0
  3515  000F2C  C0C6  FFD9         	movff	mode_tree@six_ptr_395,fsr2l
  3516  000F30  C0C7  FFDA         	movff	mode_tree@six_ptr_395+1,fsr2h
  3517  000F34  50DE               	movf	postinc2,w,c
  3518  000F36  10DE               	iorwf	postinc2,w,c
  3519  000F38  B4D8               	btfsc	status,2,c
  3520  000F3A  D016               	goto	l108
  3521                           
  3522                           ; BSR set to: 0
  3523                           ;main2.c: 270: LATA = *show;
  3524  000F3C  C0D0  FFD9         	movff	mode_tree@show_397,fsr2l
  3525  000F40  C0D1  FFDA         	movff	mode_tree@show_397+1,fsr2h
  3526  000F44  50DF               	movf	indf2,w,c
  3527  000F46  6E89               	movwf	3977,c	;volatile
  3528                           
  3529                           ;main2.c: 271: LATD = *show >> 8;
  3530  000F48  C0D0  FFD9         	movff	mode_tree@show_397,fsr2l
  3531  000F4C  C0D1  FFDA         	movff	mode_tree@show_397+1,fsr2h
  3532  000F50  CFDE F031          	movff	postinc2,??_mode_tree
  3533  000F54  CFDD F032          	movff	postdec2,??_mode_tree+1
  3534  000F58  C032  F031         	movff	??_mode_tree+1,??_mode_tree
  3535  000F5C  6A32               	clrf	??_mode_tree+1,c
  3536  000F5E  BE31               	btfsc	??_mode_tree,7,c
  3537  000F60  6832               	setf	??_mode_tree+1,c
  3538  000F62  5031               	movf	??_mode_tree,w,c
  3539  000F64  6E8C               	movwf	3980,c	;volatile
  3540                           
  3541                           ;main2.c: 272: }else{
  3542  000F66  D010               	goto	u2590
  3543  000F68                     l108:
  3544                           
  3545                           ; BSR set to: 0
  3546                           ;main2.c: 273: LATA = 0;
  3547                           
  3548                           ; BSR set to: 0
  3549  000F68  0E00               	movlw	0
  3550  000F6A  6E89               	movwf	3977,c	;volatile
  3551                           
  3552                           ;main2.c: 274: LATD = 0;
  3553  000F6C  0E00               	movlw	0
  3554  000F6E  6E8C               	movwf	3980,c	;volatile
  3555                           
  3556                           ;main2.c: 275: int wait = 1;
  3557  000F70  0E00               	movlw	0
  3558  000F72  6FB3               	movwf	(mode_tree@wait+1)& (0+255),b
  3559  000F74  0E01               	movlw	1
  3560  000F76  6FB2               	movwf	mode_tree@wait& (0+255),b
  3561  000F78                     l2503:
  3562                           
  3563                           ; BSR set to: 0
  3564  000F78  07B2               	decf	mode_tree@wait& (0+255),f,b
  3565  000F7A  A0D8               	btfss	status,0,c
  3566  000F7C  07B3               	decf	(mode_tree@wait+1)& (0+255),f,b
  3567  000F7E  29B2               	incf	mode_tree@wait& (0+255),w,b
  3568  000F80  E1FB               	bnz	l2503
  3569  000F82  29B3               	incf	(mode_tree@wait+1)& (0+255),w,b
  3570  000F84  A4D8               	btfss	status,2,c
  3571  000F86  D7F8               	goto	l111
  3572  000F88                     u2590:
  3573                           
  3574                           ; BSR set to: 0
  3575                           ;main2.c: 277: }
  3576                           ;main2.c: 278: int bright = 30;
  3577                           
  3578                           ; BSR set to: 0
  3579                           
  3580                           ; BSR set to: 0
  3581  000F88  0E00               	movlw	0
  3582  000F8A  6FB5               	movwf	(mode_tree@bright_400+1)& (0+255),b
  3583  000F8C  0E1E               	movlw	30
  3584  000F8E  6FB4               	movwf	mode_tree@bright_400& (0+255),b
  3585  000F90                     l2507:
  3586                           
  3587                           ; BSR set to: 0
  3588  000F90  07B4               	decf	mode_tree@bright_400& (0+255),f,b
  3589  000F92  A0D8               	btfss	status,0,c
  3590  000F94  07B5               	decf	(mode_tree@bright_400+1)& (0+255),f,b
  3591  000F96  29B4               	incf	mode_tree@bright_400& (0+255),w,b
  3592  000F98  E1FB               	bnz	l2507
  3593  000F9A  29B5               	incf	(mode_tree@bright_400+1)& (0+255),w,b
  3594  000F9C  A4D8               	btfss	status,2,c
  3595  000F9E  D7F8               	goto	l114
  3596                           
  3597                           ; BSR set to: 0
  3598                           ;main2.c: 280: LATA = LATD = 0;
  3599                           
  3600                           ; BSR set to: 0
  3601  000FA0  0E00               	movlw	0
  3602  000FA2  6E8C               	movwf	3980,c	;volatile
  3603  000FA4  CF8C FF89          	movff	3980,3977	;volatile
  3604                           
  3605                           ;main2.c: 281: int dark = 30;
  3606  000FA8  0E00               	movlw	0
  3607  000FAA  6FB7               	movwf	(mode_tree@dark_401+1)& (0+255),b
  3608  000FAC  0E1E               	movlw	30
  3609  000FAE  6FB6               	movwf	mode_tree@dark_401& (0+255),b
  3610  000FB0                     l2511:
  3611                           
  3612                           ; BSR set to: 0
  3613  000FB0  07B6               	decf	mode_tree@dark_401& (0+255),f,b
  3614  000FB2  A0D8               	btfss	status,0,c
  3615  000FB4  07B7               	decf	(mode_tree@dark_401+1)& (0+255),f,b
  3616  000FB6  29B6               	incf	mode_tree@dark_401& (0+255),w,b
  3617  000FB8  E1FB               	bnz	l2511
  3618  000FBA  29B7               	incf	(mode_tree@dark_401+1)& (0+255),w,b
  3619  000FBC  A4D8               	btfss	status,2,c
  3620  000FBE  D7F8               	goto	l117
  3621                           
  3622                           ; BSR set to: 0
  3623                           
  3624                           ; BSR set to: 0
  3625  000FC0  4BD2               	infsnz	mode_tree@i_398& (0+255),f,b
  3626  000FC2  2BD3               	incf	(mode_tree@i_398+1)& (0+255),f,b
  3627                           
  3628                           ; BSR set to: 0
  3629  000FC4  0E02               	movlw	2
  3630  000FC6  27D0               	addwf	mode_tree@show_397& (0+255),f,b
  3631  000FC8  0E00               	movlw	0
  3632  000FCA  23D1               	addwfc	(mode_tree@show_397+1)& (0+255),f,b
  3633  000FCC  D7A7               	goto	l2493
  3634  000FCE                     u2620:
  3635  000FCE                     l2519:
  3636                           
  3637                           ; BSR set to: 0
  3638                           ;main2.c: 283: }
  3639                           ;main2.c: 284: delay = 510;
  3640  000FCE  0E01               	movlw	1
  3641  000FD0  6FF7               	movwf	(mode_tree@delay+1)& (0+255),b
  3642  000FD2  0EFE               	movlw	254
  3643  000FD4  6FF6               	movwf	mode_tree@delay& (0+255),b
  3644                           
  3645                           ; BSR set to: 0
  3646                           ;main2.c: 285: if(six_i == 0){
  3647  000FD6  51F0               	movf	mode_tree@six_i_396& (0+255),w,b
  3648  000FD8  11F1               	iorwf	(mode_tree@six_i_396+1)& (0+255),w,b
  3649  000FDA  A4D8               	btfss	status,2,c
  3650  000FDC  D00F               	goto	l119
  3651                           
  3652                           ; BSR set to: 0
  3653                           ;main2.c: 286: if(cycle & 1)
  3654  000FDE  A1EE               	btfss	mode_tree@cycle& (0+255),0,b
  3655  000FE0  D005               	goto	l120
  3656                           
  3657                           ; BSR set to: 0
  3658                           ;main2.c: 287: delay += move;
  3659  000FE2  51CE               	movf	mode_tree@move& (0+255),w,b
  3660  000FE4  27F6               	addwf	mode_tree@delay& (0+255),f,b
  3661  000FE6  51CF               	movf	(mode_tree@move+1)& (0+255),w,b
  3662  000FE8  23F7               	addwfc	(mode_tree@delay+1)& (0+255),f,b
  3663  000FEA  D004               	goto	l121
  3664  000FEC                     l120:
  3665                           
  3666                           ; BSR set to: 0
  3667                           ;main2.c: 288: else
  3668                           ;main2.c: 289: delay -= move;
  3669                           
  3670                           ; BSR set to: 0
  3671  000FEC  51CE               	movf	mode_tree@move& (0+255),w,b
  3672  000FEE  5FF6               	subwf	mode_tree@delay& (0+255),f,b
  3673  000FF0  51CF               	movf	(mode_tree@move+1)& (0+255),w,b
  3674  000FF2  5BF7               	subwfb	(mode_tree@delay+1)& (0+255),f,b
  3675  000FF4                     l121:
  3676                           
  3677                           ; BSR set to: 0
  3678                           ;main2.c: 290: move += 33;
  3679  000FF4  0E21               	movlw	33
  3680  000FF6  27CE               	addwf	mode_tree@move& (0+255),f,b
  3681  000FF8  0E00               	movlw	0
  3682  000FFA  23CF               	addwfc	(mode_tree@move+1)& (0+255),f,b
  3683  000FFC                     l119:
  3684  000FFC                     l2529:
  3685                           
  3686                           ; BSR set to: 0
  3687  000FFC  07F6               	decf	mode_tree@delay& (0+255),f,b
  3688  000FFE  A0D8               	btfss	status,0,c
  3689  001000  07F7               	decf	(mode_tree@delay+1)& (0+255),f,b
  3690  001002  29F6               	incf	mode_tree@delay& (0+255),w,b
  3691  001004  E1FB               	bnz	l2529
  3692  001006  29F7               	incf	(mode_tree@delay+1)& (0+255),w,b
  3693  001008  A4D8               	btfss	status,2,c
  3694  00100A  D7F8               	goto	l119
  3695                           
  3696                           ; BSR set to: 0
  3697                           
  3698                           ; BSR set to: 0
  3699  00100C  4BF0               	infsnz	mode_tree@six_i_396& (0+255),f,b
  3700  00100E  2BF1               	incf	(mode_tree@six_i_396+1)& (0+255),f,b
  3701                           
  3702                           ; BSR set to: 0
  3703  001010  0E02               	movlw	2
  3704  001012  27C6               	addwf	mode_tree@six_ptr_395& (0+255),f,b
  3705  001014  0E00               	movlw	0
  3706  001016  23C7               	addwfc	(mode_tree@six_ptr_395+1)& (0+255),f,b
  3707                           
  3708                           ; BSR set to: 0
  3709  001018  BFF1               	btfsc	(mode_tree@six_i_396+1)& (0+255),7,b
  3710  00101A  D778               	goto	l104
  3711  00101C  51F1               	movf	(mode_tree@six_i_396+1)& (0+255),w,b
  3712  00101E  E101               	bnz	l2537
  3713  001020  D76F               	goto	L6
  3714  001022                     u2660:
  3715  001022                     l2537:
  3716                           
  3717                           ; BSR set to: 0
  3718  001022  07EE               	decf	mode_tree@cycle& (0+255),f,b
  3719  001024  A0D8               	btfss	status,0,c
  3720  001026  07EF               	decf	(mode_tree@cycle+1)& (0+255),f,b
  3721  001028  29EE               	incf	mode_tree@cycle& (0+255),w,b
  3722  00102A  E103               	bnz	u2671
  3723  00102C  29EF               	incf	(mode_tree@cycle+1)& (0+255),w,b
  3724  00102E  B4D8               	btfsc	status,2,c
  3725  001030  D02B               	goto	l126
  3726  001032                     u2671:
  3727  001032  D75A               	goto	l103
  3728  001034                     
  3729                           ; BSR set to: 0
  3730                           ;main2.c: 297: six[0] = 0;
  3731                           
  3732                           ; BSR set to: 0
  3733  001034  0E00               	movlw	0
  3734  001036  6FE3               	movwf	(mode_tree@six+1)& (0+255),b
  3735  001038  0E00               	movlw	0
  3736  00103A  6FE2               	movwf	mode_tree@six& (0+255),b
  3737                           
  3738                           ;main2.c: 298: six[1] = six[5] = 1;
  3739  00103C  0E00               	movlw	0
  3740  00103E  6FED               	movwf	(mode_tree@six+11)& (0+255),b
  3741  001040  0E01               	movlw	1
  3742  001042  D00F               	goto	L7
  3743  001044                     
  3744                           ; BSR set to: 0
  3745                           ;main2.c: 301: six[0] = six[2] = six[4] = 1;
  3746                           
  3747                           ; BSR set to: 0
  3748  001044  0E00               	movlw	0
  3749  001046  6FEB               	movwf	(mode_tree@six+9)& (0+255),b
  3750  001048  0E01               	movlw	1
  3751  00104A  6FEA               	movwf	(mode_tree@six+8)& (0+255),b
  3752  00104C  C0EA  F0E6         	movff	mode_tree@six+8,mode_tree@six+4
  3753  001050  C0EB  F0E7         	movff	mode_tree@six+9,mode_tree@six+5
  3754  001054  C0E6  F0E2         	movff	mode_tree@six+4,mode_tree@six
  3755  001058  C0E7  F0E3         	movff	mode_tree@six+5,mode_tree@six+1
  3756                           
  3757                           ;main2.c: 302: six[1] = six[5] = 0;
  3758  00105C  0E00               	movlw	0
  3759  00105E  6FED               	movwf	(mode_tree@six+11)& (0+255),b
  3760  001060  0E00               	movlw	0
  3761  001062                     L7:
  3762  001062  6FEC               	movwf	(mode_tree@six+10)& (0+255),b
  3763  001064  C0EC  F0E4         	movff	mode_tree@six+10,mode_tree@six+2
  3764  001068  C0ED  F0E5         	movff	mode_tree@six+11,mode_tree@six+3
  3765                           
  3766                           ;main2.c: 303: break;
  3767  00106C  D021               	goto	l128
  3768  00106E                     
  3769                           ; BSR set to: 0
  3770                           ;main2.c: 305: six[1] = six[3] = six[5] = 1;
  3771                           
  3772                           ; BSR set to: 0
  3773  00106E  0E00               	movlw	0
  3774  001070  6FED               	movwf	(mode_tree@six+11)& (0+255),b
  3775  001072  0E01               	movlw	1
  3776  001074  6FEC               	movwf	(mode_tree@six+10)& (0+255),b
  3777  001076  C0EC  F0E8         	movff	mode_tree@six+10,mode_tree@six+6
  3778  00107A  C0ED  F0E9         	movff	mode_tree@six+11,mode_tree@six+7
  3779  00107E  C0E8  F0E4         	movff	mode_tree@six+6,mode_tree@six+2
  3780  001082  C0E9  F0E5         	movff	mode_tree@six+7,mode_tree@six+3
  3781                           
  3782                           ; BSR set to: 0
  3783                           ;main2.c: 307: }
  3784                           
  3785                           ;main2.c: 306: break;
  3786  001086  D014               	goto	l128
  3787  001088                     l126:
  3788                           
  3789                           ; BSR set to: 0
  3790                           
  3791                           ; BSR set to: 0
  3792  001088  4BAC               	infsnz	mode_tree@state& (0+255),f,b
  3793  00108A  2BAD               	incf	(mode_tree@state+1)& (0+255),f,b
  3794  00108C  C0AC  F031         	movff	mode_tree@state,??_mode_tree
  3795  001090  C0AD  F032         	movff	mode_tree@state+1,??_mode_tree+1
  3796                           
  3797                           ; Switch on 2 bytes has been partitioned into a top level switch of size 1, and 1 sub-sw
      +                          itches
  3798                           ; Switch size 1, requested type "space"
  3799                           ; Number of cases is 1, Range of values is 0 to 0
  3800                           ; switch strategies available:
  3801                           ; Name         Instructions Cycles
  3802                           ; simple_byte            4     3 (average)
  3803                           ;	Chosen strategy is simple_byte
  3804  001094  5032               	movf	??_mode_tree+1,w,c
  3805  001096  0A00               	xorlw	0	; case 0
  3806  001098  A4D8               	btfss	status,2,c
  3807  00109A  D00A               	goto	l128
  3808                           
  3809                           ; BSR set to: 0
  3810                           ; Switch size 1, requested type "space"
  3811                           ; Number of cases is 3, Range of values is 1 to 3
  3812                           ; switch strategies available:
  3813                           ; Name         Instructions Cycles
  3814                           ; simple_byte           10     6 (average)
  3815                           ;	Chosen strategy is simple_byte
  3816  00109C  5031               	movf	??_mode_tree,w,c
  3817  00109E  0A01               	xorlw	1	; case 1
  3818  0010A0  B4D8               	btfsc	status,2,c
  3819  0010A2  D7C8               	goto	l127
  3820  0010A4  0A03               	xorlw	3	; case 2
  3821  0010A6  B4D8               	btfsc	status,2,c
  3822  0010A8  D7CD               	goto	l129
  3823  0010AA  0A01               	xorlw	1	; case 3
  3824  0010AC  B4D8               	btfsc	status,2,c
  3825  0010AE  D7DF               	goto	l130
  3826  0010B0                     l128:
  3827                           
  3828                           ; BSR set to: 0
  3829                           
  3830                           ; BSR set to: 0
  3831                           
  3832                           ; BSR set to: 0
  3833  0010B0  07AA               	decf	mode_tree@count_4& (0+255),f,b
  3834  0010B2  A0D8               	btfss	status,0,c
  3835  0010B4  07AB               	decf	(mode_tree@count_4+1)& (0+255),f,b
  3836  0010B6  29AA               	incf	mode_tree@count_4& (0+255),w,b
  3837  0010B8  E102               	bnz	u2681
  3838  0010BA  29AB               	incf	(mode_tree@count_4+1)& (0+255),w,b
  3839  0010BC  A4D8               	btfss	status,2,c
  3840  0010BE                     u2681:
  3841  0010BE  D676               	goto	l80
  3842                           
  3843                           ; BSR set to: 0
  3844                           ;main2.c: 308: }
  3845                           ;main2.c: 309: int count = 15;
  3846                           
  3847                           ; BSR set to: 0
  3848  0010C0  0E00               	movlw	0
  3849  0010C2  6FF5               	movwf	(mode_tree@count+1)& (0+255),b
  3850  0010C4  0E0F               	movlw	15
  3851  0010C6  6FF4               	movwf	mode_tree@count& (0+255),b
  3852                           
  3853                           ;main2.c: 310: while(count--){
  3854  0010C8  D054               	goto	u2730
  3855  0010CA                     l2553:
  3856                           
  3857                           ; BSR set to: 0
  3858                           ;main2.c: 311: int* show = (int*)tree;
  3859  0010CA  0E80               	movlw	low mode_tree@tree
  3860  0010CC  6FD4               	movwf	mode_tree@show_403& (0+255),b
  3861  0010CE  0E00               	movlw	high mode_tree@tree
  3862  0010D0  6FD5               	movwf	(mode_tree@show_403+1)& (0+255),b
  3863                           
  3864                           ; BSR set to: 0
  3865                           ;main2.c: 312: for(int i = 0; i < 21; ++i, ++show){
  3866  0010D2  0E00               	movlw	0
  3867  0010D4  6FD7               	movwf	(mode_tree@i_404+1)& (0+255),b
  3868  0010D6  0E00               	movlw	0
  3869  0010D8  6FD6               	movwf	mode_tree@i_404& (0+255),b
  3870  0010DA                     l2557:
  3871                           
  3872                           ; BSR set to: 0
  3873  0010DA  BFD7               	btfsc	(mode_tree@i_404+1)& (0+255),7,b
  3874  0010DC  D006               	goto	l134
  3875  0010DE  51D7               	movf	(mode_tree@i_404+1)& (0+255),w,b
  3876  0010E0  E13C               	bnz	l2577
  3877  0010E2  0E15               	movlw	21
  3878  0010E4  5DD6               	subwf	mode_tree@i_404& (0+255),w,b
  3879  0010E6  B0D8               	btfsc	status,0,c
  3880  0010E8  D038               	goto	u2720
  3881  0010EA                     l134:
  3882                           
  3883                           ; BSR set to: 0
  3884                           ;main2.c: 313: LATA = *show;
  3885                           
  3886                           ; BSR set to: 0
  3887  0010EA  C0D4  FFD9         	movff	mode_tree@show_403,fsr2l
  3888  0010EE  C0D5  FFDA         	movff	mode_tree@show_403+1,fsr2h
  3889  0010F2  50DF               	movf	indf2,w,c
  3890  0010F4  6E89               	movwf	3977,c	;volatile
  3891                           
  3892                           ;main2.c: 314: LATD = *show >> 8;
  3893  0010F6  C0D4  FFD9         	movff	mode_tree@show_403,fsr2l
  3894  0010FA  C0D5  FFDA         	movff	mode_tree@show_403+1,fsr2h
  3895  0010FE  CFDE F031          	movff	postinc2,??_mode_tree
  3896  001102  CFDD F032          	movff	postdec2,??_mode_tree+1
  3897  001106  C032  F031         	movff	??_mode_tree+1,??_mode_tree
  3898  00110A  6A32               	clrf	??_mode_tree+1,c
  3899  00110C  BE31               	btfsc	??_mode_tree,7,c
  3900  00110E  6832               	setf	??_mode_tree+1,c
  3901  001110  5031               	movf	??_mode_tree,w,c
  3902  001112  6E8C               	movwf	3980,c	;volatile
  3903                           
  3904                           ; BSR set to: 0
  3905                           ;main2.c: 315: int bright = 30;
  3906  001114  0E00               	movlw	0
  3907  001116  6FB9               	movwf	(mode_tree@bright_405+1)& (0+255),b
  3908  001118  0E1E               	movlw	30
  3909  00111A  6FB8               	movwf	mode_tree@bright_405& (0+255),b
  3910  00111C                     l2565:
  3911                           
  3912                           ; BSR set to: 0
  3913  00111C  07B8               	decf	mode_tree@bright_405& (0+255),f,b
  3914  00111E  A0D8               	btfss	status,0,c
  3915  001120  07B9               	decf	(mode_tree@bright_405+1)& (0+255),f,b
  3916  001122  29B8               	incf	mode_tree@bright_405& (0+255),w,b
  3917  001124  E1FB               	bnz	l2565
  3918  001126  29B9               	incf	(mode_tree@bright_405+1)& (0+255),w,b
  3919  001128  A4D8               	btfss	status,2,c
  3920  00112A  D7F8               	goto	l137
  3921                           
  3922                           ; BSR set to: 0
  3923                           ;main2.c: 317: LATA = LATD = 0;
  3924                           
  3925                           ; BSR set to: 0
  3926  00112C  0E00               	movlw	0
  3927  00112E  6E8C               	movwf	3980,c	;volatile
  3928  001130  CF8C FF89          	movff	3980,3977	;volatile
  3929                           
  3930                           ;main2.c: 318: int dark = 30;
  3931  001134  0E00               	movlw	0
  3932  001136  6FBB               	movwf	(mode_tree@dark_406+1)& (0+255),b
  3933  001138  0E1E               	movlw	30
  3934  00113A  6FBA               	movwf	mode_tree@dark_406& (0+255),b
  3935  00113C                     l2569:
  3936                           
  3937                           ; BSR set to: 0
  3938  00113C  07BA               	decf	mode_tree@dark_406& (0+255),f,b
  3939  00113E  A0D8               	btfss	status,0,c
  3940  001140  07BB               	decf	(mode_tree@dark_406+1)& (0+255),f,b
  3941  001142  29BA               	incf	mode_tree@dark_406& (0+255),w,b
  3942  001144  E1FB               	bnz	l2569
  3943  001146  29BB               	incf	(mode_tree@dark_406+1)& (0+255),w,b
  3944  001148  A4D8               	btfss	status,2,c
  3945  00114A  D7F8               	goto	l140
  3946                           
  3947                           ; BSR set to: 0
  3948                           
  3949                           ; BSR set to: 0
  3950  00114C  4BD6               	infsnz	mode_tree@i_404& (0+255),f,b
  3951  00114E  2BD7               	incf	(mode_tree@i_404+1)& (0+255),f,b
  3952                           
  3953                           ; BSR set to: 0
  3954  001150  0E02               	movlw	2
  3955  001152  27D4               	addwf	mode_tree@show_403& (0+255),f,b
  3956  001154  0E00               	movlw	0
  3957  001156  23D5               	addwfc	(mode_tree@show_403+1)& (0+255),f,b
  3958  001158  D7C0               	goto	l2557
  3959  00115A                     u2720:
  3960  00115A                     l2577:
  3961                           
  3962                           ; BSR set to: 0
  3963                           ;main2.c: 320: }
  3964                           ;main2.c: 321: delay = 15500;
  3965  00115A  0E3C               	movlw	60
  3966  00115C  6FF7               	movwf	(mode_tree@delay+1)& (0+255),b
  3967  00115E  0E8C               	movlw	140
  3968  001160  6FF6               	movwf	mode_tree@delay& (0+255),b
  3969  001162                     l2579:
  3970                           
  3971                           ; BSR set to: 0
  3972  001162  07F6               	decf	mode_tree@delay& (0+255),f,b
  3973  001164  A0D8               	btfss	status,0,c
  3974  001166  07F7               	decf	(mode_tree@delay+1)& (0+255),f,b
  3975  001168  29F6               	incf	mode_tree@delay& (0+255),w,b
  3976  00116A  E1FB               	bnz	l2579
  3977  00116C  29F7               	incf	(mode_tree@delay+1)& (0+255),w,b
  3978  00116E  A4D8               	btfss	status,2,c
  3979  001170  D7F8               	goto	l143
  3980  001172                     u2730:
  3981                           
  3982                           ; BSR set to: 0
  3983                           
  3984                           ; BSR set to: 0
  3985                           
  3986                           ; BSR set to: 0
  3987  001172  07F4               	decf	mode_tree@count& (0+255),f,b
  3988  001174  A0D8               	btfss	status,0,c
  3989  001176  07F5               	decf	(mode_tree@count+1)& (0+255),f,b
  3990  001178  29F4               	incf	mode_tree@count& (0+255),w,b
  3991  00117A  E1A7               	bnz	l2553
  3992  00117C  29F5               	incf	(mode_tree@count+1)& (0+255),w,b
  3993  00117E  A4D8               	btfss	status,2,c
  3994  001180  D7A4               	goto	l133
  3995                           
  3996                           ; BSR set to: 0
  3997                           ;main2.c: 323: }
  3998                           ;main2.c: 324: count = 20;
  3999                           
  4000                           ; BSR set to: 0
  4001  001182  0E00               	movlw	0
  4002  001184  6FF5               	movwf	(mode_tree@count+1)& (0+255),b
  4003  001186  0E14               	movlw	20
  4004  001188  6FF4               	movwf	mode_tree@count& (0+255),b
  4005                           
  4006                           ;main2.c: 325: while(count--){
  4007  00118A  D054               	goto	u2790
  4008  00118C                     l2585:
  4009                           
  4010                           ; BSR set to: 0
  4011                           ;main2.c: 326: int* show = (int*)tree;
  4012  00118C  0E80               	movlw	low mode_tree@tree
  4013  00118E  6FD8               	movwf	mode_tree@show_407& (0+255),b
  4014  001190  0E00               	movlw	high mode_tree@tree
  4015  001192  6FD9               	movwf	(mode_tree@show_407+1)& (0+255),b
  4016                           
  4017                           ; BSR set to: 0
  4018                           ;main2.c: 327: for(int i = 0; i < 21; ++i, ++show){
  4019  001194  0E00               	movlw	0
  4020  001196  6FDB               	movwf	(mode_tree@i_408+1)& (0+255),b
  4021  001198  0E00               	movlw	0
  4022  00119A  6FDA               	movwf	mode_tree@i_408& (0+255),b
  4023  00119C                     l2589:
  4024                           
  4025                           ; BSR set to: 0
  4026  00119C  BFDB               	btfsc	(mode_tree@i_408+1)& (0+255),7,b
  4027  00119E  D006               	goto	l148
  4028  0011A0  51DB               	movf	(mode_tree@i_408+1)& (0+255),w,b
  4029  0011A2  E13C               	bnz	l2609
  4030  0011A4  0E15               	movlw	21
  4031  0011A6  5DDA               	subwf	mode_tree@i_408& (0+255),w,b
  4032  0011A8  B0D8               	btfsc	status,0,c
  4033  0011AA  D038               	goto	u2780
  4034  0011AC                     l148:
  4035                           
  4036                           ; BSR set to: 0
  4037                           ;main2.c: 328: LATA = *show;
  4038                           
  4039                           ; BSR set to: 0
  4040  0011AC  C0D8  FFD9         	movff	mode_tree@show_407,fsr2l
  4041  0011B0  C0D9  FFDA         	movff	mode_tree@show_407+1,fsr2h
  4042  0011B4  50DF               	movf	indf2,w,c
  4043  0011B6  6E89               	movwf	3977,c	;volatile
  4044                           
  4045                           ;main2.c: 329: LATD = *show >> 8;
  4046  0011B8  C0D8  FFD9         	movff	mode_tree@show_407,fsr2l
  4047  0011BC  C0D9  FFDA         	movff	mode_tree@show_407+1,fsr2h
  4048  0011C0  CFDE F031          	movff	postinc2,??_mode_tree
  4049  0011C4  CFDD F032          	movff	postdec2,??_mode_tree+1
  4050  0011C8  C032  F031         	movff	??_mode_tree+1,??_mode_tree
  4051  0011CC  6A32               	clrf	??_mode_tree+1,c
  4052  0011CE  BE31               	btfsc	??_mode_tree,7,c
  4053  0011D0  6832               	setf	??_mode_tree+1,c
  4054  0011D2  5031               	movf	??_mode_tree,w,c
  4055  0011D4  6E8C               	movwf	3980,c	;volatile
  4056                           
  4057                           ; BSR set to: 0
  4058                           ;main2.c: 330: int bright = 30;
  4059  0011D6  0E00               	movlw	0
  4060  0011D8  6FBD               	movwf	(mode_tree@bright_409+1)& (0+255),b
  4061  0011DA  0E1E               	movlw	30
  4062  0011DC  6FBC               	movwf	mode_tree@bright_409& (0+255),b
  4063  0011DE                     l2597:
  4064                           
  4065                           ; BSR set to: 0
  4066  0011DE  07BC               	decf	mode_tree@bright_409& (0+255),f,b
  4067  0011E0  A0D8               	btfss	status,0,c
  4068  0011E2  07BD               	decf	(mode_tree@bright_409+1)& (0+255),f,b
  4069  0011E4  29BC               	incf	mode_tree@bright_409& (0+255),w,b
  4070  0011E6  E1FB               	bnz	l2597
  4071  0011E8  29BD               	incf	(mode_tree@bright_409+1)& (0+255),w,b
  4072  0011EA  A4D8               	btfss	status,2,c
  4073  0011EC  D7F8               	goto	l151
  4074                           
  4075                           ; BSR set to: 0
  4076                           ;main2.c: 332: LATA = LATD = 0;
  4077                           
  4078                           ; BSR set to: 0
  4079  0011EE  0E00               	movlw	0
  4080  0011F0  6E8C               	movwf	3980,c	;volatile
  4081  0011F2  CF8C FF89          	movff	3980,3977	;volatile
  4082                           
  4083                           ;main2.c: 333: int dark = 30;
  4084  0011F6  0E00               	movlw	0
  4085  0011F8  6FBF               	movwf	(mode_tree@dark_410+1)& (0+255),b
  4086  0011FA  0E1E               	movlw	30
  4087  0011FC  6FBE               	movwf	mode_tree@dark_410& (0+255),b
  4088  0011FE                     l2601:
  4089                           
  4090                           ; BSR set to: 0
  4091  0011FE  07BE               	decf	mode_tree@dark_410& (0+255),f,b
  4092  001200  A0D8               	btfss	status,0,c
  4093  001202  07BF               	decf	(mode_tree@dark_410+1)& (0+255),f,b
  4094  001204  29BE               	incf	mode_tree@dark_410& (0+255),w,b
  4095  001206  E1FB               	bnz	l2601
  4096  001208  29BF               	incf	(mode_tree@dark_410+1)& (0+255),w,b
  4097  00120A  A4D8               	btfss	status,2,c
  4098  00120C  D7F8               	goto	l154
  4099                           
  4100                           ; BSR set to: 0
  4101                           
  4102                           ; BSR set to: 0
  4103  00120E  4BDA               	infsnz	mode_tree@i_408& (0+255),f,b
  4104  001210  2BDB               	incf	(mode_tree@i_408+1)& (0+255),f,b
  4105                           
  4106                           ; BSR set to: 0
  4107  001212  0E02               	movlw	2
  4108  001214  27D8               	addwf	mode_tree@show_407& (0+255),f,b
  4109  001216  0E00               	movlw	0
  4110  001218  23D9               	addwfc	(mode_tree@show_407+1)& (0+255),f,b
  4111  00121A  D7C0               	goto	l2589
  4112  00121C                     u2780:
  4113  00121C                     l2609:
  4114                           
  4115                           ; BSR set to: 0
  4116                           ;main2.c: 335: }
  4117                           ;main2.c: 336: delay = 10000;
  4118  00121C  0E27               	movlw	39
  4119  00121E  6FF7               	movwf	(mode_tree@delay+1)& (0+255),b
  4120  001220  0E10               	movlw	16
  4121  001222  6FF6               	movwf	mode_tree@delay& (0+255),b
  4122  001224                     l2611:
  4123                           
  4124                           ; BSR set to: 0
  4125  001224  07F6               	decf	mode_tree@delay& (0+255),f,b
  4126  001226  A0D8               	btfss	status,0,c
  4127  001228  07F7               	decf	(mode_tree@delay+1)& (0+255),f,b
  4128  00122A  29F6               	incf	mode_tree@delay& (0+255),w,b
  4129  00122C  E1FB               	bnz	l2611
  4130  00122E  29F7               	incf	(mode_tree@delay+1)& (0+255),w,b
  4131  001230  A4D8               	btfss	status,2,c
  4132  001232  D7F8               	goto	l157
  4133  001234                     u2790:
  4134                           
  4135                           ; BSR set to: 0
  4136                           
  4137                           ; BSR set to: 0
  4138                           
  4139                           ; BSR set to: 0
  4140  001234  07F4               	decf	mode_tree@count& (0+255),f,b
  4141  001236  A0D8               	btfss	status,0,c
  4142  001238  07F5               	decf	(mode_tree@count+1)& (0+255),f,b
  4143  00123A  29F4               	incf	mode_tree@count& (0+255),w,b
  4144  00123C  E1A7               	bnz	l2585
  4145  00123E  29F5               	incf	(mode_tree@count+1)& (0+255),w,b
  4146  001240  A4D8               	btfss	status,2,c
  4147  001242  D7A4               	goto	l147
  4148                           
  4149                           ; BSR set to: 0
  4150                           ;main2.c: 338: }
  4151                           ;main2.c: 339: count = 40;
  4152                           
  4153                           ; BSR set to: 0
  4154  001244  0E00               	movlw	0
  4155  001246  6FF5               	movwf	(mode_tree@count+1)& (0+255),b
  4156  001248  0E28               	movlw	40
  4157  00124A  6FF4               	movwf	mode_tree@count& (0+255),b
  4158                           
  4159                           ;main2.c: 340: int interval = 0;
  4160  00124C  0E00               	movlw	0
  4161  00124E  6FF3               	movwf	(mode_tree@interval+1)& (0+255),b
  4162  001250  0E00               	movlw	0
  4163  001252  6FF2               	movwf	mode_tree@interval& (0+255),b
  4164                           
  4165                           ;main2.c: 341: while(count--){
  4166  001254  D071               	goto	u2880
  4167  001256                     
  4168                           ; BSR set to: 0
  4169                           ;main2.c: 342: if(interval < 20)
  4170                           
  4171                           ; BSR set to: 0
  4172  001256  BFF3               	btfsc	(mode_tree@interval+1)& (0+255),7,b
  4173  001258  D006               	goto	u2810
  4174  00125A  51F3               	movf	(mode_tree@interval+1)& (0+255),w,b
  4175  00125C  E106               	bnz	l2621
  4176  00125E  0E14               	movlw	20
  4177  001260  5DF2               	subwf	mode_tree@interval& (0+255),w,b
  4178  001262  B0D8               	btfsc	status,0,c
  4179  001264  D002               	goto	l162
  4180  001266                     u2810:
  4181                           
  4182                           ; BSR set to: 0
  4183                           ;main2.c: 343: ++interval;
  4184  001266  4BF2               	infsnz	mode_tree@interval& (0+255),f,b
  4185  001268  2BF3               	incf	(mode_tree@interval+1)& (0+255),f,b
  4186  00126A                     l162:
  4187  00126A                     l2621:
  4188                           
  4189                           ; BSR set to: 0
  4190                           ;main2.c: 344: for(int tree_i = 0; tree_i < 11; ++tree_i){
  4191  00126A  0E00               	movlw	0
  4192  00126C  6FDD               	movwf	(mode_tree@tree_i+1)& (0+255),b
  4193  00126E  0E00               	movlw	0
  4194  001270  6FDC               	movwf	mode_tree@tree_i& (0+255),b
  4195                           
  4196                           ; BSR set to: 0
  4197  001272  BFDD               	btfsc	(mode_tree@tree_i+1)& (0+255),7,b
  4198  001274  D006               	goto	l163
  4199  001276  51DD               	movf	(mode_tree@tree_i+1)& (0+255),w,b
  4200  001278  E15F               	bnz	l160
  4201  00127A  0E0B               	movlw	11
  4202  00127C  5DDC               	subwf	mode_tree@tree_i& (0+255),w,b
  4203  00127E  B0D8               	btfsc	status,0,c
  4204  001280  D05B               	goto	u2880
  4205  001282                     l163:
  4206                           
  4207                           ; BSR set to: 0
  4208                           ;main2.c: 345: int* show = (int*)tree;
  4209                           
  4210                           ; BSR set to: 0
  4211  001282  0E80               	movlw	low mode_tree@tree
  4212  001284  6FDE               	movwf	mode_tree@show_413& (0+255),b
  4213  001286  0E00               	movlw	high mode_tree@tree
  4214  001288  6FDF               	movwf	(mode_tree@show_413+1)& (0+255),b
  4215                           
  4216                           ; BSR set to: 0
  4217                           ;main2.c: 346: for(int i = 0; i < 21; ++i, ++show){
  4218  00128A  0E00               	movlw	0
  4219  00128C  6FE1               	movwf	(mode_tree@i_414+1)& (0+255),b
  4220  00128E  0E00               	movlw	0
  4221  001290  6FE0               	movwf	mode_tree@i_414& (0+255),b
  4222  001292                     l2631:
  4223                           
  4224                           ; BSR set to: 0
  4225  001292  BFE1               	btfsc	(mode_tree@i_414+1)& (0+255),7,b
  4226  001294  D006               	goto	l165
  4227  001296  51E1               	movf	(mode_tree@i_414+1)& (0+255),w,b
  4228  001298  E13C               	bnz	l2653
  4229  00129A  0E15               	movlw	21
  4230  00129C  5DE0               	subwf	mode_tree@i_414& (0+255),w,b
  4231  00129E  B0D8               	btfsc	status,0,c
  4232  0012A0  D038               	goto	u2860
  4233  0012A2                     l165:
  4234                           
  4235                           ; BSR set to: 0
  4236                           ;main2.c: 347: LATA = *show;
  4237                           
  4238                           ; BSR set to: 0
  4239  0012A2  C0DE  FFD9         	movff	mode_tree@show_413,fsr2l
  4240  0012A6  C0DF  FFDA         	movff	mode_tree@show_413+1,fsr2h
  4241  0012AA  50DF               	movf	indf2,w,c
  4242  0012AC  6E89               	movwf	3977,c	;volatile
  4243                           
  4244                           ;main2.c: 348: LATD = *show >> 8;
  4245  0012AE  C0DE  FFD9         	movff	mode_tree@show_413,fsr2l
  4246  0012B2  C0DF  FFDA         	movff	mode_tree@show_413+1,fsr2h
  4247  0012B6  CFDE F031          	movff	postinc2,??_mode_tree
  4248  0012BA  CFDD F032          	movff	postdec2,??_mode_tree+1
  4249  0012BE  C032  F031         	movff	??_mode_tree+1,??_mode_tree
  4250  0012C2  6A32               	clrf	??_mode_tree+1,c
  4251  0012C4  BE31               	btfsc	??_mode_tree,7,c
  4252  0012C6  6832               	setf	??_mode_tree+1,c
  4253  0012C8  5031               	movf	??_mode_tree,w,c
  4254  0012CA  6E8C               	movwf	3980,c	;volatile
  4255                           
  4256                           ; BSR set to: 0
  4257                           ;main2.c: 349: int bright = interval;
  4258  0012CC  C0F2  F0C0         	movff	mode_tree@interval,mode_tree@bright_415
  4259  0012D0  C0F3  F0C1         	movff	mode_tree@interval+1,mode_tree@bright_415+1
  4260  0012D4                     l2639:
  4261                           
  4262                           ; BSR set to: 0
  4263  0012D4  07C0               	decf	mode_tree@bright_415& (0+255),f,b
  4264  0012D6  A0D8               	btfss	status,0,c
  4265  0012D8  07C1               	decf	(mode_tree@bright_415+1)& (0+255),f,b
  4266  0012DA  29C0               	incf	mode_tree@bright_415& (0+255),w,b
  4267  0012DC  E1FB               	bnz	l2639
  4268  0012DE  29C1               	incf	(mode_tree@bright_415+1)& (0+255),w,b
  4269  0012E0  A4D8               	btfss	status,2,c
  4270  0012E2  D7F8               	goto	l168
  4271                           
  4272                           ; BSR set to: 0
  4273                           ;main2.c: 351: LATA = LATD = 0;
  4274                           
  4275                           ; BSR set to: 0
  4276  0012E4  0E00               	movlw	0
  4277  0012E6  6E8C               	movwf	3980,c	;volatile
  4278  0012E8  CF8C FF89          	movff	3980,3977	;volatile
  4279                           
  4280                           ; BSR set to: 0
  4281                           ;main2.c: 352: int dark = interval;
  4282  0012EC  C0F2  F0C2         	movff	mode_tree@interval,mode_tree@dark_416
  4283  0012F0  C0F3  F0C3         	movff	mode_tree@interval+1,mode_tree@dark_416+1
  4284  0012F4                     l2645:
  4285                           
  4286                           ; BSR set to: 0
  4287  0012F4  07C2               	decf	mode_tree@dark_416& (0+255),f,b
  4288  0012F6  A0D8               	btfss	status,0,c
  4289  0012F8  07C3               	decf	(mode_tree@dark_416+1)& (0+255),f,b
  4290  0012FA  29C2               	incf	mode_tree@dark_416& (0+255),w,b
  4291  0012FC  E1FB               	bnz	l2645
  4292  0012FE  29C3               	incf	(mode_tree@dark_416+1)& (0+255),w,b
  4293  001300  A4D8               	btfss	status,2,c
  4294  001302  D7F8               	goto	l171
  4295                           
  4296                           ; BSR set to: 0
  4297                           
  4298                           ; BSR set to: 0
  4299  001304  4BE0               	infsnz	mode_tree@i_414& (0+255),f,b
  4300  001306  2BE1               	incf	(mode_tree@i_414+1)& (0+255),f,b
  4301                           
  4302                           ; BSR set to: 0
  4303  001308  0E02               	movlw	2
  4304  00130A  27DE               	addwf	mode_tree@show_413& (0+255),f,b
  4305  00130C  0E00               	movlw	0
  4306  00130E  23DF               	addwfc	(mode_tree@show_413+1)& (0+255),f,b
  4307  001310  D7C0               	goto	l2631
  4308  001312                     u2860:
  4309  001312                     l2653:
  4310                           
  4311                           ; BSR set to: 0
  4312                           ;main2.c: 354: }
  4313                           ;main2.c: 355: delay = 35;
  4314  001312  0E00               	movlw	0
  4315  001314  6FF7               	movwf	(mode_tree@delay+1)& (0+255),b
  4316  001316  0E23               	movlw	35
  4317  001318  6FF6               	movwf	mode_tree@delay& (0+255),b
  4318  00131A                     l2655:
  4319                           
  4320                           ; BSR set to: 0
  4321  00131A  07F6               	decf	mode_tree@delay& (0+255),f,b
  4322  00131C  A0D8               	btfss	status,0,c
  4323  00131E  07F7               	decf	(mode_tree@delay+1)& (0+255),f,b
  4324  001320  29F6               	incf	mode_tree@delay& (0+255),w,b
  4325  001322  E1FB               	bnz	l2655
  4326  001324  29F7               	incf	(mode_tree@delay+1)& (0+255),w,b
  4327  001326  A4D8               	btfss	status,2,c
  4328  001328  D7F8               	goto	l174
  4329                           
  4330                           ; BSR set to: 0
  4331                           
  4332                           ; BSR set to: 0
  4333  00132A  4BDC               	infsnz	mode_tree@tree_i& (0+255),f,b
  4334  00132C  2BDD               	incf	(mode_tree@tree_i+1)& (0+255),f,b
  4335                           
  4336                           ; BSR set to: 0
  4337  00132E  BFDD               	btfsc	(mode_tree@tree_i+1)& (0+255),7,b
  4338  001330  D7A8               	goto	l163
  4339  001332  51DD               	movf	(mode_tree@tree_i+1)& (0+255),w,b
  4340  001334  E101               	bnz	l2661
  4341  001336  D7A1               	goto	L8
  4342  001338                     u2880:
  4343  001338                     l160:
  4344  001338                     l2661:
  4345                           
  4346                           ; BSR set to: 0
  4347  001338  07F4               	decf	mode_tree@count& (0+255),f,b
  4348  00133A  A0D8               	btfss	status,0,c
  4349  00133C  07F5               	decf	(mode_tree@count+1)& (0+255),f,b
  4350  00133E  29F4               	incf	mode_tree@count& (0+255),w,b
  4351  001340  E18A               	bnz	l161
  4352  001342  29F5               	incf	(mode_tree@count+1)& (0+255),w,b
  4353  001344  B4D8               	btfsc	status,2,c
  4354  001346  0012               	return	
  4355  001348  D786               	goto	l161
  4356  00134A                     __end_of_mode_tree:
  4357                           	opt stack 0
  4358                           tblptru	equ	0xFF8
  4359                           tblptrh	equ	0xFF7
  4360                           tblptrl	equ	0xFF6
  4361                           tablat	equ	0xFF5
  4362                           intcon	equ	0xFF2
  4363                           postinc0	equ	0xFEE
  4364                           wreg	equ	0xFE8
  4365                           postdec1	equ	0xFE5
  4366                           plusw1	equ	0xFE3
  4367                           fsr1l	equ	0xFE1
  4368                           indf2	equ	0xFDF
  4369                           postinc2	equ	0xFDE
  4370                           postdec2	equ	0xFDD
  4371                           plusw2	equ	0xFDB
  4372                           fsr2h	equ	0xFDA
  4373                           fsr2l	equ	0xFD9
  4374                           status	equ	0xFD8
  4375                           
  4376 ;; *************** function _mode_snow *****************
  4377 ;; Defined at:
  4378 ;;		line 100 in file "main2.c"
  4379 ;; Parameters:    Size  Location     Type
  4380 ;;		None
  4381 ;; Auto vars:     Size  Location     Type
  4382 ;;  i               2   92[BANK0 ] int 
  4383 ;;  i               2   94[BANK0 ] int 
  4384 ;;  snow_car       86    0[BANK0 ] int [43]
  4385 ;;  delay           2   98[BANK0 ] int 
  4386 ;;  show            2   96[BANK0 ] PTR int 
  4387 ;;		 -> walker(108), mode_snow@snow_car(86), 
  4388 ;;  walker_pic_i    2   90[BANK0 ] int 
  4389 ;;  count           2   88[BANK0 ] int 
  4390 ;;  display_cycl    2   86[BANK0 ] int 
  4391 ;; Return value:  Size  Location     Type
  4392 ;;                  1    wreg      void 
  4393 ;; Registers used:
  4394 ;;		wreg, fsr1l, fsr1h, fsr2l, fsr2h, status,2, status,0, prodl, prodh, cstack
  4395 ;; Tracked objects:
  4396 ;;		On entry : 0/0
  4397 ;;		On exit  : 0/0
  4398 ;;		Unchanged: 0/0
  4399 ;; Data sizes:     COMRAM   BANK0   BANK1   BANK2   BANK3   BANK4   BANK5
  4400 ;;      Params:         0       0       0       0       0       0       0
  4401 ;;      Locals:         0     100       0       0       0       0       0
  4402 ;;      Temps:          2       0       0       0       0       0       0
  4403 ;;      Totals:         2     100       0       0       0       0       0
  4404 ;;Total ram usage:      102 bytes
  4405 ;; Hardware stack levels used:    1
  4406 ;; Hardware stack levels required when called:    3
  4407 ;; This function calls:
  4408 ;;		___wmul
  4409 ;; This function is called by:
  4410 ;;		_main
  4411 ;; This function uses a non-reentrant model
  4412 ;;
  4413                           
  4414                           	psect	text3
  4415  001762                     __ptext3:
  4416                           	opt stack 0
  4417  001762                     _mode_snow:
  4418                           	opt stack 27
  4419                           
  4420                           ;main2.c: 102: int snow_car[43] = {
  4421                           ;main2.c: 111: 0b000011000,
  4422                           ;main2.c: 112: 0b000111100,
  4423                           ;main2.c: 113: 0b000111100,
  4424                           ;main2.c: 115: 0b001111000,
  4425                           ;main2.c: 116: 0b011010000,
  4426                           ;main2.c: 117: 0b110010000,
  4427                           ;main2.c: 118: 0b000010000,
  4428                           ;main2.c: 119: 0b000010000,
  4429                           ;main2.c: 121: 0b000010000,
  4430                           ;main2.c: 122: 0b000010000,
  4431                           ;main2.c: 123: 0b000100100,
  4432                           ;main2.c: 124: 0b001001100,
  4433                           ;main2.c: 125: 0b011111100,
  4434                           ;main2.c: 127: 0b010000000,
  4435                           ;main2.c: 128: 0b110000000,
  4436                           ;main2.c: 129: 0b011111100,
  4437                           ;main2.c: 130: 0b010010101,
  4438                           
  4439                           ; BSR set to: 0
  4440                           ;incstack = 0
  4441  001762  EE23  F000         	lfsr	2,mode_snow@F3011
  4442  001766  EE10  F080         	lfsr	1,mode_snow@snow_car
  4443  00176A  0E55               	movlw	85
  4444  00176C                     u4361:
  4445  00176C  CFDB FFE3          	movff	plusw2,plusw1
  4446  001770  06E8               	decf	wreg,f,c
  4447  001772  E2FC               	bc	u4361
  4448                           
  4449                           ;main2.c: 163: int display_cycle;
  4450                           ;main2.c: 164: int delay;
  4451                           ;main2.c: 165: int* show;
  4452                           ;main2.c: 166: int count = 0;
  4453  001774  0E00               	movlw	0
  4454  001776  0100               	movlb	0	; () banked
  4455  001778  6FD9               	movwf	(mode_snow@count+1)& (0+255),b
  4456  00177A  0E00               	movlw	0
  4457  00177C  6FD8               	movwf	mode_snow@count& (0+255),b
  4458                           
  4459                           ; BSR set to: 0
  4460                           ;main2.c: 167: int walker_pic_i = 0;
  4461  00177E  0E00               	movlw	0
  4462  001780  6FDB               	movwf	(mode_snow@walker_pic_i+1)& (0+255),b
  4463  001782  0E00               	movlw	0
  4464  001784  6FDA               	movwf	mode_snow@walker_pic_i& (0+255),b
  4465                           
  4466                           ; BSR set to: 0
  4467                           ;main2.c: 169: display_cycle = 500;
  4468  001786  0E01               	movlw	1
  4469  001788  6FD7               	movwf	(mode_snow@display_cycle+1)& (0+255),b
  4470  00178A  0EF4               	movlw	244
  4471  00178C  6FD6               	movwf	mode_snow@display_cycle& (0+255),b
  4472                           
  4473                           ;main2.c: 170: while(display_cycle--){
  4474  00178E  D0CE               	goto	u4480
  4475  001790                     
  4476                           ; BSR set to: 0
  4477                           ;main2.c: 172: show = (int*)walker[walker_pic_i] + 9 - 1;
  4478                           
  4479                           ; BSR set to: 0
  4480  001790  C0DA  F031         	movff	mode_snow@walker_pic_i,___wmul@multiplier
  4481  001794  C0DB  F032         	movff	mode_snow@walker_pic_i+1,___wmul@multiplier+1
  4482  001798  0E00               	movlw	0
  4483  00179A  6E34               	movwf	___wmul@multiplicand+1,c
  4484  00179C  0E12               	movlw	18
  4485  00179E  6E33               	movwf	___wmul@multiplicand,c
  4486  0017A0  EC67  F00F         	call	___wmul	;wreg free
  4487  0017A4  0E10               	movlw	16
  4488  0017A6  2631               	addwf	?___wmul,f,c
  4489  0017A8  0E00               	movlw	0
  4490  0017AA  2232               	addwfc	?___wmul+1,f,c
  4491  0017AC  0E56               	movlw	low _walker
  4492  0017AE  2431               	addwf	?___wmul,w,c
  4493  0017B0  0100               	movlb	0	; () banked
  4494  0017B2  6FE0               	movwf	mode_snow@show& (0+255),b
  4495  0017B4  0E03               	movlw	high _walker
  4496  0017B6  2032               	addwfc	?___wmul+1,w,c
  4497  0017B8  6FE1               	movwf	(mode_snow@show+1)& (0+255),b
  4498                           
  4499                           ; BSR set to: 0
  4500                           ;main2.c: 173: for(int i = 0; i < 9; ++i, --show){
  4501  0017BA  0E00               	movlw	0
  4502  0017BC  6FDF               	movwf	(mode_snow@i+1)& (0+255),b
  4503  0017BE  0E00               	movlw	0
  4504  0017C0  6FDE               	movwf	mode_snow@i& (0+255),b
  4505  0017C2                     l3459:
  4506                           
  4507                           ; BSR set to: 0
  4508  0017C2  BFDF               	btfsc	(mode_snow@i+1)& (0+255),7,b
  4509  0017C4  D006               	goto	l49
  4510  0017C6  51DF               	movf	(mode_snow@i+1)& (0+255),w,b
  4511  0017C8  E146               	bnz	l3487
  4512  0017CA  0E09               	movlw	9
  4513  0017CC  5DDE               	subwf	mode_snow@i& (0+255),w,b
  4514  0017CE  B0D8               	btfsc	status,0,c
  4515  0017D0  D042               	goto	u4410
  4516  0017D2                     l49:
  4517                           
  4518                           ; BSR set to: 0
  4519                           ;main2.c: 174: LATA = *show;
  4520                           
  4521                           ; BSR set to: 0
  4522  0017D2  C0E0  FFD9         	movff	mode_snow@show,fsr2l
  4523  0017D6  C0E1  FFDA         	movff	mode_snow@show+1,fsr2h
  4524  0017DA  50DF               	movf	indf2,w,c
  4525  0017DC  6E89               	movwf	3977,c	;volatile
  4526                           
  4527                           ; BSR set to: 0
  4528                           ;main2.c: 175: LATD = (*show >> 8) | 0b10;
  4529  0017DE  C0E0  FFD9         	movff	mode_snow@show,fsr2l
  4530  0017E2  C0E1  FFDA         	movff	mode_snow@show+1,fsr2h
  4531  0017E6  CFDE F037          	movff	postinc2,??_mode_snow
  4532  0017EA  CFDD F038          	movff	postdec2,??_mode_snow+1
  4533  0017EE  C038  F037         	movff	??_mode_snow+1,??_mode_snow
  4534  0017F2  6A38               	clrf	??_mode_snow+1,c
  4535  0017F4  BE37               	btfsc	??_mode_snow,7,c
  4536  0017F6  6838               	setf	??_mode_snow+1,c
  4537  0017F8  5037               	movf	??_mode_snow,w,c
  4538  0017FA  0902               	iorlw	2
  4539  0017FC  6E8C               	movwf	3980,c	;volatile
  4540                           
  4541                           ; BSR set to: 0
  4542                           ;main2.c: 176: if(i&0b1100)
  4543  0017FE  0E0C               	movlw	12
  4544  001800  15DE               	andwf	mode_snow@i& (0+255),w,b
  4545  001802  6E37               	movwf	??_mode_snow& (0+255),c
  4546  001804  0E00               	movlw	0
  4547  001806  15DF               	andwf	(mode_snow@i+1)& (0+255),w,b
  4548  001808  6E38               	movwf	(??_mode_snow+1)& (0+255),c
  4549  00180A  5037               	movf	??_mode_snow,w,c
  4550  00180C  1038               	iorwf	??_mode_snow+1,w,c
  4551  00180E  A4D8               	btfss	status,2,c
  4552                           
  4553                           ; BSR set to: 0
  4554                           ;main2.c: 177: LATAbits.LATA4 = 1;
  4555  001810  8889               	bsf	3977,4,c	;volatile
  4556                           
  4557                           ; BSR set to: 0
  4558                           ;main2.c: 179: delay = 60;
  4559                           
  4560                           ; BSR set to: 0
  4561  001812  0E00               	movlw	0
  4562  001814  6FE3               	movwf	(mode_snow@delay+1)& (0+255),b
  4563  001816  0E3C               	movlw	60
  4564  001818  6FE2               	movwf	mode_snow@delay& (0+255),b
  4565  00181A                     l3473:
  4566                           
  4567                           ; BSR set to: 0
  4568  00181A  07E2               	decf	mode_snow@delay& (0+255),f,b
  4569  00181C  A0D8               	btfss	status,0,c
  4570  00181E  07E3               	decf	(mode_snow@delay+1)& (0+255),f,b
  4571  001820  29E2               	incf	mode_snow@delay& (0+255),w,b
  4572  001822  E1FB               	bnz	l3473
  4573  001824  29E3               	incf	(mode_snow@delay+1)& (0+255),w,b
  4574  001826  A4D8               	btfss	status,2,c
  4575  001828  D7F8               	goto	l53
  4576                           
  4577                           ; BSR set to: 0
  4578                           ;main2.c: 181: LATA = 0;
  4579                           
  4580                           ; BSR set to: 0
  4581  00182A  0E00               	movlw	0
  4582  00182C  6E89               	movwf	3977,c	;volatile
  4583                           
  4584                           ; BSR set to: 0
  4585                           ;main2.c: 182: LATDbits.LATD0 = 0;
  4586  00182E  908C               	bcf	3980,0,c	;volatile
  4587                           
  4588                           ;main2.c: 183: delay = 60;
  4589  001830  0E00               	movlw	0
  4590  001832  6FE3               	movwf	(mode_snow@delay+1)& (0+255),b
  4591  001834  0E3C               	movlw	60
  4592  001836  6FE2               	movwf	mode_snow@delay& (0+255),b
  4593  001838                     l3479:
  4594                           
  4595                           ; BSR set to: 0
  4596  001838  07E2               	decf	mode_snow@delay& (0+255),f,b
  4597  00183A  A0D8               	btfss	status,0,c
  4598  00183C  07E3               	decf	(mode_snow@delay+1)& (0+255),f,b
  4599  00183E  29E2               	incf	mode_snow@delay& (0+255),w,b
  4600  001840  E1FB               	bnz	l3479
  4601  001842  29E3               	incf	(mode_snow@delay+1)& (0+255),w,b
  4602  001844  A4D8               	btfss	status,2,c
  4603  001846  D7F8               	goto	l56
  4604                           
  4605                           ; BSR set to: 0
  4606                           
  4607                           ; BSR set to: 0
  4608  001848  4BDE               	infsnz	mode_snow@i& (0+255),f,b
  4609  00184A  2BDF               	incf	(mode_snow@i+1)& (0+255),f,b
  4610                           
  4611                           ; BSR set to: 0
  4612  00184C  0E02               	movlw	2
  4613  00184E  5FE0               	subwf	mode_snow@show& (0+255),f,b
  4614  001850  0E00               	movlw	0
  4615  001852  5BE1               	subwfb	(mode_snow@show+1)& (0+255),f,b
  4616  001854  D7B6               	goto	l3459
  4617  001856                     u4410:
  4618  001856                     l3487:
  4619                           
  4620                           ; BSR set to: 0
  4621                           ;main2.c: 185: }
  4622                           ;main2.c: 186: if(!(++count & 0b11))
  4623  001856  0E03               	movlw	3
  4624  001858  4BD8               	infsnz	mode_snow@count& (0+255),f,b
  4625  00185A  2BD9               	incf	(mode_snow@count+1)& (0+255),f,b
  4626  00185C  15D8               	andwf	mode_snow@count& (0+255),w,b
  4627  00185E  6E37               	movwf	??_mode_snow& (0+255),c
  4628  001860  0E00               	movlw	0
  4629  001862  15D9               	andwf	(mode_snow@count+1)& (0+255),w,b
  4630  001864  6E38               	movwf	(??_mode_snow+1)& (0+255),c
  4631  001866  5037               	movf	??_mode_snow,w,c
  4632  001868  1038               	iorwf	??_mode_snow+1,w,c
  4633  00186A  A4D8               	btfss	status,2,c
  4634  00186C  D00B               	goto	l59
  4635                           
  4636                           ; BSR set to: 0
  4637                           ;main2.c: 187: if(++walker_pic_i == 6)
  4638  00186E  4BDA               	infsnz	mode_snow@walker_pic_i& (0+255),f,b
  4639  001870  2BDB               	incf	(mode_snow@walker_pic_i+1)& (0+255),f,b
  4640  001872  0E06               	movlw	6
  4641  001874  19DA               	xorwf	mode_snow@walker_pic_i& (0+255),w,b
  4642  001876  11DB               	iorwf	(mode_snow@walker_pic_i+1)& (0+255),w,b
  4643  001878  A4D8               	btfss	status,2,c
  4644  00187A  D004               	goto	l59
  4645                           
  4646                           ; BSR set to: 0
  4647                           ;main2.c: 188: walker_pic_i = 0;
  4648  00187C  0E00               	movlw	0
  4649  00187E  6FDB               	movwf	(mode_snow@walker_pic_i+1)& (0+255),b
  4650  001880  0E00               	movlw	0
  4651  001882  6FDA               	movwf	mode_snow@walker_pic_i& (0+255),b
  4652  001884                     l59:
  4653                           
  4654                           ; BSR set to: 0
  4655                           ;main2.c: 191: show = (int*)snow_car;
  4656                           
  4657                           ; BSR set to: 0
  4658                           
  4659                           ; BSR set to: 0
  4660  001884  0E80               	movlw	low mode_snow@snow_car
  4661  001886  6FE0               	movwf	mode_snow@show& (0+255),b
  4662  001888  0E00               	movlw	high mode_snow@snow_car
  4663  00188A  6FE1               	movwf	(mode_snow@show+1)& (0+255),b
  4664                           
  4665                           ; BSR set to: 0
  4666                           ;main2.c: 192: for(int i = 0; i < 43; ++i, ++show){
  4667  00188C  0E00               	movlw	0
  4668  00188E  6FDD               	movwf	(mode_snow@i_378+1)& (0+255),b
  4669  001890  0E00               	movlw	0
  4670  001892  6FDC               	movwf	mode_snow@i_378& (0+255),b
  4671  001894  BFDD               	btfsc	(mode_snow@i_378+1)& (0+255),7,b
  4672  001896  D006               	goto	l60
  4673  001898  51DD               	movf	(mode_snow@i_378+1)& (0+255),w,b
  4674  00189A  E13C               	bnz	l3519
  4675  00189C  0E2B               	movlw	43
  4676  00189E  5DDC               	subwf	mode_snow@i_378& (0+255),w,b
  4677  0018A0  B0D8               	btfsc	status,0,c
  4678  0018A2  D038               	goto	u4470
  4679  0018A4                     l60:
  4680                           
  4681                           ; BSR set to: 0
  4682                           ;main2.c: 193: LATA = *show;
  4683                           
  4684                           ; BSR set to: 0
  4685  0018A4  C0E0  FFD9         	movff	mode_snow@show,fsr2l
  4686  0018A8  C0E1  FFDA         	movff	mode_snow@show+1,fsr2h
  4687  0018AC  50DF               	movf	indf2,w,c
  4688  0018AE  6E89               	movwf	3977,c	;volatile
  4689                           
  4690                           ; BSR set to: 0
  4691                           ;main2.c: 194: LATD = (*show >> 8) | 0b10;
  4692  0018B0  C0E0  FFD9         	movff	mode_snow@show,fsr2l
  4693  0018B4  C0E1  FFDA         	movff	mode_snow@show+1,fsr2h
  4694  0018B8  CFDE F037          	movff	postinc2,??_mode_snow
  4695  0018BC  CFDD F038          	movff	postdec2,??_mode_snow+1
  4696  0018C0  C038  F037         	movff	??_mode_snow+1,??_mode_snow
  4697  0018C4  6A38               	clrf	??_mode_snow+1,c
  4698  0018C6  BE37               	btfsc	??_mode_snow,7,c
  4699  0018C8  6838               	setf	??_mode_snow+1,c
  4700  0018CA  5037               	movf	??_mode_snow,w,c
  4701  0018CC  0902               	iorlw	2
  4702  0018CE  6E8C               	movwf	3980,c	;volatile
  4703                           
  4704                           ; BSR set to: 0
  4705                           ;main2.c: 195: delay = 60;
  4706  0018D0  0E00               	movlw	0
  4707  0018D2  6FE3               	movwf	(mode_snow@delay+1)& (0+255),b
  4708  0018D4  0E3C               	movlw	60
  4709  0018D6  6FE2               	movwf	mode_snow@delay& (0+255),b
  4710  0018D8                     l3505:
  4711                           
  4712                           ; BSR set to: 0
  4713  0018D8  07E2               	decf	mode_snow@delay& (0+255),f,b
  4714  0018DA  A0D8               	btfss	status,0,c
  4715  0018DC  07E3               	decf	(mode_snow@delay+1)& (0+255),f,b
  4716  0018DE  29E2               	incf	mode_snow@delay& (0+255),w,b
  4717  0018E0  E1FB               	bnz	l3505
  4718  0018E2  29E3               	incf	(mode_snow@delay+1)& (0+255),w,b
  4719  0018E4  A4D8               	btfss	status,2,c
  4720  0018E6  D7F8               	goto	l63
  4721                           
  4722                           ; BSR set to: 0
  4723                           ;main2.c: 197: LATA = 0;
  4724                           
  4725                           ; BSR set to: 0
  4726  0018E8  0E00               	movlw	0
  4727  0018EA  6E89               	movwf	3977,c	;volatile
  4728                           
  4729                           ; BSR set to: 0
  4730                           ;main2.c: 198: LATDbits.LATD0 = 0;
  4731  0018EC  908C               	bcf	3980,0,c	;volatile
  4732                           
  4733                           ;main2.c: 199: delay = 60;
  4734  0018EE  0E00               	movlw	0
  4735  0018F0  6FE3               	movwf	(mode_snow@delay+1)& (0+255),b
  4736  0018F2  0E3C               	movlw	60
  4737  0018F4  6FE2               	movwf	mode_snow@delay& (0+255),b
  4738  0018F6                     l3511:
  4739                           
  4740                           ; BSR set to: 0
  4741  0018F6  07E2               	decf	mode_snow@delay& (0+255),f,b
  4742  0018F8  A0D8               	btfss	status,0,c
  4743  0018FA  07E3               	decf	(mode_snow@delay+1)& (0+255),f,b
  4744  0018FC  29E2               	incf	mode_snow@delay& (0+255),w,b
  4745  0018FE  E1FB               	bnz	l3511
  4746  001900  29E3               	incf	(mode_snow@delay+1)& (0+255),w,b
  4747  001902  A4D8               	btfss	status,2,c
  4748  001904  D7F8               	goto	l66
  4749                           
  4750                           ; BSR set to: 0
  4751                           
  4752                           ; BSR set to: 0
  4753  001906  4BDC               	infsnz	mode_snow@i_378& (0+255),f,b
  4754  001908  2BDD               	incf	(mode_snow@i_378+1)& (0+255),f,b
  4755                           
  4756                           ; BSR set to: 0
  4757  00190A  0E02               	movlw	2
  4758  00190C  27E0               	addwf	mode_snow@show& (0+255),f,b
  4759  00190E  0E00               	movlw	0
  4760  001910  23E1               	addwfc	(mode_snow@show+1)& (0+255),f,b
  4761  001912  D7C0               	goto	L9
  4762  001914                     u4470:
  4763  001914                     l3519:
  4764                           
  4765                           ; BSR set to: 0
  4766                           ;main2.c: 201: }
  4767                           ;main2.c: 202: delay = 5400;
  4768  001914  0E15               	movlw	21
  4769  001916  6FE3               	movwf	(mode_snow@delay+1)& (0+255),b
  4770  001918  0E18               	movlw	24
  4771  00191A  6FE2               	movwf	mode_snow@delay& (0+255),b
  4772  00191C                     l3521:
  4773                           
  4774                           ; BSR set to: 0
  4775  00191C  07E2               	decf	mode_snow@delay& (0+255),f,b
  4776  00191E  A0D8               	btfss	status,0,c
  4777  001920  07E3               	decf	(mode_snow@delay+1)& (0+255),f,b
  4778  001922  29E2               	incf	mode_snow@delay& (0+255),w,b
  4779  001924  E1FB               	bnz	l3521
  4780  001926  29E3               	incf	(mode_snow@delay+1)& (0+255),w,b
  4781  001928  A4D8               	btfss	status,2,c
  4782  00192A  D7F8               	goto	l69
  4783  00192C                     u4480:
  4784                           
  4785                           ; BSR set to: 0
  4786                           
  4787                           ; BSR set to: 0
  4788                           
  4789                           ; BSR set to: 0
  4790  00192C  07D6               	decf	mode_snow@display_cycle& (0+255),f,b
  4791  00192E  A0D8               	btfss	status,0,c
  4792  001930  07D7               	decf	(mode_snow@display_cycle+1)& (0+255),f,b
  4793  001932  29D6               	incf	mode_snow@display_cycle& (0+255),w,b
  4794  001934  E103               	bnz	u4491
  4795  001936  29D7               	incf	(mode_snow@display_cycle+1)& (0+255),w,b
  4796  001938  B4D8               	btfsc	status,2,c
  4797  00193A  0012               	return	
  4798  00193C                     u4491:
  4799  00193C  D729               	goto	l48
  4800  00193E                     __end_of_mode_snow:
  4801                           	opt stack 0
  4802                           tblptru	equ	0xFF8
  4803                           tblptrh	equ	0xFF7
  4804                           tblptrl	equ	0xFF6
  4805                           tablat	equ	0xFF5
  4806                           intcon	equ	0xFF2
  4807                           postinc0	equ	0xFEE
  4808                           wreg	equ	0xFE8
  4809                           postdec1	equ	0xFE5
  4810                           plusw1	equ	0xFE3
  4811                           fsr1l	equ	0xFE1
  4812                           indf2	equ	0xFDF
  4813                           postinc2	equ	0xFDE
  4814                           postdec2	equ	0xFDD
  4815                           plusw2	equ	0xFDB
  4816                           fsr2h	equ	0xFDA
  4817                           fsr2l	equ	0xFD9
  4818                           status	equ	0xFD8
  4819                           
  4820 ;; *************** function _mode_clock *****************
  4821 ;; Defined at:
  4822 ;;		line 815 in file "main2.c"
  4823 ;; Parameters:    Size  Location     Type
  4824 ;;		None
  4825 ;; Auto vars:     Size  Location     Type
  4826 ;;  dark            2  150[BANK1 ] int 
  4827 ;;  bright          2  148[BANK1 ] int 
  4828 ;;  j               2  160[BANK1 ] int 
  4829 ;;  dark            2  154[BANK1 ] int 
  4830 ;;  bright          2  152[BANK1 ] int 
  4831 ;;  dark            2  146[BANK1 ] int 
  4832 ;;  bright          2  144[BANK1 ] int 
  4833 ;;  i               2  164[BANK1 ] int 
  4834 ;;  i               2  166[BANK1 ] int 
  4835 ;;  i               2  158[BANK1 ] int 
  4836 ;;  delay           2  170[BANK1 ] int 
  4837 ;;  show            2  168[BANK1 ] PTR int 
  4838 ;;		 -> mode_clock@MAS(80), mode_clock@X(28), 
  4839 ;;  face_i          2  162[BANK1 ] PTR int 
  4840 ;;		 -> mode_clock@face(26), 
  4841 ;;  secL            2  142[BANK1 ] int 
  4842 ;;  secH            2  140[BANK1 ] int 
  4843 ;;  minL            2  138[BANK1 ] int 
  4844 ;;  minH            2  136[BANK1 ] int 
  4845 ;;  MAS            80    0[BANK1 ] int [10][4]
  4846 ;;  X              28  106[BANK1 ] int [14]
  4847 ;;  face           26   80[BANK1 ] int [13]
  4848 ;;  state           2  156[BANK1 ] int 
  4849 ;;  display_cycl    2  134[BANK1 ] int 
  4850 ;; Return value:  Size  Location     Type
  4851 ;;                  1    wreg      void 
  4852 ;; Registers used:
  4853 ;;		wreg, fsr1l, fsr1h, fsr2l, fsr2h, status,2, status,0, prodl, prodh, cstack
  4854 ;; Tracked objects:
  4855 ;;		On entry : 0/0
  4856 ;;		On exit  : 0/0
  4857 ;;		Unchanged: 0/0
  4858 ;; Data sizes:     COMRAM   BANK0   BANK1   BANK2   BANK3   BANK4   BANK5
  4859 ;;      Params:         0       0       0       0       0       0       0
  4860 ;;      Locals:         0       0     172       0       0       0       0
  4861 ;;      Temps:          2       0       0       0       0       0       0
  4862 ;;      Totals:         2       0     172       0       0       0       0
  4863 ;;Total ram usage:      174 bytes
  4864 ;; Hardware stack levels used:    1
  4865 ;; Hardware stack levels required when called:    4
  4866 ;; This function calls:
  4867 ;;		___awdiv
  4868 ;;		___awmod
  4869 ;;		___wmul
  4870 ;;		_display_num
  4871 ;; This function is called by:
  4872 ;;		_main
  4873 ;; This function uses a non-reentrant model
  4874 ;;
  4875                           
  4876                           	psect	text4
  4877  00134A                     __ptext4:
  4878                           	opt stack 0
  4879  00134A                     _mode_clock:
  4880                           	opt stack 26
  4881                           
  4882                           ;main2.c: 816: int state = 0;
  4883                           
  4884                           ; BSR set to: 0
  4885                           ;incstack = 0
  4886  00134A  0E00               	movlw	0
  4887  00134C  0101               	movlb	1	; () banked
  4888  00134E  6F9D               	movwf	(mode_clock@state+1)& (0+255),b
  4889  001350  0E00               	movlw	0
  4890  001352  6F9C               	movwf	mode_clock@state& (0+255),b
  4891                           
  4892                           ; BSR set to: 1
  4893                           ;main2.c: 817: int X[14] = {
  4894                           ;main2.c: 818: 0b1000000000,
  4895                           ;main2.c: 819: 0b1000000000,
  4896                           ;main2.c: 820: 0b1100000011,
  4897                           ;main2.c: 821: 0b0100000001,
  4898                           ;main2.c: 822: 0b0111001111,
  4899                           ;main2.c: 823: 0b0011011100,
  4900                           ;main2.c: 824: 0b0001110000,
  4901                           ;main2.c: 825: 0b0000111000,
  4902                           ;main2.c: 826: 0b0011101100,
  4903                           ;main2.c: 827: 0b0111001111,
  4904                           ;main2.c: 828: 0b1100000001,
  4905                           ;main2.c: 829: 0b1000000011,
  4906                           ;main2.c: 830: 0b1000000000,
  4907                           ;main2.c: 831: 0b1000000000,
  4908                           ;main2.c: 832: };
  4909  001354  EE22  F0CC         	lfsr	2,mode_clock@F3140
  4910  001358  EE11  F06A         	lfsr	1,mode_clock@X
  4911  00135C  0E1B               	movlw	27
  4912  00135E                     u5061:
  4913  00135E  CFDB FFE3          	movff	plusw2,plusw1
  4914  001362  06E8               	decf	wreg,f,c
  4915  001364  E2FC               	bc	u5061
  4916                           
  4917                           ; BSR set to: 1
  4918                           ;main2.c: 834: int MAS[4][10] =
  4919                           ;main2.c: 835: {
  4920                           ;main2.c: 836: {
  4921                           ;main2.c: 837: 0b0000000000,
  4922                           ;main2.c: 838: 0b0000000000,
  4923                           ;main2.c: 839: 0b0000000000,
  4924                           ;main2.c: 840: 0b0000000011,
  4925                           ;main2.c: 841: 0b0000001011,
  4926                           ;main2.c: 842: 0b0000000111,
  4927                           ;main2.c: 843: 0b0000000000,
  4928                           ;main2.c: 844: 0b0000000000,
  4929                           ;main2.c: 845: 0b0000000000,
  4930                           ;main2.c: 846: 0b0000000000
  4931                           ;main2.c: 847: },
  4932                           ;main2.c: 848: {
  4933                           ;main2.c: 849: 0b1100000011,
  4934                           ;main2.c: 850: 0b1111111111,
  4935                           ;main2.c: 851: 0b0000001110,
  4936                           ;main2.c: 852: 0b0000011000,
  4937                           ;main2.c: 853: 0b0000110000,
  4938  001366  EE22  F000         	lfsr	2,mode_clock@F3143
  4939  00136A  EE11  F000         	lfsr	1,mode_clock@MAS
  4940  00136E  0E4F               	movlw	79
  4941  001370                     u5071:
  4942  001370  CFDB FFE3          	movff	plusw2,plusw1
  4943  001374  06E8               	decf	wreg,f,c
  4944  001376  E2FC               	bc	u5071
  4945                           
  4946                           ; BSR set to: 1
  4947                           ;main2.c: 885: int face[13] = {
  4948                           ;main2.c: 886: 0b0011111110,
  4949                           ;main2.c: 887: 0b0100000111,
  4950                           ;main2.c: 888: 0b1000110111,
  4951                           ;main2.c: 889: 0b1000110110,
  4952                           ;main2.c: 890: 0b1000110111,
  4953                           ;main2.c: 891: 0b1010000110,
  4954                           ;main2.c: 892: 0b1010000110,
  4955                           ;main2.c: 893: 0b1010000111,
  4956                           ;main2.c: 894: 0b1000110110,
  4957                           ;main2.c: 895: 0b1000110111,
  4958                           ;main2.c: 896: 0b1000110111,
  4959                           ;main2.c: 897: 0b0100000111,
  4960                           ;main2.c: 898: 0b0011111110
  4961                           ;main2.c: 899: };
  4962  001378  EE21  F0AC         	lfsr	2,mode_clock@F3145
  4963  00137C  EE11  F050         	lfsr	1,mode_clock@face
  4964  001380  0E19               	movlw	25
  4965  001382                     u5081:
  4966  001382  CFDB FFE3          	movff	plusw2,plusw1
  4967  001386  06E8               	decf	wreg,f,c
  4968  001388  E2FC               	bc	u5081
  4969                           
  4970                           ; BSR set to: 1
  4971                           ;main2.c: 901: int display_cycle = 500;
  4972  00138A  0E01               	movlw	1
  4973  00138C  6F87               	movwf	(mode_clock@display_cycle+1)& (0+255),b
  4974  00138E  0EF4               	movlw	244
  4975  001390  6F86               	movwf	mode_clock@display_cycle& (0+255),b
  4976                           
  4977                           ;main2.c: 902: while(--display_cycle){
  4978  001392  D1DF               	goto	u5320
  4979  001394                     
  4980                           ; BSR set to: 1
  4981                           ;main2.c: 905: display_num(hours/10);
  4982                           
  4983                           ; BSR set to: 1
  4984  001394  C1F2  F031         	movff	_hours,___awdiv@dividend
  4985  001398  C1F3  F032         	movff	_hours+1,___awdiv@dividend+1
  4986  00139C  0E00               	movlw	0
  4987  00139E  6E34               	movwf	___awdiv@divisor+1,c
  4988  0013A0  0E0A               	movlw	10
  4989  0013A2  6E33               	movwf	___awdiv@divisor,c
  4990  0013A4  EC7E  F00E         	call	___awdiv	;wreg free
  4991  0013A8  C031  F039         	movff	?___awdiv,display_num@n
  4992  0013AC  C032  F03A         	movff	?___awdiv+1,display_num@n+1
  4993  0013B0  EC32  F00E         	call	_display_num	;wreg free
  4994                           
  4995                           ;main2.c: 906: display_num(hours%10);
  4996  0013B4  C1F2  F031         	movff	_hours,___awmod@dividend
  4997  0013B8  C1F3  F032         	movff	_hours+1,___awmod@dividend+1
  4998  0013BC  0E00               	movlw	0
  4999  0013BE  6E34               	movwf	___awmod@divisor+1,c
  5000  0013C0  0E0A               	movlw	10
  5001  0013C2  6E33               	movwf	___awmod@divisor,c
  5002  0013C4  ECC0  F00E         	call	___awmod	;wreg free
  5003  0013C8  C031  F039         	movff	?___awmod,display_num@n
  5004  0013CC  C032  F03A         	movff	?___awmod+1,display_num@n+1
  5005  0013D0  EC32  F00E         	call	_display_num	;wreg free
  5006                           
  5007                           ;main2.c: 909: int delay = 80;
  5008  0013D4  0E00               	movlw	0
  5009  0013D6  0101               	movlb	1	; () banked
  5010  0013D8  6FAB               	movwf	(mode_clock@delay+1)& (0+255),b
  5011  0013DA  0E50               	movlw	80
  5012  0013DC  6FAA               	movwf	mode_clock@delay& (0+255),b
  5013  0013DE                     l3817:
  5014                           
  5015                           ; BSR set to: 1
  5016  0013DE  07AA               	decf	mode_clock@delay& (0+255),f,b
  5017  0013E0  A0D8               	btfss	status,0,c
  5018  0013E2  07AB               	decf	(mode_clock@delay+1)& (0+255),f,b
  5019  0013E4  29AA               	incf	mode_clock@delay& (0+255),w,b
  5020  0013E6  E1FB               	bnz	l3817
  5021  0013E8  29AB               	incf	(mode_clock@delay+1)& (0+255),w,b
  5022  0013EA  A4D8               	btfss	status,2,c
  5023  0013EC  D7F8               	goto	l397
  5024                           
  5025                           ; BSR set to: 1
  5026                           ;main2.c: 911: if(++state & 0b1000)
  5027                           
  5028                           ; BSR set to: 1
  5029  0013EE  4B9C               	infsnz	mode_clock@state& (0+255),f,b
  5030  0013F0  2B9D               	incf	(mode_clock@state+1)& (0+255),f,b
  5031  0013F2  A79C               	btfss	mode_clock@state& (0+255),3,b
  5032  0013F4  D002               	goto	l399
  5033                           
  5034                           ; BSR set to: 1
  5035                           ;main2.c: 912: LATA = 0b00001010;
  5036  0013F6  0E0A               	movlw	10
  5037  0013F8  D001               	goto	L10
  5038  0013FA                     l399:
  5039                           
  5040                           ; BSR set to: 1
  5041                           ;main2.c: 913: else
  5042                           ;main2.c: 914: LATA = 0;
  5043                           
  5044                           ; BSR set to: 1
  5045  0013FA  0E00               	movlw	0
  5046  0013FC                     L10:
  5047  0013FC  6E89               	movwf	3977,c	;volatile
  5048                           
  5049                           ; BSR set to: 1
  5050                           ;main2.c: 915: int minH = minutes / 10;
  5051                           
  5052                           ; BSR set to: 1
  5053  0013FE  C1EE  F031         	movff	_minutes,___awdiv@dividend
  5054  001402  C1EF  F032         	movff	_minutes+1,___awdiv@dividend+1
  5055  001406  0E00               	movlw	0
  5056  001408  6E34               	movwf	___awdiv@divisor+1,c
  5057  00140A  0E0A               	movlw	10
  5058  00140C  6E33               	movwf	___awdiv@divisor,c
  5059  00140E  EC7E  F00E         	call	___awdiv	;wreg free
  5060  001412  C031  F188         	movff	?___awdiv,mode_clock@minH
  5061  001416  C032  F189         	movff	?___awdiv+1,mode_clock@minH+1
  5062                           
  5063                           ;main2.c: 916: LATA = 0;
  5064  00141A  0E00               	movlw	0
  5065  00141C  6E89               	movwf	3977,c	;volatile
  5066                           
  5067                           ;main2.c: 917: int minL = minutes % 10;
  5068  00141E  C1EE  F031         	movff	_minutes,___awmod@dividend
  5069  001422  C1EF  F032         	movff	_minutes+1,___awmod@dividend+1
  5070  001426  0E00               	movlw	0
  5071  001428  6E34               	movwf	___awmod@divisor+1,c
  5072  00142A  0E0A               	movlw	10
  5073  00142C  6E33               	movwf	___awmod@divisor,c
  5074  00142E  ECC0  F00E         	call	___awmod	;wreg free
  5075  001432  C031  F18A         	movff	?___awmod,mode_clock@minL
  5076  001436  C032  F18B         	movff	?___awmod+1,mode_clock@minL+1
  5077                           
  5078                           ;main2.c: 918: delay = 80;
  5079  00143A  0E00               	movlw	0
  5080  00143C  0101               	movlb	1	; () banked
  5081  00143E  6FAB               	movwf	(mode_clock@delay+1)& (0+255),b
  5082  001440  0E50               	movlw	80
  5083  001442  6FAA               	movwf	mode_clock@delay& (0+255),b
  5084  001444                     l3831:
  5085                           
  5086                           ; BSR set to: 1
  5087  001444  07AA               	decf	mode_clock@delay& (0+255),f,b
  5088  001446  A0D8               	btfss	status,0,c
  5089  001448  07AB               	decf	(mode_clock@delay+1)& (0+255),f,b
  5090  00144A  29AA               	incf	mode_clock@delay& (0+255),w,b
  5091  00144C  E1FB               	bnz	l3831
  5092  00144E  29AB               	incf	(mode_clock@delay+1)& (0+255),w,b
  5093  001450  A4D8               	btfss	status,2,c
  5094  001452  D7F8               	goto	l402
  5095                           
  5096                           ; BSR set to: 1
  5097                           ;main2.c: 922: display_num(minH);
  5098                           
  5099                           ; BSR set to: 1
  5100  001454  C188  F039         	movff	mode_clock@minH,display_num@n
  5101  001458  C189  F03A         	movff	mode_clock@minH+1,display_num@n+1
  5102  00145C  EC32  F00E         	call	_display_num	;wreg free
  5103                           
  5104                           ;main2.c: 923: display_num(minL);
  5105  001460  C18A  F039         	movff	mode_clock@minL,display_num@n
  5106  001464  C18B  F03A         	movff	mode_clock@minL+1,display_num@n+1
  5107  001468  EC32  F00E         	call	_display_num	;wreg free
  5108                           
  5109                           ;main2.c: 926: delay = 80;
  5110  00146C  0E00               	movlw	0
  5111  00146E  0101               	movlb	1	; () banked
  5112  001470  6FAB               	movwf	(mode_clock@delay+1)& (0+255),b
  5113  001472  0E50               	movlw	80
  5114  001474  6FAA               	movwf	mode_clock@delay& (0+255),b
  5115  001476                     l3837:
  5116                           
  5117                           ; BSR set to: 1
  5118  001476  07AA               	decf	mode_clock@delay& (0+255),f,b
  5119  001478  A0D8               	btfss	status,0,c
  5120  00147A  07AB               	decf	(mode_clock@delay+1)& (0+255),f,b
  5121  00147C  29AA               	incf	mode_clock@delay& (0+255),w,b
  5122  00147E  E1FB               	bnz	l3837
  5123  001480  29AB               	incf	(mode_clock@delay+1)& (0+255),w,b
  5124  001482  A4D8               	btfss	status,2,c
  5125  001484  D7F8               	goto	l405
  5126                           
  5127                           ; BSR set to: 1
  5128                           ;main2.c: 928: if(state & 0b1000)
  5129  001486  A79C               	btfss	mode_clock@state& (0+255),3,b
  5130  001488  D002               	goto	l407
  5131                           
  5132                           ; BSR set to: 1
  5133                           ;main2.c: 929: LATA = 0b00001010;
  5134  00148A  0E0A               	movlw	10
  5135  00148C  D001               	goto	L11
  5136  00148E                     l407:
  5137                           
  5138                           ; BSR set to: 1
  5139                           ;main2.c: 930: else
  5140                           ;main2.c: 931: LATA = 0;
  5141                           
  5142                           ; BSR set to: 1
  5143  00148E  0E00               	movlw	0
  5144  001490                     L11:
  5145  001490  6E89               	movwf	3977,c	;volatile
  5146                           
  5147                           ; BSR set to: 1
  5148                           ;main2.c: 932: int secH = seconds / 10;
  5149                           
  5150                           ; BSR set to: 1
  5151  001492  C1F0  F031         	movff	_seconds,___awdiv@dividend
  5152  001496  C1F1  F032         	movff	_seconds+1,___awdiv@dividend+1
  5153  00149A  0E00               	movlw	0
  5154  00149C  6E34               	movwf	___awdiv@divisor+1,c
  5155  00149E  0E0A               	movlw	10
  5156  0014A0  6E33               	movwf	___awdiv@divisor,c
  5157  0014A2  EC7E  F00E         	call	___awdiv	;wreg free
  5158  0014A6  C031  F18C         	movff	?___awdiv,mode_clock@secH
  5159  0014AA  C032  F18D         	movff	?___awdiv+1,mode_clock@secH+1
  5160                           
  5161                           ;main2.c: 933: LATA = 0;
  5162  0014AE  0E00               	movlw	0
  5163  0014B0  6E89               	movwf	3977,c	;volatile
  5164                           
  5165                           ;main2.c: 934: int secL = seconds % 10;
  5166  0014B2  C1F0  F031         	movff	_seconds,___awmod@dividend
  5167  0014B6  C1F1  F032         	movff	_seconds+1,___awmod@dividend+1
  5168  0014BA  0E00               	movlw	0
  5169  0014BC  6E34               	movwf	___awmod@divisor+1,c
  5170  0014BE  0E0A               	movlw	10
  5171  0014C0  6E33               	movwf	___awmod@divisor,c
  5172  0014C2  ECC0  F00E         	call	___awmod	;wreg free
  5173  0014C6  C031  F18E         	movff	?___awmod,mode_clock@secL
  5174  0014CA  C032  F18F         	movff	?___awmod+1,mode_clock@secL+1
  5175                           
  5176                           ;main2.c: 935: delay = 80;
  5177  0014CE  0E00               	movlw	0
  5178  0014D0  0101               	movlb	1	; () banked
  5179  0014D2  6FAB               	movwf	(mode_clock@delay+1)& (0+255),b
  5180  0014D4  0E50               	movlw	80
  5181  0014D6  6FAA               	movwf	mode_clock@delay& (0+255),b
  5182  0014D8                     l3849:
  5183                           
  5184                           ; BSR set to: 1
  5185  0014D8  07AA               	decf	mode_clock@delay& (0+255),f,b
  5186  0014DA  A0D8               	btfss	status,0,c
  5187  0014DC  07AB               	decf	(mode_clock@delay+1)& (0+255),f,b
  5188  0014DE  29AA               	incf	mode_clock@delay& (0+255),w,b
  5189  0014E0  E1FB               	bnz	l3849
  5190  0014E2  29AB               	incf	(mode_clock@delay+1)& (0+255),w,b
  5191  0014E4  A4D8               	btfss	status,2,c
  5192  0014E6  D7F8               	goto	l410
  5193                           
  5194                           ; BSR set to: 1
  5195                           ;main2.c: 939: display_num(secH);
  5196                           
  5197                           ; BSR set to: 1
  5198  0014E8  C18C  F039         	movff	mode_clock@secH,display_num@n
  5199  0014EC  C18D  F03A         	movff	mode_clock@secH+1,display_num@n+1
  5200  0014F0  EC32  F00E         	call	_display_num	;wreg free
  5201                           
  5202                           ;main2.c: 940: display_num(secL);
  5203  0014F4  C18E  F039         	movff	mode_clock@secL,display_num@n
  5204  0014F8  C18F  F03A         	movff	mode_clock@secL+1,display_num@n+1
  5205  0014FC  EC32  F00E         	call	_display_num	;wreg free
  5206                           
  5207                           ;main2.c: 943: delay = 865;
  5208  001500  0E03               	movlw	3
  5209  001502  0101               	movlb	1	; () banked
  5210  001504  6FAB               	movwf	(mode_clock@delay+1)& (0+255),b
  5211  001506  0E61               	movlw	97
  5212  001508  6FAA               	movwf	mode_clock@delay& (0+255),b
  5213  00150A                     l3855:
  5214                           
  5215                           ; BSR set to: 1
  5216  00150A  07AA               	decf	mode_clock@delay& (0+255),f,b
  5217  00150C  A0D8               	btfss	status,0,c
  5218  00150E  07AB               	decf	(mode_clock@delay+1)& (0+255),f,b
  5219  001510  29AA               	incf	mode_clock@delay& (0+255),w,b
  5220  001512  E1FB               	bnz	l3855
  5221  001514  29AB               	incf	(mode_clock@delay+1)& (0+255),w,b
  5222  001516  A4D8               	btfss	status,2,c
  5223  001518  D7F8               	goto	l413
  5224                           
  5225                           ; BSR set to: 1
  5226                           ;main2.c: 947: int *show = (int*) X;
  5227                           
  5228                           ; BSR set to: 1
  5229  00151A  0E6A               	movlw	low mode_clock@X
  5230  00151C  6FA8               	movwf	mode_clock@show& (0+255),b
  5231  00151E  0E01               	movlw	high mode_clock@X
  5232  001520  6FA9               	movwf	(mode_clock@show+1)& (0+255),b
  5233                           
  5234                           ; BSR set to: 1
  5235                           ;main2.c: 948: for(int i = 0; i < 14; ++i, ++show){
  5236  001522  0E00               	movlw	0
  5237  001524  6F9F               	movwf	(mode_clock@i+1)& (0+255),b
  5238  001526  0E00               	movlw	0
  5239  001528  6F9E               	movwf	mode_clock@i& (0+255),b
  5240  00152A                     l3861:
  5241                           
  5242                           ; BSR set to: 1
  5243  00152A  BF9F               	btfsc	(mode_clock@i+1)& (0+255),7,b
  5244  00152C  D006               	goto	l415
  5245  00152E  519F               	movf	(mode_clock@i+1)& (0+255),w,b
  5246  001530  E13C               	bnz	l3881
  5247  001532  0E0E               	movlw	14
  5248  001534  5D9E               	subwf	mode_clock@i& (0+255),w,b
  5249  001536  B0D8               	btfsc	status,0,c
  5250  001538  D038               	goto	u5190
  5251  00153A                     l415:
  5252                           
  5253                           ; BSR set to: 1
  5254                           ;main2.c: 949: LATA = *show;
  5255                           
  5256                           ; BSR set to: 1
  5257  00153A  C1A8  FFD9         	movff	mode_clock@show,fsr2l
  5258  00153E  C1A9  FFDA         	movff	mode_clock@show+1,fsr2h
  5259  001542  50DF               	movf	indf2,w,c
  5260  001544  6E89               	movwf	3977,c	;volatile
  5261                           
  5262                           ;main2.c: 950: LATD = *show >> 8;
  5263  001546  C1A8  FFD9         	movff	mode_clock@show,fsr2l
  5264  00154A  C1A9  FFDA         	movff	mode_clock@show+1,fsr2h
  5265  00154E  CFDE F03B          	movff	postinc2,??_mode_clock
  5266  001552  CFDD F03C          	movff	postdec2,??_mode_clock+1
  5267  001556  C03C  F03B         	movff	??_mode_clock+1,??_mode_clock
  5268  00155A  6A3C               	clrf	??_mode_clock+1,c
  5269  00155C  BE3B               	btfsc	??_mode_clock,7,c
  5270  00155E  683C               	setf	??_mode_clock+1,c
  5271  001560  503B               	movf	??_mode_clock,w,c
  5272  001562  6E8C               	movwf	3980,c	;volatile
  5273                           
  5274                           ; BSR set to: 1
  5275                           ;main2.c: 951: int bright = 40;
  5276  001564  0E00               	movlw	0
  5277  001566  6F91               	movwf	(mode_clock@bright+1)& (0+255),b
  5278  001568  0E28               	movlw	40
  5279  00156A  6F90               	movwf	mode_clock@bright& (0+255),b
  5280  00156C                     l3869:
  5281                           
  5282                           ; BSR set to: 1
  5283  00156C  0790               	decf	mode_clock@bright& (0+255),f,b
  5284  00156E  A0D8               	btfss	status,0,c
  5285  001570  0791               	decf	(mode_clock@bright+1)& (0+255),f,b
  5286  001572  2990               	incf	mode_clock@bright& (0+255),w,b
  5287  001574  E1FB               	bnz	l3869
  5288  001576  2991               	incf	(mode_clock@bright+1)& (0+255),w,b
  5289  001578  A4D8               	btfss	status,2,c
  5290  00157A  D7F8               	goto	l418
  5291                           
  5292                           ; BSR set to: 1
  5293                           ;main2.c: 953: LATA = 0;
  5294                           
  5295                           ; BSR set to: 1
  5296  00157C  0E00               	movlw	0
  5297  00157E  6E89               	movwf	3977,c	;volatile
  5298                           
  5299                           ;main2.c: 954: LATD = 0;
  5300  001580  0E00               	movlw	0
  5301  001582  6E8C               	movwf	3980,c	;volatile
  5302                           
  5303                           ;main2.c: 955: int dark = 40;
  5304  001584  0E00               	movlw	0
  5305  001586  6F93               	movwf	(mode_clock@dark+1)& (0+255),b
  5306  001588  0E28               	movlw	40
  5307  00158A  6F92               	movwf	mode_clock@dark& (0+255),b
  5308  00158C                     l3873:
  5309                           
  5310                           ; BSR set to: 1
  5311  00158C  0792               	decf	mode_clock@dark& (0+255),f,b
  5312  00158E  A0D8               	btfss	status,0,c
  5313  001590  0793               	decf	(mode_clock@dark+1)& (0+255),f,b
  5314  001592  2992               	incf	mode_clock@dark& (0+255),w,b
  5315  001594  E1FB               	bnz	l3873
  5316  001596  2993               	incf	(mode_clock@dark+1)& (0+255),w,b
  5317  001598  A4D8               	btfss	status,2,c
  5318  00159A  D7F8               	goto	l421
  5319                           
  5320                           ; BSR set to: 1
  5321                           
  5322                           ; BSR set to: 1
  5323  00159C  4B9E               	infsnz	mode_clock@i& (0+255),f,b
  5324  00159E  2B9F               	incf	(mode_clock@i+1)& (0+255),f,b
  5325                           
  5326                           ; BSR set to: 1
  5327  0015A0  0E02               	movlw	2
  5328  0015A2  27A8               	addwf	mode_clock@show& (0+255),f,b
  5329  0015A4  0E00               	movlw	0
  5330  0015A6  23A9               	addwfc	(mode_clock@show+1)& (0+255),f,b
  5331  0015A8  D7C0               	goto	l3861
  5332  0015AA                     u5190:
  5333  0015AA                     l3881:
  5334                           
  5335                           ; BSR set to: 1
  5336                           ;main2.c: 957: }
  5337                           ;main2.c: 960: for(int i = 0; i < 4; ++i){
  5338  0015AA  0E00               	movlw	0
  5339  0015AC  6FA7               	movwf	(mode_clock@i_505+1)& (0+255),b
  5340  0015AE  0E00               	movlw	0
  5341  0015B0  6FA6               	movwf	mode_clock@i_505& (0+255),b
  5342                           
  5343                           ; BSR set to: 1
  5344  0015B2  BFA7               	btfsc	(mode_clock@i_505+1)& (0+255),7,b
  5345  0015B4  D006               	goto	l423
  5346  0015B6  51A7               	movf	(mode_clock@i_505+1)& (0+255),w,b
  5347  0015B8  E16C               	bnz	l424
  5348  0015BA  0E04               	movlw	4
  5349  0015BC  5DA6               	subwf	mode_clock@i_505& (0+255),w,b
  5350  0015BE  B0D8               	btfsc	status,0,c
  5351  0015C0  D068               	goto	u5260
  5352  0015C2                     l423:
  5353                           
  5354                           ; BSR set to: 1
  5355                           ;main2.c: 961: show = (int*)MAS[i];
  5356                           
  5357                           ; BSR set to: 1
  5358  0015C2  C1A6  F031         	movff	mode_clock@i_505,___wmul@multiplier
  5359  0015C6  C1A7  F032         	movff	mode_clock@i_505+1,___wmul@multiplier+1
  5360  0015CA  0E00               	movlw	0
  5361  0015CC  6E34               	movwf	___wmul@multiplicand+1,c
  5362  0015CE  0E14               	movlw	20
  5363  0015D0  6E33               	movwf	___wmul@multiplicand,c
  5364  0015D2  EC67  F00F         	call	___wmul	;wreg free
  5365  0015D6  0E00               	movlw	low mode_clock@MAS
  5366  0015D8  2431               	addwf	?___wmul,w,c
  5367  0015DA  0101               	movlb	1	; () banked
  5368  0015DC  6FA8               	movwf	mode_clock@show& (0+255),b
  5369  0015DE  0E01               	movlw	high mode_clock@MAS
  5370  0015E0  2032               	addwfc	?___wmul+1,w,c
  5371  0015E2  6FA9               	movwf	(mode_clock@show+1)& (0+255),b
  5372                           
  5373                           ; BSR set to: 1
  5374                           ;main2.c: 962: for(int j = 0; j < 10; ++j, ++show){
  5375  0015E4  0E00               	movlw	0
  5376  0015E6  6FA1               	movwf	(mode_clock@j+1)& (0+255),b
  5377  0015E8  0E00               	movlw	0
  5378  0015EA  6FA0               	movwf	mode_clock@j& (0+255),b
  5379  0015EC                     l3891:
  5380                           
  5381                           ; BSR set to: 1
  5382  0015EC  BFA1               	btfsc	(mode_clock@j+1)& (0+255),7,b
  5383  0015EE  D006               	goto	l425
  5384  0015F0  51A1               	movf	(mode_clock@j+1)& (0+255),w,b
  5385  0015F2  E13C               	bnz	l3911
  5386  0015F4  0E0A               	movlw	10
  5387  0015F6  5DA0               	subwf	mode_clock@j& (0+255),w,b
  5388  0015F8  B0D8               	btfsc	status,0,c
  5389  0015FA  D038               	goto	u5240
  5390  0015FC                     l425:
  5391                           
  5392                           ; BSR set to: 1
  5393                           ;main2.c: 963: LATA = *show;
  5394                           
  5395                           ; BSR set to: 1
  5396  0015FC  C1A8  FFD9         	movff	mode_clock@show,fsr2l
  5397  001600  C1A9  FFDA         	movff	mode_clock@show+1,fsr2h
  5398  001604  50DF               	movf	indf2,w,c
  5399  001606  6E89               	movwf	3977,c	;volatile
  5400                           
  5401                           ;main2.c: 964: LATD = *show >> 8;
  5402  001608  C1A8  FFD9         	movff	mode_clock@show,fsr2l
  5403  00160C  C1A9  FFDA         	movff	mode_clock@show+1,fsr2h
  5404  001610  CFDE F03B          	movff	postinc2,??_mode_clock
  5405  001614  CFDD F03C          	movff	postdec2,??_mode_clock+1
  5406  001618  C03C  F03B         	movff	??_mode_clock+1,??_mode_clock
  5407  00161C  6A3C               	clrf	??_mode_clock+1,c
  5408  00161E  BE3B               	btfsc	??_mode_clock,7,c
  5409  001620  683C               	setf	??_mode_clock+1,c
  5410  001622  503B               	movf	??_mode_clock,w,c
  5411  001624  6E8C               	movwf	3980,c	;volatile
  5412                           
  5413                           ; BSR set to: 1
  5414                           ;main2.c: 965: int bright = 40;
  5415  001626  0E00               	movlw	0
  5416  001628  6F95               	movwf	(mode_clock@bright_507+1)& (0+255),b
  5417  00162A  0E28               	movlw	40
  5418  00162C  6F94               	movwf	mode_clock@bright_507& (0+255),b
  5419  00162E                     l3899:
  5420                           
  5421                           ; BSR set to: 1
  5422  00162E  0794               	decf	mode_clock@bright_507& (0+255),f,b
  5423  001630  A0D8               	btfss	status,0,c
  5424  001632  0795               	decf	(mode_clock@bright_507+1)& (0+255),f,b
  5425  001634  2994               	incf	mode_clock@bright_507& (0+255),w,b
  5426  001636  E1FB               	bnz	l3899
  5427  001638  2995               	incf	(mode_clock@bright_507+1)& (0+255),w,b
  5428  00163A  A4D8               	btfss	status,2,c
  5429  00163C  D7F8               	goto	l428
  5430                           
  5431                           ; BSR set to: 1
  5432                           ;main2.c: 967: LATA = 0;
  5433                           
  5434                           ; BSR set to: 1
  5435  00163E  0E00               	movlw	0
  5436  001640  6E89               	movwf	3977,c	;volatile
  5437                           
  5438                           ;main2.c: 968: LATD = 0;
  5439  001642  0E00               	movlw	0
  5440  001644  6E8C               	movwf	3980,c	;volatile
  5441                           
  5442                           ;main2.c: 969: int dark = 40;
  5443  001646  0E00               	movlw	0
  5444  001648  6F97               	movwf	(mode_clock@dark_508+1)& (0+255),b
  5445  00164A  0E28               	movlw	40
  5446  00164C  6F96               	movwf	mode_clock@dark_508& (0+255),b
  5447  00164E                     l3903:
  5448                           
  5449                           ; BSR set to: 1
  5450  00164E  0796               	decf	mode_clock@dark_508& (0+255),f,b
  5451  001650  A0D8               	btfss	status,0,c
  5452  001652  0797               	decf	(mode_clock@dark_508+1)& (0+255),f,b
  5453  001654  2996               	incf	mode_clock@dark_508& (0+255),w,b
  5454  001656  E1FB               	bnz	l3903
  5455  001658  2997               	incf	(mode_clock@dark_508+1)& (0+255),w,b
  5456  00165A  A4D8               	btfss	status,2,c
  5457  00165C  D7F8               	goto	l431
  5458                           
  5459                           ; BSR set to: 1
  5460                           
  5461                           ; BSR set to: 1
  5462  00165E  4BA0               	infsnz	mode_clock@j& (0+255),f,b
  5463  001660  2BA1               	incf	(mode_clock@j+1)& (0+255),f,b
  5464                           
  5465                           ; BSR set to: 1
  5466  001662  0E02               	movlw	2
  5467  001664  27A8               	addwf	mode_clock@show& (0+255),f,b
  5468  001666  0E00               	movlw	0
  5469  001668  23A9               	addwfc	(mode_clock@show+1)& (0+255),f,b
  5470  00166A  D7C0               	goto	l3891
  5471  00166C                     u5240:
  5472  00166C                     l3911:
  5473                           
  5474                           ; BSR set to: 1
  5475                           ;main2.c: 971: }
  5476                           ;main2.c: 972: delay = 100;
  5477  00166C  0E00               	movlw	0
  5478  00166E  6FAB               	movwf	(mode_clock@delay+1)& (0+255),b
  5479  001670  0E64               	movlw	100
  5480  001672  6FAA               	movwf	mode_clock@delay& (0+255),b
  5481  001674                     l3913:
  5482                           
  5483                           ; BSR set to: 1
  5484  001674  07AA               	decf	mode_clock@delay& (0+255),f,b
  5485  001676  A0D8               	btfss	status,0,c
  5486  001678  07AB               	decf	(mode_clock@delay+1)& (0+255),f,b
  5487  00167A  29AA               	incf	mode_clock@delay& (0+255),w,b
  5488  00167C  E1FB               	bnz	l3913
  5489  00167E  29AB               	incf	(mode_clock@delay+1)& (0+255),w,b
  5490  001680  A4D8               	btfss	status,2,c
  5491  001682  D7F8               	goto	l434
  5492                           
  5493                           ; BSR set to: 1
  5494                           
  5495                           ; BSR set to: 1
  5496  001684  4BA6               	infsnz	mode_clock@i_505& (0+255),f,b
  5497  001686  2BA7               	incf	(mode_clock@i_505+1)& (0+255),f,b
  5498                           
  5499                           ; BSR set to: 1
  5500  001688  BFA7               	btfsc	(mode_clock@i_505+1)& (0+255),7,b
  5501  00168A  D79B               	goto	l423
  5502  00168C  51A7               	movf	(mode_clock@i_505+1)& (0+255),w,b
  5503  00168E  E101               	bnz	l3919
  5504  001690  D794               	goto	L12
  5505  001692                     u5260:
  5506  001692                     l424:
  5507  001692                     l3919:
  5508                           
  5509                           ; BSR set to: 1
  5510                           ;main2.c: 974: }
  5511                           ;main2.c: 975: delay = 300;
  5512  001692  0E01               	movlw	1
  5513  001694  6FAB               	movwf	(mode_clock@delay+1)& (0+255),b
  5514  001696  0E2C               	movlw	44
  5515  001698  6FAA               	movwf	mode_clock@delay& (0+255),b
  5516  00169A                     l3921:
  5517                           
  5518                           ; BSR set to: 1
  5519  00169A  07AA               	decf	mode_clock@delay& (0+255),f,b
  5520  00169C  A0D8               	btfss	status,0,c
  5521  00169E  07AB               	decf	(mode_clock@delay+1)& (0+255),f,b
  5522  0016A0  29AA               	incf	mode_clock@delay& (0+255),w,b
  5523  0016A2  E1FB               	bnz	l3921
  5524  0016A4  29AB               	incf	(mode_clock@delay+1)& (0+255),w,b
  5525  0016A6  A4D8               	btfss	status,2,c
  5526  0016A8  D7F8               	goto	l437
  5527                           
  5528                           ; BSR set to: 1
  5529                           ;main2.c: 977: int *face_i = (int*)face;
  5530                           
  5531                           ; BSR set to: 1
  5532  0016AA  0E50               	movlw	low mode_clock@face
  5533  0016AC  6FA2               	movwf	mode_clock@face_i& (0+255),b
  5534  0016AE  0E01               	movlw	high mode_clock@face
  5535  0016B0  6FA3               	movwf	(mode_clock@face_i+1)& (0+255),b
  5536                           
  5537                           ; BSR set to: 1
  5538                           ;main2.c: 978: for(int i = 0; i < 13; ++i, ++face_i){
  5539  0016B2  0E00               	movlw	0
  5540  0016B4  6FA5               	movwf	(mode_clock@i_510+1)& (0+255),b
  5541  0016B6  0E00               	movlw	0
  5542  0016B8  6FA4               	movwf	mode_clock@i_510& (0+255),b
  5543  0016BA                     l3927:
  5544                           
  5545                           ; BSR set to: 1
  5546  0016BA  BFA5               	btfsc	(mode_clock@i_510+1)& (0+255),7,b
  5547  0016BC  D006               	goto	l439
  5548  0016BE  51A5               	movf	(mode_clock@i_510+1)& (0+255),w,b
  5549  0016C0  E13C               	bnz	l3947
  5550  0016C2  0E0D               	movlw	13
  5551  0016C4  5DA4               	subwf	mode_clock@i_510& (0+255),w,b
  5552  0016C6  B0D8               	btfsc	status,0,c
  5553  0016C8  D038               	goto	u5310
  5554  0016CA                     l439:
  5555                           
  5556                           ; BSR set to: 1
  5557                           ;main2.c: 979: LATA = *face_i;
  5558                           
  5559                           ; BSR set to: 1
  5560  0016CA  C1A2  FFD9         	movff	mode_clock@face_i,fsr2l
  5561  0016CE  C1A3  FFDA         	movff	mode_clock@face_i+1,fsr2h
  5562  0016D2  50DF               	movf	indf2,w,c
  5563  0016D4  6E89               	movwf	3977,c	;volatile
  5564                           
  5565                           ;main2.c: 980: LATD = *face_i >> 8;
  5566  0016D6  C1A2  FFD9         	movff	mode_clock@face_i,fsr2l
  5567  0016DA  C1A3  FFDA         	movff	mode_clock@face_i+1,fsr2h
  5568  0016DE  CFDE F03B          	movff	postinc2,??_mode_clock
  5569  0016E2  CFDD F03C          	movff	postdec2,??_mode_clock+1
  5570  0016E6  C03C  F03B         	movff	??_mode_clock+1,??_mode_clock
  5571  0016EA  6A3C               	clrf	??_mode_clock+1,c
  5572  0016EC  BE3B               	btfsc	??_mode_clock,7,c
  5573  0016EE  683C               	setf	??_mode_clock+1,c
  5574  0016F0  503B               	movf	??_mode_clock,w,c
  5575  0016F2  6E8C               	movwf	3980,c	;volatile
  5576                           
  5577                           ; BSR set to: 1
  5578                           ;main2.c: 981: int bright = 40;
  5579  0016F4  0E00               	movlw	0
  5580  0016F6  6F99               	movwf	(mode_clock@bright_511+1)& (0+255),b
  5581  0016F8  0E28               	movlw	40
  5582  0016FA  6F98               	movwf	mode_clock@bright_511& (0+255),b
  5583  0016FC                     l3935:
  5584                           
  5585                           ; BSR set to: 1
  5586  0016FC  0798               	decf	mode_clock@bright_511& (0+255),f,b
  5587  0016FE  A0D8               	btfss	status,0,c
  5588  001700  0799               	decf	(mode_clock@bright_511+1)& (0+255),f,b
  5589  001702  2998               	incf	mode_clock@bright_511& (0+255),w,b
  5590  001704  E1FB               	bnz	l3935
  5591  001706  2999               	incf	(mode_clock@bright_511+1)& (0+255),w,b
  5592  001708  A4D8               	btfss	status,2,c
  5593  00170A  D7F8               	goto	l442
  5594                           
  5595                           ; BSR set to: 1
  5596                           ;main2.c: 983: LATA = 0;
  5597                           
  5598                           ; BSR set to: 1
  5599  00170C  0E00               	movlw	0
  5600  00170E  6E89               	movwf	3977,c	;volatile
  5601                           
  5602                           ;main2.c: 984: LATD = 0;
  5603  001710  0E00               	movlw	0
  5604  001712  6E8C               	movwf	3980,c	;volatile
  5605                           
  5606                           ;main2.c: 985: int dark = 40;
  5607  001714  0E00               	movlw	0
  5608  001716  6F9B               	movwf	(mode_clock@dark_512+1)& (0+255),b
  5609  001718  0E28               	movlw	40
  5610  00171A  6F9A               	movwf	mode_clock@dark_512& (0+255),b
  5611  00171C                     l3939:
  5612                           
  5613                           ; BSR set to: 1
  5614  00171C  079A               	decf	mode_clock@dark_512& (0+255),f,b
  5615  00171E  A0D8               	btfss	status,0,c
  5616  001720  079B               	decf	(mode_clock@dark_512+1)& (0+255),f,b
  5617  001722  299A               	incf	mode_clock@dark_512& (0+255),w,b
  5618  001724  E1FB               	bnz	l3939
  5619  001726  299B               	incf	(mode_clock@dark_512+1)& (0+255),w,b
  5620  001728  A4D8               	btfss	status,2,c
  5621  00172A  D7F8               	goto	l445
  5622                           
  5623                           ; BSR set to: 1
  5624                           
  5625                           ; BSR set to: 1
  5626  00172C  4BA4               	infsnz	mode_clock@i_510& (0+255),f,b
  5627  00172E  2BA5               	incf	(mode_clock@i_510+1)& (0+255),f,b
  5628                           
  5629                           ; BSR set to: 1
  5630  001730  0E02               	movlw	2
  5631  001732  27A2               	addwf	mode_clock@face_i& (0+255),f,b
  5632  001734  0E00               	movlw	0
  5633  001736  23A3               	addwfc	(mode_clock@face_i+1)& (0+255),f,b
  5634  001738  D7C0               	goto	l3927
  5635  00173A                     u5310:
  5636  00173A                     l3947:
  5637                           
  5638                           ; BSR set to: 1
  5639                           ;main2.c: 987: }
  5640                           ;main2.c: 989: delay = 865;
  5641  00173A  0E03               	movlw	3
  5642  00173C  6FAB               	movwf	(mode_clock@delay+1)& (0+255),b
  5643  00173E  0E61               	movlw	97
  5644  001740  6FAA               	movwf	mode_clock@delay& (0+255),b
  5645  001742                     l3949:
  5646                           
  5647                           ; BSR set to: 1
  5648  001742  07AA               	decf	mode_clock@delay& (0+255),f,b
  5649  001744  A0D8               	btfss	status,0,c
  5650  001746  07AB               	decf	(mode_clock@delay+1)& (0+255),f,b
  5651  001748  29AA               	incf	mode_clock@delay& (0+255),w,b
  5652  00174A  E1FB               	bnz	l3949
  5653  00174C  29AB               	incf	(mode_clock@delay+1)& (0+255),w,b
  5654  00174E  A4D8               	btfss	status,2,c
  5655  001750  D7F8               	goto	l448
  5656  001752                     u5320:
  5657                           
  5658                           ; BSR set to: 1
  5659                           
  5660                           ; BSR set to: 1
  5661                           
  5662                           ; BSR set to: 1
  5663  001752  0786               	decf	mode_clock@display_cycle& (0+255),f,b
  5664  001754  A0D8               	btfss	status,0,c
  5665  001756  0787               	decf	(mode_clock@display_cycle+1)& (0+255),f,b
  5666  001758  5186               	movf	mode_clock@display_cycle& (0+255),w,b
  5667  00175A  1187               	iorwf	(mode_clock@display_cycle+1)& (0+255),w,b
  5668  00175C  B4D8               	btfsc	status,2,c
  5669  00175E  0012               	return	
  5670  001760  D619               	goto	l395
  5671  001762                     __end_of_mode_clock:
  5672                           	opt stack 0
  5673                           tblptru	equ	0xFF8
  5674                           tblptrh	equ	0xFF7
  5675                           tblptrl	equ	0xFF6
  5676                           tablat	equ	0xFF5
  5677                           intcon	equ	0xFF2
  5678                           postinc0	equ	0xFEE
  5679                           wreg	equ	0xFE8
  5680                           postdec1	equ	0xFE5
  5681                           plusw1	equ	0xFE3
  5682                           fsr1l	equ	0xFE1
  5683                           indf2	equ	0xFDF
  5684                           postinc2	equ	0xFDE
  5685                           postdec2	equ	0xFDD
  5686                           plusw2	equ	0xFDB
  5687                           fsr2h	equ	0xFDA
  5688                           fsr2l	equ	0xFD9
  5689                           status	equ	0xFD8
  5690                           
  5691 ;; *************** function _display_num *****************
  5692 ;; Defined at:
  5693 ;;		line 731 in file "main2.c"
  5694 ;; Parameters:    Size  Location     Type
  5695 ;;  n               2   26[COMRAM] int 
  5696 ;; Auto vars:     Size  Location     Type
  5697 ;;  dark_i          2   52[BANK0 ] int 
  5698 ;;  bright_i        2   50[BANK0 ] int 
  5699 ;;  i               2   56[BANK0 ] int 
  5700 ;;  num            50    0[BANK0 ] unsigned char [5][10]
  5701 ;;  iter            2   54[BANK0 ] PTR unsigned char 
  5702 ;;		 -> display_num@num(50), 
  5703 ;; Return value:  Size  Location     Type
  5704 ;;                  1    wreg      void 
  5705 ;; Registers used:
  5706 ;;		wreg, fsr1l, fsr1h, fsr2l, fsr2h, status,2, status,0, prodl, prodh, cstack
  5707 ;; Tracked objects:
  5708 ;;		On entry : 0/0
  5709 ;;		On exit  : 0/0
  5710 ;;		Unchanged: 0/0
  5711 ;; Data sizes:     COMRAM   BANK0   BANK1   BANK2   BANK3   BANK4   BANK5
  5712 ;;      Params:         2       0       0       0       0       0       0
  5713 ;;      Locals:         0      58       0       0       0       0       0
  5714 ;;      Temps:          0       0       0       0       0       0       0
  5715 ;;      Totals:         2      58       0       0       0       0       0
  5716 ;;Total ram usage:       60 bytes
  5717 ;; Hardware stack levels used:    1
  5718 ;; Hardware stack levels required when called:    3
  5719 ;; This function calls:
  5720 ;;		___wmul
  5721 ;; This function is called by:
  5722 ;;		_mode_clock
  5723 ;; This function uses a non-reentrant model
  5724 ;;
  5725                           
  5726                           	psect	text5
  5727  001C64                     __ptext5:
  5728                           	opt stack 0
  5729  001C64                     _display_num:
  5730                           	opt stack 26
  5731                           
  5732                           ;main2.c: 732: unsigned char num[10][5] = {
  5733                           ;main2.c: 733: {
  5734                           ;main2.c: 734: 0b00011111,
  5735                           ;main2.c: 735: 0b00010001,
  5736                           ;main2.c: 736: 0b00010001,
  5737                           ;main2.c: 737: 0b00010001,
  5738                           ;main2.c: 738: 0b00011111
  5739                           ;main2.c: 739: },
  5740                           ;main2.c: 740: {
  5741                           ;main2.c: 741: 0b00000000,
  5742                           ;main2.c: 742: 0b00000000,
  5743                           ;main2.c: 743: 0b00011111,
  5744                           ;main2.c: 744: 0b00000000,
  5745                           ;main2.c: 745: 0b00000000
  5746                           ;main2.c: 746: },
  5747                           ;main2.c: 747: {
  5748                           ;main2.c: 748: 0b00011100,
  5749                           ;main2.c: 749: 0b00010101,
  5750                           ;main2.c: 750: 0b00010101,
  5751                           ;main2.c: 751: 0b00010101,
  5752                           ;main2.c: 752: 0b00010111
  5753                           
  5754                           ; BSR set to: 1
  5755                           ;incstack = 0
  5756  001C64  EE22  F050         	lfsr	2,display_num@F3131
  5757  001C68  EE10  F080         	lfsr	1,display_num@num
  5758  001C6C  0E31               	movlw	49
  5759  001C6E                     u4251:
  5760  001C6E  CFDB FFE3          	movff	plusw2,plusw1
  5761  001C72  06E8               	decf	wreg,f,c
  5762  001C74  E2FC               	bc	u4251
  5763                           
  5764                           ;main2.c: 804: unsigned char *iter = (unsigned char*)num[n];
  5765  001C76  C039  F031         	movff	display_num@n,___wmul@multiplier
  5766  001C7A  C03A  F032         	movff	display_num@n+1,___wmul@multiplier+1
  5767  001C7E  0E00               	movlw	0
  5768  001C80  6E34               	movwf	___wmul@multiplicand+1,c
  5769  001C82  0E05               	movlw	5
  5770  001C84  6E33               	movwf	___wmul@multiplicand,c
  5771  001C86  EC67  F00F         	call	___wmul	;wreg free
  5772  001C8A  0E80               	movlw	low display_num@num
  5773  001C8C  2431               	addwf	?___wmul,w,c
  5774  001C8E  0100               	movlb	0	; () banked
  5775  001C90  6FB6               	movwf	display_num@iter& (0+255),b
  5776  001C92  0E00               	movlw	high display_num@num
  5777  001C94  2032               	addwfc	?___wmul+1,w,c
  5778  001C96  6FB7               	movwf	(display_num@iter+1)& (0+255),b
  5779                           
  5780                           ; BSR set to: 0
  5781                           ;main2.c: 805: for(int i = 0; i < 5; ++i, ++iter){
  5782  001C98  0E00               	movlw	0
  5783  001C9A  6FB9               	movwf	(display_num@i+1)& (0+255),b
  5784  001C9C  0E00               	movlw	0
  5785  001C9E  6FB8               	movwf	display_num@i& (0+255),b
  5786  001CA0                     l3393:
  5787                           
  5788                           ; BSR set to: 0
  5789  001CA0  BFB9               	btfsc	(display_num@i+1)& (0+255),7,b
  5790  001CA2  D006               	goto	l377
  5791  001CA4  51B9               	movf	(display_num@i+1)& (0+255),w,b
  5792  001CA6  E129               	bnz	l385
  5793  001CA8  0E05               	movlw	5
  5794  001CAA  5DB8               	subwf	display_num@i& (0+255),w,b
  5795  001CAC  B0D8               	btfsc	status,0,c
  5796  001CAE  0012               	return	
  5797  001CB0                     l377:
  5798                           
  5799                           ; BSR set to: 0
  5800                           ;main2.c: 806: LATA = *iter;
  5801                           
  5802                           ; BSR set to: 0
  5803  001CB0  C0B6  FFD9         	movff	display_num@iter,fsr2l
  5804  001CB4  C0B7  FFDA         	movff	display_num@iter+1,fsr2h
  5805  001CB8  50DF               	movf	indf2,w,c
  5806  001CBA  6E89               	movwf	3977,c	;volatile
  5807                           
  5808                           ; BSR set to: 0
  5809                           ;main2.c: 807: int bright_i = 40;
  5810  001CBC  0E00               	movlw	0
  5811  001CBE  6FB3               	movwf	(display_num@bright_i+1)& (0+255),b
  5812  001CC0  0E28               	movlw	40
  5813  001CC2  6FB2               	movwf	display_num@bright_i& (0+255),b
  5814  001CC4                     l3401:
  5815                           
  5816                           ; BSR set to: 0
  5817  001CC4  07B2               	decf	display_num@bright_i& (0+255),f,b
  5818  001CC6  A0D8               	btfss	status,0,c
  5819  001CC8  07B3               	decf	(display_num@bright_i+1)& (0+255),f,b
  5820  001CCA  29B2               	incf	display_num@bright_i& (0+255),w,b
  5821  001CCC  E1FB               	bnz	l3401
  5822  001CCE  29B3               	incf	(display_num@bright_i+1)& (0+255),w,b
  5823  001CD0  A4D8               	btfss	status,2,c
  5824  001CD2  D7F8               	goto	l380
  5825                           
  5826                           ; BSR set to: 0
  5827                           ;main2.c: 809: LATA = 0;
  5828                           
  5829                           ; BSR set to: 0
  5830  001CD4  0E00               	movlw	0
  5831  001CD6  6E89               	movwf	3977,c	;volatile
  5832                           
  5833                           ;main2.c: 810: int dark_i = 40;
  5834  001CD8  0E00               	movlw	0
  5835  001CDA  6FB5               	movwf	(display_num@dark_i+1)& (0+255),b
  5836  001CDC  0E28               	movlw	40
  5837  001CDE  6FB4               	movwf	display_num@dark_i& (0+255),b
  5838  001CE0                     l3405:
  5839                           
  5840                           ; BSR set to: 0
  5841  001CE0  07B4               	decf	display_num@dark_i& (0+255),f,b
  5842  001CE2  A0D8               	btfss	status,0,c
  5843  001CE4  07B5               	decf	(display_num@dark_i+1)& (0+255),f,b
  5844  001CE6  29B4               	incf	display_num@dark_i& (0+255),w,b
  5845  001CE8  E1FB               	bnz	l3405
  5846  001CEA  29B5               	incf	(display_num@dark_i+1)& (0+255),w,b
  5847  001CEC  A4D8               	btfss	status,2,c
  5848  001CEE  D7F8               	goto	l383
  5849                           
  5850                           ; BSR set to: 0
  5851                           
  5852                           ; BSR set to: 0
  5853  001CF0  4BB8               	infsnz	display_num@i& (0+255),f,b
  5854  001CF2  2BB9               	incf	(display_num@i+1)& (0+255),f,b
  5855  001CF4  4BB6               	infsnz	display_num@iter& (0+255),f,b
  5856  001CF6  2BB7               	incf	(display_num@iter+1)& (0+255),f,b
  5857  001CF8  D7D3               	goto	l3393
  5858  001CFA                     l385:
  5859                           
  5860                           ; BSR set to: 0
  5861  001CFA  0012               	return		;funcret
  5862  001CFC                     __end_of_display_num:
  5863                           	opt stack 0
  5864                           tblptru	equ	0xFF8
  5865                           tblptrh	equ	0xFF7
  5866                           tblptrl	equ	0xFF6
  5867                           tablat	equ	0xFF5
  5868                           intcon	equ	0xFF2
  5869                           postinc0	equ	0xFEE
  5870                           wreg	equ	0xFE8
  5871                           postdec1	equ	0xFE5
  5872                           plusw1	equ	0xFE3
  5873                           fsr1l	equ	0xFE1
  5874                           indf2	equ	0xFDF
  5875                           postinc2	equ	0xFDE
  5876                           postdec2	equ	0xFDD
  5877                           plusw2	equ	0xFDB
  5878                           fsr2h	equ	0xFDA
  5879                           fsr2l	equ	0xFD9
  5880                           status	equ	0xFD8
  5881                           
  5882 ;; *************** function ___wmul *****************
  5883 ;; Defined at:
  5884 ;;		line 15 in file "C:\Program Files (x86)\Microchip\xc8\v1.44\sources\common\Umul16.c"
  5885 ;; Parameters:    Size  Location     Type
  5886 ;;  multiplier      2   18[COMRAM] unsigned int 
  5887 ;;  multiplicand    2   20[COMRAM] unsigned int 
  5888 ;; Auto vars:     Size  Location     Type
  5889 ;;  product         2   22[COMRAM] unsigned int 
  5890 ;; Return value:  Size  Location     Type
  5891 ;;                  2   18[COMRAM] unsigned int 
  5892 ;; Registers used:
  5893 ;;		wreg, status,2, status,0, prodl, prodh
  5894 ;; Tracked objects:
  5895 ;;		On entry : 0/0
  5896 ;;		On exit  : 0/0
  5897 ;;		Unchanged: 0/0
  5898 ;; Data sizes:     COMRAM   BANK0   BANK1   BANK2   BANK3   BANK4   BANK5
  5899 ;;      Params:         4       0       0       0       0       0       0
  5900 ;;      Locals:         2       0       0       0       0       0       0
  5901 ;;      Temps:          0       0       0       0       0       0       0
  5902 ;;      Totals:         6       0       0       0       0       0       0
  5903 ;;Total ram usage:        6 bytes
  5904 ;; Hardware stack levels used:    1
  5905 ;; Hardware stack levels required when called:    2
  5906 ;; This function calls:
  5907 ;;		Nothing
  5908 ;; This function is called by:
  5909 ;;		_mode_snow
  5910 ;;		_mode_walker
  5911 ;;		_display_num
  5912 ;;		_mode_clock
  5913 ;; This function uses a non-reentrant model
  5914 ;;
  5915                           
  5916                           	psect	text6
  5917  001ECE                     __ptext6:
  5918                           	opt stack 0
  5919  001ECE                     ___wmul:
  5920                           	opt stack 27
  5921                           
  5922                           ; BSR set to: 0
  5923                           ;incstack = 0
  5924  001ECE  5031               	movf	___wmul@multiplier,w,c
  5925  001ED0  0233               	mulwf	___wmul@multiplicand,c
  5926  001ED2  CFF3 F035          	movff	prodl,___wmul@product
  5927  001ED6  CFF4 F036          	movff	prodh,___wmul@product+1
  5928  001EDA  5031               	movf	___wmul@multiplier,w,c
  5929  001EDC  0234               	mulwf	___wmul@multiplicand+1,c
  5930  001EDE  50F3               	movf	prodl,w,c
  5931  001EE0  2636               	addwf	___wmul@product+1,f,c
  5932  001EE2  5032               	movf	___wmul@multiplier+1,w,c
  5933  001EE4  0233               	mulwf	___wmul@multiplicand,c
  5934  001EE6  50F3               	movf	prodl,w,c
  5935  001EE8  2636               	addwf	___wmul@product+1,f,c
  5936  001EEA  C035  F031         	movff	___wmul@product,?___wmul
  5937  001EEE  C036  F032         	movff	___wmul@product+1,?___wmul+1
  5938  001EF2  0012               	return	
  5939  001EF4                     __end_of___wmul:
  5940                           	opt stack 0
  5941                           tblptru	equ	0xFF8
  5942                           tblptrh	equ	0xFF7
  5943                           tblptrl	equ	0xFF6
  5944                           tablat	equ	0xFF5
  5945                           prodh	equ	0xFF4
  5946                           prodl	equ	0xFF3
  5947                           intcon	equ	0xFF2
  5948                           postinc0	equ	0xFEE
  5949                           wreg	equ	0xFE8
  5950                           postdec1	equ	0xFE5
  5951                           plusw1	equ	0xFE3
  5952                           fsr1l	equ	0xFE1
  5953                           indf2	equ	0xFDF
  5954                           postinc2	equ	0xFDE
  5955                           postdec2	equ	0xFDD
  5956                           plusw2	equ	0xFDB
  5957                           fsr2h	equ	0xFDA
  5958                           fsr2l	equ	0xFD9
  5959                           status	equ	0xFD8
  5960                           
  5961 ;; *************** function ___awmod *****************
  5962 ;; Defined at:
  5963 ;;		line 8 in file "C:\Program Files (x86)\Microchip\xc8\v1.44\sources\common\awmod.c"
  5964 ;; Parameters:    Size  Location     Type
  5965 ;;  dividend        2   18[COMRAM] int 
  5966 ;;  divisor         2   20[COMRAM] int 
  5967 ;; Auto vars:     Size  Location     Type
  5968 ;;  sign            1   23[COMRAM] unsigned char 
  5969 ;;  counter         1   22[COMRAM] unsigned char 
  5970 ;; Return value:  Size  Location     Type
  5971 ;;                  2   18[COMRAM] int 
  5972 ;; Registers used:
  5973 ;;		wreg, status,2, status,0
  5974 ;; Tracked objects:
  5975 ;;		On entry : 0/0
  5976 ;;		On exit  : 0/0
  5977 ;;		Unchanged: 0/0
  5978 ;; Data sizes:     COMRAM   BANK0   BANK1   BANK2   BANK3   BANK4   BANK5
  5979 ;;      Params:         4       0       0       0       0       0       0
  5980 ;;      Locals:         2       0       0       0       0       0       0
  5981 ;;      Temps:          0       0       0       0       0       0       0
  5982 ;;      Totals:         6       0       0       0       0       0       0
  5983 ;;Total ram usage:        6 bytes
  5984 ;; Hardware stack levels used:    1
  5985 ;; Hardware stack levels required when called:    2
  5986 ;; This function calls:
  5987 ;;		Nothing
  5988 ;; This function is called by:
  5989 ;;		_mode_walker
  5990 ;;		_mode_clock
  5991 ;; This function uses a non-reentrant model
  5992 ;;
  5993                           
  5994                           	psect	text7
  5995  001D80                     __ptext7:
  5996                           	opt stack 0
  5997  001D80                     ___awmod:
  5998                           	opt stack 27
  5999                           
  6000                           ;incstack = 0
  6001  001D80  0E00               	movlw	0
  6002  001D82  6E36               	movwf	___awmod@sign,c
  6003  001D84  AE32               	btfss	___awmod@dividend+1,7,c
  6004  001D86  D006               	goto	l656
  6005  001D88  6C31               	negf	___awmod@dividend,c
  6006  001D8A  1E32               	comf	___awmod@dividend+1,f,c
  6007  001D8C  B0D8               	btfsc	status,0,c
  6008  001D8E  2A32               	incf	___awmod@dividend+1,f,c
  6009  001D90  0E01               	movlw	1
  6010  001D92  6E36               	movwf	___awmod@sign,c
  6011  001D94                     l656:
  6012  001D94  AE34               	btfss	___awmod@divisor+1,7,c
  6013  001D96  D004               	goto	l657
  6014  001D98  6C33               	negf	___awmod@divisor,c
  6015  001D9A  1E34               	comf	___awmod@divisor+1,f,c
  6016  001D9C  B0D8               	btfsc	status,0,c
  6017  001D9E  2A34               	incf	___awmod@divisor+1,f,c
  6018  001DA0                     l657:
  6019  001DA0  5033               	movf	___awmod@divisor,w,c
  6020  001DA2  1034               	iorwf	___awmod@divisor+1,w,c
  6021  001DA4  B4D8               	btfsc	status,2,c
  6022  001DA6  D018               	goto	l664
  6023  001DA8  0E01               	movlw	1
  6024  001DAA  6E35               	movwf	___awmod@counter,c
  6025  001DAC  D004               	goto	l659
  6026  001DAE  90D8               	bcf	status,0,c
  6027  001DB0  3633               	rlcf	___awmod@divisor,f,c
  6028  001DB2  3634               	rlcf	___awmod@divisor+1,f,c
  6029  001DB4  2A35               	incf	___awmod@counter,f,c
  6030  001DB6                     l659:
  6031  001DB6  AE34               	btfss	___awmod@divisor+1,7,c
  6032  001DB8  D7FA               	goto	l660
  6033  001DBA                     u4330:
  6034  001DBA  5033               	movf	___awmod@divisor,w,c
  6035  001DBC  5C31               	subwf	___awmod@dividend,w,c
  6036  001DBE  5034               	movf	___awmod@divisor+1,w,c
  6037  001DC0  5832               	subwfb	___awmod@dividend+1,w,c
  6038  001DC2  A0D8               	btfss	status,0,c
  6039  001DC4  D004               	goto	l663
  6040  001DC6  5033               	movf	___awmod@divisor,w,c
  6041  001DC8  5E31               	subwf	___awmod@dividend,f,c
  6042  001DCA  5034               	movf	___awmod@divisor+1,w,c
  6043  001DCC  5A32               	subwfb	___awmod@dividend+1,f,c
  6044  001DCE                     l663:
  6045  001DCE  90D8               	bcf	status,0,c
  6046  001DD0  3234               	rrcf	___awmod@divisor+1,f,c
  6047  001DD2  3233               	rrcf	___awmod@divisor,f,c
  6048  001DD4  2E35               	decfsz	___awmod@counter,f,c
  6049  001DD6  D7F1               	goto	u4330
  6050  001DD8                     l664:
  6051  001DD8  5036               	movf	___awmod@sign,w,c
  6052  001DDA  B4D8               	btfsc	status,2,c
  6053  001DDC  D004               	goto	l665
  6054  001DDE  6C31               	negf	___awmod@dividend,c
  6055  001DE0  1E32               	comf	___awmod@dividend+1,f,c
  6056  001DE2  B0D8               	btfsc	status,0,c
  6057  001DE4  2A32               	incf	___awmod@dividend+1,f,c
  6058  001DE6                     l665:
  6059  001DE6  C031  F031         	movff	___awmod@dividend,?___awmod
  6060  001DEA  C032  F032         	movff	___awmod@dividend+1,?___awmod+1
  6061  001DEE  0012               	return	
  6062  001DF0                     __end_of___awmod:
  6063                           	opt stack 0
  6064                           tblptru	equ	0xFF8
  6065                           tblptrh	equ	0xFF7
  6066                           tblptrl	equ	0xFF6
  6067                           tablat	equ	0xFF5
  6068                           prodh	equ	0xFF4
  6069                           prodl	equ	0xFF3
  6070                           intcon	equ	0xFF2
  6071                           postinc0	equ	0xFEE
  6072                           wreg	equ	0xFE8
  6073                           postdec1	equ	0xFE5
  6074                           plusw1	equ	0xFE3
  6075                           fsr1l	equ	0xFE1
  6076                           indf2	equ	0xFDF
  6077                           postinc2	equ	0xFDE
  6078                           postdec2	equ	0xFDD
  6079                           plusw2	equ	0xFDB
  6080                           fsr2h	equ	0xFDA
  6081                           fsr2l	equ	0xFD9
  6082                           status	equ	0xFD8
  6083                           
  6084 ;; *************** function ___awdiv *****************
  6085 ;; Defined at:
  6086 ;;		line 8 in file "C:\Program Files (x86)\Microchip\xc8\v1.44\sources\common\awdiv.c"
  6087 ;; Parameters:    Size  Location     Type
  6088 ;;  dividend        2   18[COMRAM] int 
  6089 ;;  divisor         2   20[COMRAM] int 
  6090 ;; Auto vars:     Size  Location     Type
  6091 ;;  quotient        2   24[COMRAM] int 
  6092 ;;  sign            1   23[COMRAM] unsigned char 
  6093 ;;  counter         1   22[COMRAM] unsigned char 
  6094 ;; Return value:  Size  Location     Type
  6095 ;;                  2   18[COMRAM] int 
  6096 ;; Registers used:
  6097 ;;		wreg, status,2, status,0
  6098 ;; Tracked objects:
  6099 ;;		On entry : 0/0
  6100 ;;		On exit  : 0/0
  6101 ;;		Unchanged: 0/0
  6102 ;; Data sizes:     COMRAM   BANK0   BANK1   BANK2   BANK3   BANK4   BANK5
  6103 ;;      Params:         4       0       0       0       0       0       0
  6104 ;;      Locals:         4       0       0       0       0       0       0
  6105 ;;      Temps:          0       0       0       0       0       0       0
  6106 ;;      Totals:         8       0       0       0       0       0       0
  6107 ;;Total ram usage:        8 bytes
  6108 ;; Hardware stack levels used:    1
  6109 ;; Hardware stack levels required when called:    2
  6110 ;; This function calls:
  6111 ;;		Nothing
  6112 ;; This function is called by:
  6113 ;;		_mode_clock
  6114 ;; This function uses a non-reentrant model
  6115 ;;
  6116                           
  6117                           	psect	text8
  6118  001CFC                     __ptext8:
  6119                           	opt stack 0
  6120  001CFC                     ___awdiv:
  6121                           	opt stack 27
  6122                           
  6123                           ;incstack = 0
  6124  001CFC  0E00               	movlw	0
  6125  001CFE  6E36               	movwf	___awdiv@sign,c
  6126  001D00  AE34               	btfss	___awdiv@divisor+1,7,c
  6127  001D02  D006               	goto	l643
  6128  001D04  6C33               	negf	___awdiv@divisor,c
  6129  001D06  1E34               	comf	___awdiv@divisor+1,f,c
  6130  001D08  B0D8               	btfsc	status,0,c
  6131  001D0A  2A34               	incf	___awdiv@divisor+1,f,c
  6132  001D0C  0E01               	movlw	1
  6133  001D0E  6E36               	movwf	___awdiv@sign,c
  6134  001D10                     l643:
  6135  001D10  AE32               	btfss	___awdiv@dividend+1,7,c
  6136  001D12  D006               	goto	l644
  6137  001D14  6C31               	negf	___awdiv@dividend,c
  6138  001D16  1E32               	comf	___awdiv@dividend+1,f,c
  6139  001D18  B0D8               	btfsc	status,0,c
  6140  001D1A  2A32               	incf	___awdiv@dividend+1,f,c
  6141  001D1C  0E01               	movlw	1
  6142  001D1E  1A36               	xorwf	___awdiv@sign,f,c
  6143  001D20                     l644:
  6144  001D20  0E00               	movlw	0
  6145  001D22  6E38               	movwf	___awdiv@quotient+1,c
  6146  001D24  0E00               	movlw	0
  6147  001D26  6E37               	movwf	___awdiv@quotient,c
  6148  001D28  5033               	movf	___awdiv@divisor,w,c
  6149  001D2A  1034               	iorwf	___awdiv@divisor+1,w,c
  6150  001D2C  B4D8               	btfsc	status,2,c
  6151  001D2E  D01C               	goto	l651
  6152  001D30  0E01               	movlw	1
  6153  001D32  6E35               	movwf	___awdiv@counter,c
  6154  001D34  D004               	goto	l646
  6155  001D36  90D8               	bcf	status,0,c
  6156  001D38  3633               	rlcf	___awdiv@divisor,f,c
  6157  001D3A  3634               	rlcf	___awdiv@divisor+1,f,c
  6158  001D3C  2A35               	incf	___awdiv@counter,f,c
  6159  001D3E                     l646:
  6160  001D3E  AE34               	btfss	___awdiv@divisor+1,7,c
  6161  001D40  D7FA               	goto	l647
  6162  001D42                     u2210:
  6163  001D42  90D8               	bcf	status,0,c
  6164  001D44  3637               	rlcf	___awdiv@quotient,f,c
  6165  001D46  3638               	rlcf	___awdiv@quotient+1,f,c
  6166  001D48  5033               	movf	___awdiv@divisor,w,c
  6167  001D4A  5C31               	subwf	___awdiv@dividend,w,c
  6168  001D4C  5034               	movf	___awdiv@divisor+1,w,c
  6169  001D4E  5832               	subwfb	___awdiv@dividend+1,w,c
  6170  001D50  A0D8               	btfss	status,0,c
  6171  001D52  D005               	goto	l650
  6172  001D54  5033               	movf	___awdiv@divisor,w,c
  6173  001D56  5E31               	subwf	___awdiv@dividend,f,c
  6174  001D58  5034               	movf	___awdiv@divisor+1,w,c
  6175  001D5A  5A32               	subwfb	___awdiv@dividend+1,f,c
  6176  001D5C  8037               	bsf	___awdiv@quotient,0,c
  6177  001D5E                     l650:
  6178  001D5E  90D8               	bcf	status,0,c
  6179  001D60  3234               	rrcf	___awdiv@divisor+1,f,c
  6180  001D62  3233               	rrcf	___awdiv@divisor,f,c
  6181  001D64  2E35               	decfsz	___awdiv@counter,f,c
  6182  001D66  D7ED               	goto	u2210
  6183  001D68                     l651:
  6184  001D68  5036               	movf	___awdiv@sign,w,c
  6185  001D6A  B4D8               	btfsc	status,2,c
  6186  001D6C  D004               	goto	l652
  6187  001D6E  6C37               	negf	___awdiv@quotient,c
  6188  001D70  1E38               	comf	___awdiv@quotient+1,f,c
  6189  001D72  B0D8               	btfsc	status,0,c
  6190  001D74  2A38               	incf	___awdiv@quotient+1,f,c
  6191  001D76                     l652:
  6192  001D76  C037  F031         	movff	___awdiv@quotient,?___awdiv
  6193  001D7A  C038  F032         	movff	___awdiv@quotient+1,?___awdiv+1
  6194  001D7E  0012               	return	
  6195  001D80                     __end_of___awdiv:
  6196                           	opt stack 0
  6197                           tblptru	equ	0xFF8
  6198                           tblptrh	equ	0xFF7
  6199                           tblptrl	equ	0xFF6
  6200                           tablat	equ	0xFF5
  6201                           prodh	equ	0xFF4
  6202                           prodl	equ	0xFF3
  6203                           intcon	equ	0xFF2
  6204                           postinc0	equ	0xFEE
  6205                           wreg	equ	0xFE8
  6206                           postdec1	equ	0xFE5
  6207                           plusw1	equ	0xFE3
  6208                           fsr1l	equ	0xFE1
  6209                           indf2	equ	0xFDF
  6210                           postinc2	equ	0xFDE
  6211                           postdec2	equ	0xFDD
  6212                           plusw2	equ	0xFDB
  6213                           fsr2h	equ	0xFDA
  6214                           fsr2l	equ	0xFD9
  6215                           status	equ	0xFD8
  6216                           
  6217 ;; *************** function _mode_TransLove *****************
  6218 ;; Defined at:
  6219 ;;		line 556 in file "main2.c"
  6220 ;; Parameters:    Size  Location     Type
  6221 ;;		None
  6222 ;; Auto vars:     Size  Location     Type
  6223 ;;  delay           2   97[BANK0 ] int 
  6224 ;;  dark            2   91[BANK0 ] int 
  6225 ;;  bright          2   89[BANK0 ] int 
  6226 ;;  i               2  101[BANK0 ] int 
  6227 ;;  arrow          32    0[BANK0 ] unsigned int [16]
  6228 ;;  love           10   32[BANK0 ] unsigned char [10]
  6229 ;;  E               5   82[BANK0 ] unsigned char [5]
  6230 ;;  V               5   77[BANK0 ] unsigned char [5]
  6231 ;;  O               5   72[BANK0 ] unsigned char [5]
  6232 ;;  L               5   67[BANK0 ] unsigned char [5]
  6233 ;;  S               5   62[BANK0 ] unsigned char [5]
  6234 ;;  N               5   57[BANK0 ] unsigned char [5]
  6235 ;;  A               5   52[BANK0 ] unsigned char [5]
  6236 ;;  R               5   47[BANK0 ] unsigned char [5]
  6237 ;;  T               5   42[BANK0 ] unsigned char [5]
  6238 ;;  arrow_i         2   99[BANK0 ] int 
  6239 ;;  arrow_speed     2   95[BANK0 ] int 
  6240 ;;  stop_arrow      2   93[BANK0 ] int 
  6241 ;;  cycle           2   87[BANK0 ] int 
  6242 ;; Return value:  Size  Location     Type
  6243 ;;                  1    wreg      void 
  6244 ;; Registers used:
  6245 ;;		wreg, fsr1l, fsr1h, fsr2l, fsr2h, status,2, status,0
  6246 ;; Tracked objects:
  6247 ;;		On entry : 0/0
  6248 ;;		On exit  : 0/0
  6249 ;;		Unchanged: 0/0
  6250 ;; Data sizes:     COMRAM   BANK0   BANK1   BANK2   BANK3   BANK4   BANK5
  6251 ;;      Params:         0       0       0       0       0       0       0
  6252 ;;      Locals:         0     103       0       0       0       0       0
  6253 ;;      Temps:          4       0       0       0       0       0       0
  6254 ;;      Totals:         4     103       0       0       0       0       0
  6255 ;;Total ram usage:      107 bytes
  6256 ;; Hardware stack levels used:    1
  6257 ;; Hardware stack levels required when called:    2
  6258 ;; This function calls:
  6259 ;;		Nothing
  6260 ;; This function is called by:
  6261 ;;		_main
  6262 ;; This function uses a non-reentrant model
  6263 ;;
  6264                           
  6265                           	psect	text9
  6266  00076A                     __ptext9:
  6267                           	opt stack 0
  6268  00076A                     _mode_TransLove:
  6269                           	opt stack 28
  6270                           
  6271                           ;main2.c: 558: unsigned char love[10] = {
  6272                           ;main2.c: 559: 0b00000000,
  6273                           ;main2.c: 560: 0b00001100,
  6274                           ;main2.c: 561: 0b00011110,
  6275                           ;main2.c: 562: 0b00111110,
  6276                           ;main2.c: 563: 0b01111100,
  6277                           ;main2.c: 564: 0b00111110,
  6278                           ;main2.c: 565: 0b00011110,
  6279                           ;main2.c: 566: 0b00001100,
  6280                           ;main2.c: 567: 0b00000000
  6281                           ;main2.c: 568: };
  6282                           
  6283                           ;incstack = 0
  6284  00076A  EE21  F0D2         	lfsr	2,mode_TransLove@F3098
  6285  00076E  EE10  F0A0         	lfsr	1,mode_TransLove@love
  6286  000772  0E09               	movlw	9
  6287  000774                     u3461:
  6288  000774  CFDB FFE3          	movff	plusw2,plusw1
  6289  000778  06E8               	decf	wreg,f,c
  6290  00077A  E2FC               	bc	u3461
  6291                           
  6292                           ;main2.c: 569: unsigned int arrow[16] = {
  6293                           ;main2.c: 570: 0b00110010,
  6294                           ;main2.c: 571: 0b00110110,
  6295                           ;main2.c: 572: 0b00011100,
  6296                           ;main2.c: 573: 0b00001000,
  6297                           ;main2.c: 574: 0b00001000,
  6298                           ;main2.c: 575: 0b00001000,
  6299                           ;main2.c: 576: 0b00001000,
  6300                           ;main2.c: 577: 0b00001000,
  6301                           ;main2.c: 578: 0b00001000,
  6302                           ;main2.c: 579: 0b00001000,
  6303                           ;main2.c: 580: 0b00001000,
  6304                           ;main2.c: 581: 0b00001000,
  6305                           ;main2.c: 582: 0b00001000,
  6306                           ;main2.c: 583: 0b00101010,
  6307                           ;main2.c: 584: 0b00011100,
  6308                           ;main2.c: 585: 0b00001000
  6309                           ;main2.c: 586: };
  6310  00077C  EE22  F0AC         	lfsr	2,mode_TransLove@F3100
  6311  000780  EE10  F080         	lfsr	1,mode_TransLove@arrow
  6312  000784  0E1F               	movlw	31
  6313  000786                     u3471:
  6314  000786  CFDB FFE3          	movff	plusw2,plusw1
  6315  00078A  06E8               	decf	wreg,f,c
  6316  00078C  E2FC               	bc	u3471
  6317                           
  6318                           ;main2.c: 588: unsigned char T[5] = {
  6319                           ;main2.c: 589: 0b00011,
  6320                           ;main2.c: 590: 0b00001,
  6321                           ;main2.c: 591: 0b11111,
  6322                           ;main2.c: 592: 0b00001,
  6323                           ;main2.c: 593: 0b00011
  6324                           ;main2.c: 594: };
  6325  00078E  EE20  F0F8         	lfsr	2,mode_TransLove@F3102
  6326  000792  EE10  F0AA         	lfsr	1,mode_TransLove@T
  6327  000796  0E04               	movlw	4
  6328  000798                     u3481:
  6329  000798  CFDB FFE3          	movff	plusw2,plusw1
  6330  00079C  06E8               	decf	wreg,f,c
  6331  00079E  E2FC               	bc	u3481
  6332                           
  6333                           ;main2.c: 595: unsigned char R[5] = {
  6334                           ;main2.c: 596: 0b11111,
  6335                           ;main2.c: 597: 0b00101,
  6336                           ;main2.c: 598: 0b00101,
  6337                           ;main2.c: 599: 0b01101,
  6338                           ;main2.c: 600: 0b10010
  6339                           ;main2.c: 601: };
  6340  0007A0  EE20  F01A         	lfsr	2,mode_TransLove@F3104
  6341  0007A4  EE10  F0AF         	lfsr	1,mode_TransLove@R
  6342  0007A8  0E04               	movlw	4
  6343  0007AA                     u3491:
  6344  0007AA  CFDB FFE3          	movff	plusw2,plusw1
  6345  0007AE  06E8               	decf	wreg,f,c
  6346  0007B0  E2FC               	bc	u3491
  6347                           
  6348                           ;main2.c: 602: unsigned char A[5] = {
  6349                           ;main2.c: 603: 0b11100,
  6350                           ;main2.c: 604: 0b01010,
  6351                           ;main2.c: 605: 0b01001,
  6352                           ;main2.c: 606: 0b01010,
  6353                           ;main2.c: 607: 0b11100
  6354                           ;main2.c: 608: };
  6355  0007B2  EE20  F015         	lfsr	2,mode_TransLove@F3106
  6356  0007B6  EE10  F0B4         	lfsr	1,mode_TransLove@A
  6357  0007BA  0E04               	movlw	4
  6358  0007BC                     u3501:
  6359  0007BC  CFDB FFE3          	movff	plusw2,plusw1
  6360  0007C0  06E8               	decf	wreg,f,c
  6361  0007C2  E2FC               	bc	u3501
  6362                           
  6363                           ;main2.c: 609: unsigned char N[5] = {
  6364                           ;main2.c: 610: 0b11111,
  6365                           ;main2.c: 611: 0b00010,
  6366                           ;main2.c: 612: 0b00100,
  6367                           ;main2.c: 613: 0b01000,
  6368                           ;main2.c: 614: 0b11111
  6369                           ;main2.c: 615: };
  6370  0007C4  EE20  F010         	lfsr	2,mode_TransLove@F3108
  6371  0007C8  EE10  F0B9         	lfsr	1,mode_TransLove@N
  6372  0007CC  0E04               	movlw	4
  6373  0007CE                     u3511:
  6374  0007CE  CFDB FFE3          	movff	plusw2,plusw1
  6375  0007D2  06E8               	decf	wreg,f,c
  6376  0007D4  E2FC               	bc	u3511
  6377                           
  6378                           ;main2.c: 616: unsigned char S[5] = {
  6379                           ;main2.c: 617: 0b10010,
  6380                           ;main2.c: 618: 0b10101,
  6381                           ;main2.c: 619: 0b10101,
  6382                           ;main2.c: 620: 0b10101,
  6383                           ;main2.c: 621: 0b01001
  6384                           ;main2.c: 622: };
  6385  0007D6  EE20  F00B         	lfsr	2,mode_TransLove@F3110
  6386  0007DA  EE10  F0BE         	lfsr	1,mode_TransLove@S
  6387  0007DE  0E04               	movlw	4
  6388  0007E0                     u3521:
  6389  0007E0  CFDB FFE3          	movff	plusw2,plusw1
  6390  0007E4  06E8               	decf	wreg,f,c
  6391  0007E6  E2FC               	bc	u3521
  6392                           
  6393                           ;main2.c: 623: unsigned char L[5] = {
  6394                           ;main2.c: 624: 0b11111,
  6395                           ;main2.c: 625: 0b10000,
  6396                           ;main2.c: 626: 0b10000,
  6397                           ;main2.c: 627: 0b10000,
  6398                           ;main2.c: 628: 0b10000
  6399                           ;main2.c: 629: };
  6400  0007E8  EE20  F006         	lfsr	2,mode_TransLove@F3112
  6401  0007EC  EE10  F0C3         	lfsr	1,mode_TransLove@L
  6402  0007F0  0E04               	movlw	4
  6403  0007F2                     u3531:
  6404  0007F2  CFDB FFE3          	movff	plusw2,plusw1
  6405  0007F6  06E8               	decf	wreg,f,c
  6406  0007F8  E2FC               	bc	u3531
  6407                           
  6408                           ;main2.c: 630: unsigned char O[5] = {
  6409                           ;main2.c: 631: 0b01110,
  6410                           ;main2.c: 632: 0b10001,
  6411                           ;main2.c: 633: 0b10001,
  6412                           ;main2.c: 634: 0b10001,
  6413                           ;main2.c: 635: 0b01110
  6414                           ;main2.c: 636: };
  6415  0007FA  EE20  F001         	lfsr	2,mode_TransLove@F3114
  6416  0007FE  EE10  F0C8         	lfsr	1,mode_TransLove@O
  6417  000802  0E04               	movlw	4
  6418  000804                     u3541:
  6419  000804  CFDB FFE3          	movff	plusw2,plusw1
  6420  000808  06E8               	decf	wreg,f,c
  6421  00080A  E2FC               	bc	u3541
  6422                           
  6423                           ;main2.c: 637: unsigned char V[5] = {
  6424                           ;main2.c: 638: 0b00111,
  6425                           ;main2.c: 639: 0b01100,
  6426                           ;main2.c: 640: 0b10000,
  6427                           ;main2.c: 641: 0b01100,
  6428                           ;main2.c: 642: 0b00111
  6429                           ;main2.c: 643: };
  6430  00080C  EE21  F0E9         	lfsr	2,mode_TransLove@F3116
  6431  000810  EE10  F0CD         	lfsr	1,mode_TransLove@V
  6432  000814  0E04               	movlw	4
  6433  000816                     u3551:
  6434  000816  CFDB FFE3          	movff	plusw2,plusw1
  6435  00081A  06E8               	decf	wreg,f,c
  6436  00081C  E2FC               	bc	u3551
  6437                           
  6438                           ;main2.c: 644: unsigned char E[5] = {
  6439                           ;main2.c: 645: 0b11111,
  6440                           ;main2.c: 646: 0b10101,
  6441                           ;main2.c: 647: 0b10101,
  6442                           ;main2.c: 648: 0b10101,
  6443                           ;main2.c: 649: 0b10101
  6444                           ;main2.c: 650: };
  6445  00081E  EE21  F0E4         	lfsr	2,mode_TransLove@F3118
  6446  000822  EE10  F0D2         	lfsr	1,mode_TransLove@E
  6447  000826  0E04               	movlw	4
  6448  000828                     u3561:
  6449  000828  CFDB FFE3          	movff	plusw2,plusw1
  6450  00082C  06E8               	decf	wreg,f,c
  6451  00082E  E2FC               	bc	u3561
  6452                           
  6453                           ;main2.c: 658: int arrow_speed = 3;
  6454  000830  0E00               	movlw	0
  6455  000832  0100               	movlb	0	; () banked
  6456  000834  6FE0               	movwf	(mode_TransLove@arrow_speed+1)& (0+255),b
  6457  000836  0E03               	movlw	3
  6458  000838  6FDF               	movwf	mode_TransLove@arrow_speed& (0+255),b
  6459                           
  6460                           ; BSR set to: 0
  6461                           ;main2.c: 659: int stop_arrow = 120;
  6462  00083A  0E00               	movlw	0
  6463  00083C  6FDE               	movwf	(mode_TransLove@stop_arrow+1)& (0+255),b
  6464  00083E  0E78               	movlw	120
  6465  000840  6FDD               	movwf	mode_TransLove@stop_arrow& (0+255),b
  6466                           
  6467                           ; BSR set to: 0
  6468                           ;main2.c: 660: int arrow_i = -15;
  6469  000842  0EFF               	movlw	255
  6470  000844  6FE4               	movwf	(mode_TransLove@arrow_i+1)& (0+255),b
  6471  000846  0EF1               	movlw	241
  6472  000848  6FE3               	movwf	mode_TransLove@arrow_i& (0+255),b
  6473                           
  6474                           ; BSR set to: 0
  6475                           ;main2.c: 661: int cycle = 666;
  6476  00084A  0E02               	movlw	2
  6477  00084C  6FD8               	movwf	(mode_TransLove@cycle+1)& (0+255),b
  6478  00084E  0E9A               	movlw	154
  6479  000850  6FD7               	movwf	mode_TransLove@cycle& (0+255),b
  6480                           
  6481                           ;main2.c: 662: while(cycle--){
  6482  000852  D287               	goto	l370
  6483  000854                     
  6484                           ; BSR set to: 0
  6485                           ;main2.c: 663: for(int i = 0; i < 99; ++i){
  6486                           
  6487                           ; BSR set to: 0
  6488  000854  0E00               	movlw	0
  6489  000856  6FE6               	movwf	(mode_TransLove@i+1)& (0+255),b
  6490  000858  0E00               	movlw	0
  6491  00085A  6FE5               	movwf	mode_TransLove@i& (0+255),b
  6492                           
  6493                           ; BSR set to: 0
  6494  00085C  BFE6               	btfsc	(mode_TransLove@i+1)& (0+255),7,b
  6495  00085E  D008               	goto	l333
  6496  000860  51E6               	movf	(mode_TransLove@i+1)& (0+255),w,b
  6497  000862  E105               	bnz	u3570
  6498  000864  0E63               	movlw	99
  6499  000866  5DE5               	subwf	mode_TransLove@i& (0+255),w,b
  6500  000868  B0D8               	btfsc	status,0,c
  6501  00086A  D24B               	goto	u3850
  6502  00086C  D001               	goto	l333
  6503  00086E                     u3570:
  6504                           
  6505                           ; BSR set to: 0
  6506  00086E  D249               	goto	u3850
  6507  000870                     l333:
  6508                           
  6509                           ; BSR set to: 0
  6510                           ;main2.c: 664: int delay = 0;
  6511                           
  6512                           ; BSR set to: 0
  6513  000870  0E00               	movlw	0
  6514  000872  6FE2               	movwf	(mode_TransLove@delay+1)& (0+255),b
  6515  000874  0E00               	movlw	0
  6516  000876  6FE1               	movwf	mode_TransLove@delay& (0+255),b
  6517                           
  6518                           ;main2.c: 665: switch(i){
  6519  000878  D02D               	goto	l335
  6520  00087A                     
  6521                           ; BSR set to: 0
  6522                           
  6523                           ; BSR set to: 0
  6524  00087A  0E04               	movlw	4
  6525  00087C  27E1               	addwf	mode_TransLove@delay& (0+255),f,b
  6526  00087E  0E00               	movlw	0
  6527  000880  23E2               	addwfc	(mode_TransLove@delay+1)& (0+255),f,b
  6528  000882                     l337:
  6529                           
  6530                           ; BSR set to: 0
  6531  000882  0E04               	movlw	4
  6532  000884  27E1               	addwf	mode_TransLove@delay& (0+255),f,b
  6533  000886  0E00               	movlw	0
  6534  000888  23E2               	addwfc	(mode_TransLove@delay+1)& (0+255),f,b
  6535  00088A                     l338:
  6536                           
  6537                           ; BSR set to: 0
  6538  00088A  0E04               	movlw	4
  6539  00088C  27E1               	addwf	mode_TransLove@delay& (0+255),f,b
  6540  00088E  0E00               	movlw	0
  6541  000890  23E2               	addwfc	(mode_TransLove@delay+1)& (0+255),f,b
  6542  000892                     l339:
  6543                           
  6544                           ; BSR set to: 0
  6545  000892  0E04               	movlw	4
  6546  000894  27E1               	addwf	mode_TransLove@delay& (0+255),f,b
  6547  000896  0E00               	movlw	0
  6548  000898  23E2               	addwfc	(mode_TransLove@delay+1)& (0+255),f,b
  6549  00089A                     l340:
  6550                           
  6551                           ; BSR set to: 0
  6552  00089A  0E04               	movlw	4
  6553  00089C  27E1               	addwf	mode_TransLove@delay& (0+255),f,b
  6554  00089E  0E00               	movlw	0
  6555  0008A0  23E2               	addwfc	(mode_TransLove@delay+1)& (0+255),f,b
  6556  0008A2                     l341:
  6557                           
  6558                           ; BSR set to: 0
  6559  0008A2  0E04               	movlw	4
  6560  0008A4  27E1               	addwf	mode_TransLove@delay& (0+255),f,b
  6561  0008A6  0E00               	movlw	0
  6562  0008A8  23E2               	addwfc	(mode_TransLove@delay+1)& (0+255),f,b
  6563  0008AA                     l342:
  6564                           
  6565                           ; BSR set to: 0
  6566  0008AA  0E04               	movlw	4
  6567  0008AC  27E1               	addwf	mode_TransLove@delay& (0+255),f,b
  6568  0008AE  0E00               	movlw	0
  6569  0008B0  23E2               	addwfc	(mode_TransLove@delay+1)& (0+255),f,b
  6570  0008B2                     l343:
  6571                           
  6572                           ; BSR set to: 0
  6573  0008B2  0E04               	movlw	4
  6574  0008B4  27E1               	addwf	mode_TransLove@delay& (0+255),f,b
  6575  0008B6  0E00               	movlw	0
  6576  0008B8  23E2               	addwfc	(mode_TransLove@delay+1)& (0+255),f,b
  6577  0008BA                     l344:
  6578                           
  6579                           ; BSR set to: 0
  6580  0008BA  0E04               	movlw	4
  6581  0008BC  27E1               	addwf	mode_TransLove@delay& (0+255),f,b
  6582  0008BE  0E00               	movlw	0
  6583  0008C0  23E2               	addwfc	(mode_TransLove@delay+1)& (0+255),f,b
  6584  0008C2                     l2961:
  6585                           
  6586                           ; BSR set to: 0
  6587  0008C2  07E1               	decf	mode_TransLove@delay& (0+255),f,b
  6588  0008C4  A0D8               	btfss	status,0,c
  6589  0008C6  07E2               	decf	(mode_TransLove@delay+1)& (0+255),f,b
  6590  0008C8  29E1               	incf	mode_TransLove@delay& (0+255),w,b
  6591  0008CA  E1FB               	bnz	l2961
  6592  0008CC  29E2               	incf	(mode_TransLove@delay+1)& (0+255),w,b
  6593  0008CE  B4D8               	btfsc	status,2,c
  6594  0008D0  D025               	goto	l348
  6595  0008D2  D7F7               	goto	l346
  6596  0008D4                     l335:
  6597                           
  6598                           ; BSR set to: 0
  6599                           
  6600                           ; BSR set to: 0
  6601  0008D4  C0E5  F031         	movff	mode_TransLove@i,??_mode_TransLove
  6602  0008D8  C0E6  F032         	movff	mode_TransLove@i+1,??_mode_TransLove+1
  6603                           
  6604                           ; Switch on 2 bytes has been partitioned into a top level switch of size 1, and 1 sub-sw
      +                          itches
  6605                           ; Switch size 1, requested type "space"
  6606                           ; Number of cases is 1, Range of values is 0 to 0
  6607                           ; switch strategies available:
  6608                           ; Name         Instructions Cycles
  6609                           ; simple_byte            4     3 (average)
  6610                           ;	Chosen strategy is simple_byte
  6611  0008DC  5032               	movf	??_mode_TransLove+1,w,c
  6612  0008DE  0A00               	xorlw	0	; case 0
  6613  0008E0  A4D8               	btfss	status,2,c
  6614  0008E2  D01C               	goto	l348
  6615                           
  6616                           ; BSR set to: 0
  6617                           ; Switch size 1, requested type "space"
  6618                           ; Number of cases is 9, Range of values is 10 to 58
  6619                           ; switch strategies available:
  6620                           ; Name         Instructions Cycles
  6621                           ; simple_byte           28    15 (average)
  6622                           ;	Chosen strategy is simple_byte
  6623  0008E4  5031               	movf	??_mode_TransLove,w,c
  6624  0008E6  0A0A               	xorlw	10	; case 10
  6625  0008E8  B4D8               	btfsc	status,2,c
  6626  0008EA  D7C7               	goto	l336
  6627  0008EC  0A1A               	xorlw	26	; case 16
  6628  0008EE  B4D8               	btfsc	status,2,c
  6629  0008F0  D7C8               	goto	l337
  6630  0008F2  0A06               	xorlw	6	; case 22
  6631  0008F4  B4D8               	btfsc	status,2,c
  6632  0008F6  D7C9               	goto	l338
  6633  0008F8  0A0A               	xorlw	10	; case 28
  6634  0008FA  B4D8               	btfsc	status,2,c
  6635  0008FC  D7CA               	goto	l339
  6636  0008FE  0A3E               	xorlw	62	; case 34
  6637  000900  B4D8               	btfsc	status,2,c
  6638  000902  D7CB               	goto	l340
  6639  000904  0A0A               	xorlw	10	; case 40
  6640  000906  B4D8               	btfsc	status,2,c
  6641  000908  D7CC               	goto	l341
  6642  00090A  0A06               	xorlw	6	; case 46
  6643  00090C  B4D8               	btfsc	status,2,c
  6644  00090E  D7CD               	goto	l342
  6645  000910  0A1A               	xorlw	26	; case 52
  6646  000912  B4D8               	btfsc	status,2,c
  6647  000914  D7CE               	goto	l343
  6648  000916  0A0E               	xorlw	14	; case 58
  6649  000918  B4D8               	btfsc	status,2,c
  6650  00091A  D7CF               	goto	l344
  6651  00091C                     l348:
  6652                           
  6653                           ; BSR set to: 0
  6654                           ;main2.c: 677: if(i < 20 && i >= 15)
  6655                           
  6656                           ; BSR set to: 0
  6657  00091C  BFE6               	btfsc	(mode_TransLove@i+1)& (0+255),7,b
  6658  00091E  D006               	goto	u3590
  6659  000920  51E6               	movf	(mode_TransLove@i+1)& (0+255),w,b
  6660  000922  E120               	bnz	l2971
  6661  000924  0E14               	movlw	20
  6662  000926  5DE5               	subwf	mode_TransLove@i& (0+255),w,b
  6663  000928  B0D8               	btfsc	status,0,c
  6664  00092A  D01C               	goto	l349
  6665  00092C                     u3590:
  6666                           
  6667                           ; BSR set to: 0
  6668  00092C  BFE6               	btfsc	(mode_TransLove@i+1)& (0+255),7,b
  6669  00092E  D01A               	goto	l349
  6670  000930  51E6               	movf	(mode_TransLove@i+1)& (0+255),w,b
  6671  000932  E104               	bnz	u3600
  6672  000934  0E0F               	movlw	15
  6673  000936  5DE5               	subwf	mode_TransLove@i& (0+255),w,b
  6674  000938  A0D8               	btfss	status,0,c
  6675  00093A  D014               	goto	l349
  6676  00093C                     u3600:
  6677                           
  6678                           ; BSR set to: 0
  6679                           ;main2.c: 678: LATA |= T[i - 15];
  6680  00093C  0EF1               	movlw	241
  6681  00093E  6E31               	movwf	??_mode_TransLove& (0+255),c
  6682  000940  0EFF               	movlw	255
  6683  000942  6E32               	movwf	(??_mode_TransLove+1)& (0+255),c
  6684  000944  C0E5  F033         	movff	mode_TransLove@i,??_mode_TransLove+2
  6685  000948  C0E6  F034         	movff	mode_TransLove@i+1,??_mode_TransLove+3
  6686  00094C  5031               	movf	??_mode_TransLove,w,c
  6687  00094E  2633               	addwf	??_mode_TransLove+2,f,c
  6688  000950  5032               	movf	??_mode_TransLove+1,w,c
  6689  000952  2234               	addwfc	??_mode_TransLove+3,f,c
  6690  000954  0EAA               	movlw	low mode_TransLove@T
  6691  000956  2433               	addwf	??_mode_TransLove+2,w,c
  6692  000958  6ED9               	movwf	fsr2l,c
  6693  00095A  0E00               	movlw	high mode_TransLove@T
  6694  00095C  2034               	addwfc	??_mode_TransLove+3,w,c
  6695  00095E  6EDA               	movwf	fsr2h,c
  6696  000960  50DF               	movf	indf2,w,c
  6697  000962  1289               	iorwf	3977,f,c	;volatile
  6698  000964                     l349:
  6699  000964                     l2971:
  6700                           
  6701                           ; BSR set to: 0
  6702                           ;main2.c: 679: if(i < 26 && i >= 21)
  6703  000964  BFE6               	btfsc	(mode_TransLove@i+1)& (0+255),7,b
  6704  000966  D006               	goto	u3610
  6705  000968  51E6               	movf	(mode_TransLove@i+1)& (0+255),w,b
  6706  00096A  E120               	bnz	l2977
  6707  00096C  0E1A               	movlw	26
  6708  00096E  5DE5               	subwf	mode_TransLove@i& (0+255),w,b
  6709  000970  B0D8               	btfsc	status,0,c
  6710  000972  D01C               	goto	l350
  6711  000974                     u3610:
  6712                           
  6713                           ; BSR set to: 0
  6714  000974  BFE6               	btfsc	(mode_TransLove@i+1)& (0+255),7,b
  6715  000976  D01A               	goto	l350
  6716  000978  51E6               	movf	(mode_TransLove@i+1)& (0+255),w,b
  6717  00097A  E104               	bnz	u3620
  6718  00097C  0E15               	movlw	21
  6719  00097E  5DE5               	subwf	mode_TransLove@i& (0+255),w,b
  6720  000980  A0D8               	btfss	status,0,c
  6721  000982  D014               	goto	l350
  6722  000984                     u3620:
  6723                           
  6724                           ; BSR set to: 0
  6725                           ;main2.c: 680: LATA |= R[i - 21];
  6726  000984  0EEB               	movlw	235
  6727  000986  6E31               	movwf	??_mode_TransLove& (0+255),c
  6728  000988  0EFF               	movlw	255
  6729  00098A  6E32               	movwf	(??_mode_TransLove+1)& (0+255),c
  6730  00098C  C0E5  F033         	movff	mode_TransLove@i,??_mode_TransLove+2
  6731  000990  C0E6  F034         	movff	mode_TransLove@i+1,??_mode_TransLove+3
  6732  000994  5031               	movf	??_mode_TransLove,w,c
  6733  000996  2633               	addwf	??_mode_TransLove+2,f,c
  6734  000998  5032               	movf	??_mode_TransLove+1,w,c
  6735  00099A  2234               	addwfc	??_mode_TransLove+3,f,c
  6736  00099C  0EAF               	movlw	low mode_TransLove@R
  6737  00099E  2433               	addwf	??_mode_TransLove+2,w,c
  6738  0009A0  6ED9               	movwf	fsr2l,c
  6739  0009A2  0E00               	movlw	high mode_TransLove@R
  6740  0009A4  2034               	addwfc	??_mode_TransLove+3,w,c
  6741  0009A6  6EDA               	movwf	fsr2h,c
  6742  0009A8  50DF               	movf	indf2,w,c
  6743  0009AA  1289               	iorwf	3977,f,c	;volatile
  6744  0009AC                     l350:
  6745  0009AC                     l2977:
  6746                           
  6747                           ; BSR set to: 0
  6748                           ;main2.c: 681: if(i < 32 && i >= 27)
  6749  0009AC  BFE6               	btfsc	(mode_TransLove@i+1)& (0+255),7,b
  6750  0009AE  D006               	goto	u3630
  6751  0009B0  51E6               	movf	(mode_TransLove@i+1)& (0+255),w,b
  6752  0009B2  E120               	bnz	l2983
  6753  0009B4  0E20               	movlw	32
  6754  0009B6  5DE5               	subwf	mode_TransLove@i& (0+255),w,b
  6755  0009B8  B0D8               	btfsc	status,0,c
  6756  0009BA  D01C               	goto	l351
  6757  0009BC                     u3630:
  6758                           
  6759                           ; BSR set to: 0
  6760  0009BC  BFE6               	btfsc	(mode_TransLove@i+1)& (0+255),7,b
  6761  0009BE  D01A               	goto	l351
  6762  0009C0  51E6               	movf	(mode_TransLove@i+1)& (0+255),w,b
  6763  0009C2  E104               	bnz	u3640
  6764  0009C4  0E1B               	movlw	27
  6765  0009C6  5DE5               	subwf	mode_TransLove@i& (0+255),w,b
  6766  0009C8  A0D8               	btfss	status,0,c
  6767  0009CA  D014               	goto	l351
  6768  0009CC                     u3640:
  6769                           
  6770                           ; BSR set to: 0
  6771                           ;main2.c: 682: LATA |= A[i - 27];
  6772  0009CC  0EE5               	movlw	229
  6773  0009CE  6E31               	movwf	??_mode_TransLove& (0+255),c
  6774  0009D0  0EFF               	movlw	255
  6775  0009D2  6E32               	movwf	(??_mode_TransLove+1)& (0+255),c
  6776  0009D4  C0E5  F033         	movff	mode_TransLove@i,??_mode_TransLove+2
  6777  0009D8  C0E6  F034         	movff	mode_TransLove@i+1,??_mode_TransLove+3
  6778  0009DC  5031               	movf	??_mode_TransLove,w,c
  6779  0009DE  2633               	addwf	??_mode_TransLove+2,f,c
  6780  0009E0  5032               	movf	??_mode_TransLove+1,w,c
  6781  0009E2  2234               	addwfc	??_mode_TransLove+3,f,c
  6782  0009E4  0EB4               	movlw	low mode_TransLove@A
  6783  0009E6  2433               	addwf	??_mode_TransLove+2,w,c
  6784  0009E8  6ED9               	movwf	fsr2l,c
  6785  0009EA  0E00               	movlw	high mode_TransLove@A
  6786  0009EC  2034               	addwfc	??_mode_TransLove+3,w,c
  6787  0009EE  6EDA               	movwf	fsr2h,c
  6788  0009F0  50DF               	movf	indf2,w,c
  6789  0009F2  1289               	iorwf	3977,f,c	;volatile
  6790  0009F4                     l351:
  6791  0009F4                     l2983:
  6792                           
  6793                           ; BSR set to: 0
  6794                           ;main2.c: 683: if(i >= 33 && i < 38)
  6795  0009F4  BFE6               	btfsc	(mode_TransLove@i+1)& (0+255),7,b
  6796  0009F6  D022               	goto	l352
  6797  0009F8  51E6               	movf	(mode_TransLove@i+1)& (0+255),w,b
  6798  0009FA  E104               	bnz	u3650
  6799  0009FC  0E21               	movlw	33
  6800  0009FE  5DE5               	subwf	mode_TransLove@i& (0+255),w,b
  6801  000A00  A0D8               	btfss	status,0,c
  6802  000A02  D01C               	goto	l352
  6803  000A04                     u3650:
  6804                           
  6805                           ; BSR set to: 0
  6806  000A04  BFE6               	btfsc	(mode_TransLove@i+1)& (0+255),7,b
  6807  000A06  D006               	goto	u3660
  6808  000A08  51E6               	movf	(mode_TransLove@i+1)& (0+255),w,b
  6809  000A0A  E118               	bnz	l2989
  6810  000A0C  0E26               	movlw	38
  6811  000A0E  5DE5               	subwf	mode_TransLove@i& (0+255),w,b
  6812  000A10  B0D8               	btfsc	status,0,c
  6813  000A12  D014               	goto	l352
  6814  000A14                     u3660:
  6815                           
  6816                           ; BSR set to: 0
  6817                           ;main2.c: 684: LATA |= N[i - 33];
  6818  000A14  0EDF               	movlw	223
  6819  000A16  6E31               	movwf	??_mode_TransLove& (0+255),c
  6820  000A18  0EFF               	movlw	255
  6821  000A1A  6E32               	movwf	(??_mode_TransLove+1)& (0+255),c
  6822  000A1C  C0E5  F033         	movff	mode_TransLove@i,??_mode_TransLove+2
  6823  000A20  C0E6  F034         	movff	mode_TransLove@i+1,??_mode_TransLove+3
  6824  000A24  5031               	movf	??_mode_TransLove,w,c
  6825  000A26  2633               	addwf	??_mode_TransLove+2,f,c
  6826  000A28  5032               	movf	??_mode_TransLove+1,w,c
  6827  000A2A  2234               	addwfc	??_mode_TransLove+3,f,c
  6828  000A2C  0EB9               	movlw	low mode_TransLove@N
  6829  000A2E  2433               	addwf	??_mode_TransLove+2,w,c
  6830  000A30  6ED9               	movwf	fsr2l,c
  6831  000A32  0E00               	movlw	high mode_TransLove@N
  6832  000A34  2034               	addwfc	??_mode_TransLove+3,w,c
  6833  000A36  6EDA               	movwf	fsr2h,c
  6834  000A38  50DF               	movf	indf2,w,c
  6835  000A3A  1289               	iorwf	3977,f,c	;volatile
  6836  000A3C                     l352:
  6837  000A3C                     l2989:
  6838                           
  6839                           ; BSR set to: 0
  6840                           ;main2.c: 685: if(i < 44 && i >= 39)
  6841  000A3C  BFE6               	btfsc	(mode_TransLove@i+1)& (0+255),7,b
  6842  000A3E  D006               	goto	u3670
  6843  000A40  51E6               	movf	(mode_TransLove@i+1)& (0+255),w,b
  6844  000A42  E120               	bnz	l2995
  6845  000A44  0E2C               	movlw	44
  6846  000A46  5DE5               	subwf	mode_TransLove@i& (0+255),w,b
  6847  000A48  B0D8               	btfsc	status,0,c
  6848  000A4A  D01C               	goto	l353
  6849  000A4C                     u3670:
  6850                           
  6851                           ; BSR set to: 0
  6852  000A4C  BFE6               	btfsc	(mode_TransLove@i+1)& (0+255),7,b
  6853  000A4E  D01A               	goto	l353
  6854  000A50  51E6               	movf	(mode_TransLove@i+1)& (0+255),w,b
  6855  000A52  E104               	bnz	u3680
  6856  000A54  0E27               	movlw	39
  6857  000A56  5DE5               	subwf	mode_TransLove@i& (0+255),w,b
  6858  000A58  A0D8               	btfss	status,0,c
  6859  000A5A  D014               	goto	l353
  6860  000A5C                     u3680:
  6861                           
  6862                           ; BSR set to: 0
  6863                           ;main2.c: 686: LATA |= S[i - 39];
  6864  000A5C  0ED9               	movlw	217
  6865  000A5E  6E31               	movwf	??_mode_TransLove& (0+255),c
  6866  000A60  0EFF               	movlw	255
  6867  000A62  6E32               	movwf	(??_mode_TransLove+1)& (0+255),c
  6868  000A64  C0E5  F033         	movff	mode_TransLove@i,??_mode_TransLove+2
  6869  000A68  C0E6  F034         	movff	mode_TransLove@i+1,??_mode_TransLove+3
  6870  000A6C  5031               	movf	??_mode_TransLove,w,c
  6871  000A6E  2633               	addwf	??_mode_TransLove+2,f,c
  6872  000A70  5032               	movf	??_mode_TransLove+1,w,c
  6873  000A72  2234               	addwfc	??_mode_TransLove+3,f,c
  6874  000A74  0EBE               	movlw	low mode_TransLove@S
  6875  000A76  2433               	addwf	??_mode_TransLove+2,w,c
  6876  000A78  6ED9               	movwf	fsr2l,c
  6877  000A7A  0E00               	movlw	high mode_TransLove@S
  6878  000A7C  2034               	addwfc	??_mode_TransLove+3,w,c
  6879  000A7E  6EDA               	movwf	fsr2h,c
  6880  000A80  50DF               	movf	indf2,w,c
  6881  000A82  1289               	iorwf	3977,f,c	;volatile
  6882  000A84                     l353:
  6883  000A84                     l2995:
  6884                           
  6885                           ; BSR set to: 0
  6886                           ;main2.c: 687: if(i >= 45 && i < 50)
  6887  000A84  BFE6               	btfsc	(mode_TransLove@i+1)& (0+255),7,b
  6888  000A86  D022               	goto	l354
  6889  000A88  51E6               	movf	(mode_TransLove@i+1)& (0+255),w,b
  6890  000A8A  E104               	bnz	u3690
  6891  000A8C  0E2D               	movlw	45
  6892  000A8E  5DE5               	subwf	mode_TransLove@i& (0+255),w,b
  6893  000A90  A0D8               	btfss	status,0,c
  6894  000A92  D01C               	goto	l354
  6895  000A94                     u3690:
  6896                           
  6897                           ; BSR set to: 0
  6898  000A94  BFE6               	btfsc	(mode_TransLove@i+1)& (0+255),7,b
  6899  000A96  D006               	goto	u3700
  6900  000A98  51E6               	movf	(mode_TransLove@i+1)& (0+255),w,b
  6901  000A9A  E118               	bnz	l3001
  6902  000A9C  0E32               	movlw	50
  6903  000A9E  5DE5               	subwf	mode_TransLove@i& (0+255),w,b
  6904  000AA0  B0D8               	btfsc	status,0,c
  6905  000AA2  D014               	goto	l354
  6906  000AA4                     u3700:
  6907                           
  6908                           ; BSR set to: 0
  6909                           ;main2.c: 688: LATA |= L[i - 45];
  6910  000AA4  0ED3               	movlw	211
  6911  000AA6  6E31               	movwf	??_mode_TransLove& (0+255),c
  6912  000AA8  0EFF               	movlw	255
  6913  000AAA  6E32               	movwf	(??_mode_TransLove+1)& (0+255),c
  6914  000AAC  C0E5  F033         	movff	mode_TransLove@i,??_mode_TransLove+2
  6915  000AB0  C0E6  F034         	movff	mode_TransLove@i+1,??_mode_TransLove+3
  6916  000AB4  5031               	movf	??_mode_TransLove,w,c
  6917  000AB6  2633               	addwf	??_mode_TransLove+2,f,c
  6918  000AB8  5032               	movf	??_mode_TransLove+1,w,c
  6919  000ABA  2234               	addwfc	??_mode_TransLove+3,f,c
  6920  000ABC  0EC3               	movlw	low mode_TransLove@L
  6921  000ABE  2433               	addwf	??_mode_TransLove+2,w,c
  6922  000AC0  6ED9               	movwf	fsr2l,c
  6923  000AC2  0E00               	movlw	high mode_TransLove@L
  6924  000AC4  2034               	addwfc	??_mode_TransLove+3,w,c
  6925  000AC6  6EDA               	movwf	fsr2h,c
  6926  000AC8  50DF               	movf	indf2,w,c
  6927  000ACA  1289               	iorwf	3977,f,c	;volatile
  6928  000ACC                     l354:
  6929  000ACC                     l3001:
  6930                           
  6931                           ; BSR set to: 0
  6932                           ;main2.c: 689: if(i >= 51 && i < 56)
  6933  000ACC  BFE6               	btfsc	(mode_TransLove@i+1)& (0+255),7,b
  6934  000ACE  D022               	goto	l355
  6935  000AD0  51E6               	movf	(mode_TransLove@i+1)& (0+255),w,b
  6936  000AD2  E104               	bnz	u3710
  6937  000AD4  0E33               	movlw	51
  6938  000AD6  5DE5               	subwf	mode_TransLove@i& (0+255),w,b
  6939  000AD8  A0D8               	btfss	status,0,c
  6940  000ADA  D01C               	goto	l355
  6941  000ADC                     u3710:
  6942                           
  6943                           ; BSR set to: 0
  6944  000ADC  BFE6               	btfsc	(mode_TransLove@i+1)& (0+255),7,b
  6945  000ADE  D006               	goto	u3720
  6946  000AE0  51E6               	movf	(mode_TransLove@i+1)& (0+255),w,b
  6947  000AE2  E118               	bnz	l3007
  6948  000AE4  0E38               	movlw	56
  6949  000AE6  5DE5               	subwf	mode_TransLove@i& (0+255),w,b
  6950  000AE8  B0D8               	btfsc	status,0,c
  6951  000AEA  D014               	goto	l355
  6952  000AEC                     u3720:
  6953                           
  6954                           ; BSR set to: 0
  6955                           ;main2.c: 690: LATA |= O[i - 51];
  6956  000AEC  0ECD               	movlw	205
  6957  000AEE  6E31               	movwf	??_mode_TransLove& (0+255),c
  6958  000AF0  0EFF               	movlw	255
  6959  000AF2  6E32               	movwf	(??_mode_TransLove+1)& (0+255),c
  6960  000AF4  C0E5  F033         	movff	mode_TransLove@i,??_mode_TransLove+2
  6961  000AF8  C0E6  F034         	movff	mode_TransLove@i+1,??_mode_TransLove+3
  6962  000AFC  5031               	movf	??_mode_TransLove,w,c
  6963  000AFE  2633               	addwf	??_mode_TransLove+2,f,c
  6964  000B00  5032               	movf	??_mode_TransLove+1,w,c
  6965  000B02  2234               	addwfc	??_mode_TransLove+3,f,c
  6966  000B04  0EC8               	movlw	low mode_TransLove@O
  6967  000B06  2433               	addwf	??_mode_TransLove+2,w,c
  6968  000B08  6ED9               	movwf	fsr2l,c
  6969  000B0A  0E00               	movlw	high mode_TransLove@O
  6970  000B0C  2034               	addwfc	??_mode_TransLove+3,w,c
  6971  000B0E  6EDA               	movwf	fsr2h,c
  6972  000B10  50DF               	movf	indf2,w,c
  6973  000B12  1289               	iorwf	3977,f,c	;volatile
  6974  000B14                     l355:
  6975  000B14                     l3007:
  6976                           
  6977                           ; BSR set to: 0
  6978                           ;main2.c: 691: if(i >= 57 && i < 62)
  6979  000B14  BFE6               	btfsc	(mode_TransLove@i+1)& (0+255),7,b
  6980  000B16  D022               	goto	l356
  6981  000B18  51E6               	movf	(mode_TransLove@i+1)& (0+255),w,b
  6982  000B1A  E104               	bnz	u3730
  6983  000B1C  0E39               	movlw	57
  6984  000B1E  5DE5               	subwf	mode_TransLove@i& (0+255),w,b
  6985  000B20  A0D8               	btfss	status,0,c
  6986  000B22  D01C               	goto	l356
  6987  000B24                     u3730:
  6988                           
  6989                           ; BSR set to: 0
  6990  000B24  BFE6               	btfsc	(mode_TransLove@i+1)& (0+255),7,b
  6991  000B26  D006               	goto	u3740
  6992  000B28  51E6               	movf	(mode_TransLove@i+1)& (0+255),w,b
  6993  000B2A  E118               	bnz	l3013
  6994  000B2C  0E3E               	movlw	62
  6995  000B2E  5DE5               	subwf	mode_TransLove@i& (0+255),w,b
  6996  000B30  B0D8               	btfsc	status,0,c
  6997  000B32  D014               	goto	l356
  6998  000B34                     u3740:
  6999                           
  7000                           ; BSR set to: 0
  7001                           ;main2.c: 692: LATA |= V[i - 57];
  7002  000B34  0EC7               	movlw	199
  7003  000B36  6E31               	movwf	??_mode_TransLove& (0+255),c
  7004  000B38  0EFF               	movlw	255
  7005  000B3A  6E32               	movwf	(??_mode_TransLove+1)& (0+255),c
  7006  000B3C  C0E5  F033         	movff	mode_TransLove@i,??_mode_TransLove+2
  7007  000B40  C0E6  F034         	movff	mode_TransLove@i+1,??_mode_TransLove+3
  7008  000B44  5031               	movf	??_mode_TransLove,w,c
  7009  000B46  2633               	addwf	??_mode_TransLove+2,f,c
  7010  000B48  5032               	movf	??_mode_TransLove+1,w,c
  7011  000B4A  2234               	addwfc	??_mode_TransLove+3,f,c
  7012  000B4C  0ECD               	movlw	low mode_TransLove@V
  7013  000B4E  2433               	addwf	??_mode_TransLove+2,w,c
  7014  000B50  6ED9               	movwf	fsr2l,c
  7015  000B52  0E00               	movlw	high mode_TransLove@V
  7016  000B54  2034               	addwfc	??_mode_TransLove+3,w,c
  7017  000B56  6EDA               	movwf	fsr2h,c
  7018  000B58  50DF               	movf	indf2,w,c
  7019  000B5A  1289               	iorwf	3977,f,c	;volatile
  7020  000B5C                     l356:
  7021  000B5C                     l3013:
  7022                           
  7023                           ; BSR set to: 0
  7024                           ;main2.c: 693: if(i >= 63 && i < 68)
  7025  000B5C  BFE6               	btfsc	(mode_TransLove@i+1)& (0+255),7,b
  7026  000B5E  D022               	goto	l357
  7027  000B60  51E6               	movf	(mode_TransLove@i+1)& (0+255),w,b
  7028  000B62  E104               	bnz	u3750
  7029  000B64  0E3F               	movlw	63
  7030  000B66  5DE5               	subwf	mode_TransLove@i& (0+255),w,b
  7031  000B68  A0D8               	btfss	status,0,c
  7032  000B6A  D01C               	goto	l357
  7033  000B6C                     u3750:
  7034                           
  7035                           ; BSR set to: 0
  7036  000B6C  BFE6               	btfsc	(mode_TransLove@i+1)& (0+255),7,b
  7037  000B6E  D006               	goto	u3760
  7038  000B70  51E6               	movf	(mode_TransLove@i+1)& (0+255),w,b
  7039  000B72  E118               	bnz	l3019
  7040  000B74  0E44               	movlw	68
  7041  000B76  5DE5               	subwf	mode_TransLove@i& (0+255),w,b
  7042  000B78  B0D8               	btfsc	status,0,c
  7043  000B7A  D014               	goto	l357
  7044  000B7C                     u3760:
  7045                           
  7046                           ; BSR set to: 0
  7047                           ;main2.c: 694: LATA |= E[i - 63];
  7048  000B7C  0EC1               	movlw	193
  7049  000B7E  6E31               	movwf	??_mode_TransLove& (0+255),c
  7050  000B80  0EFF               	movlw	255
  7051  000B82  6E32               	movwf	(??_mode_TransLove+1)& (0+255),c
  7052  000B84  C0E5  F033         	movff	mode_TransLove@i,??_mode_TransLove+2
  7053  000B88  C0E6  F034         	movff	mode_TransLove@i+1,??_mode_TransLove+3
  7054  000B8C  5031               	movf	??_mode_TransLove,w,c
  7055  000B8E  2633               	addwf	??_mode_TransLove+2,f,c
  7056  000B90  5032               	movf	??_mode_TransLove+1,w,c
  7057  000B92  2234               	addwfc	??_mode_TransLove+3,f,c
  7058  000B94  0ED2               	movlw	low mode_TransLove@E
  7059  000B96  2433               	addwf	??_mode_TransLove+2,w,c
  7060  000B98  6ED9               	movwf	fsr2l,c
  7061  000B9A  0E00               	movlw	high mode_TransLove@E
  7062  000B9C  2034               	addwfc	??_mode_TransLove+3,w,c
  7063  000B9E  6EDA               	movwf	fsr2h,c
  7064  000BA0  50DF               	movf	indf2,w,c
  7065  000BA2  1289               	iorwf	3977,f,c	;volatile
  7066  000BA4                     l357:
  7067  000BA4                     l3019:
  7068                           
  7069                           ; BSR set to: 0
  7070                           ;main2.c: 695: if(i >= 87 && i < 97)
  7071  000BA4  BFE6               	btfsc	(mode_TransLove@i+1)& (0+255),7,b
  7072  000BA6  D022               	goto	l358
  7073  000BA8  51E6               	movf	(mode_TransLove@i+1)& (0+255),w,b
  7074  000BAA  E104               	bnz	u3770
  7075  000BAC  0E57               	movlw	87
  7076  000BAE  5DE5               	subwf	mode_TransLove@i& (0+255),w,b
  7077  000BB0  A0D8               	btfss	status,0,c
  7078  000BB2  D01C               	goto	l358
  7079  000BB4                     u3770:
  7080                           
  7081                           ; BSR set to: 0
  7082  000BB4  BFE6               	btfsc	(mode_TransLove@i+1)& (0+255),7,b
  7083  000BB6  D006               	goto	u3780
  7084  000BB8  51E6               	movf	(mode_TransLove@i+1)& (0+255),w,b
  7085  000BBA  E118               	bnz	l3025
  7086  000BBC  0E61               	movlw	97
  7087  000BBE  5DE5               	subwf	mode_TransLove@i& (0+255),w,b
  7088  000BC0  B0D8               	btfsc	status,0,c
  7089  000BC2  D014               	goto	l358
  7090  000BC4                     u3780:
  7091                           
  7092                           ; BSR set to: 0
  7093                           ;main2.c: 696: LATA |= love[i-87];
  7094  000BC4  0EA9               	movlw	169
  7095  000BC6  6E31               	movwf	??_mode_TransLove& (0+255),c
  7096  000BC8  0EFF               	movlw	255
  7097  000BCA  6E32               	movwf	(??_mode_TransLove+1)& (0+255),c
  7098  000BCC  C0E5  F033         	movff	mode_TransLove@i,??_mode_TransLove+2
  7099  000BD0  C0E6  F034         	movff	mode_TransLove@i+1,??_mode_TransLove+3
  7100  000BD4  5031               	movf	??_mode_TransLove,w,c
  7101  000BD6  2633               	addwf	??_mode_TransLove+2,f,c
  7102  000BD8  5032               	movf	??_mode_TransLove+1,w,c
  7103  000BDA  2234               	addwfc	??_mode_TransLove+3,f,c
  7104  000BDC  0EA0               	movlw	low mode_TransLove@love
  7105  000BDE  2433               	addwf	??_mode_TransLove+2,w,c
  7106  000BE0  6ED9               	movwf	fsr2l,c
  7107  000BE2  0E00               	movlw	high mode_TransLove@love
  7108  000BE4  2034               	addwfc	??_mode_TransLove+3,w,c
  7109  000BE6  6EDA               	movwf	fsr2h,c
  7110  000BE8  50DF               	movf	indf2,w,c
  7111  000BEA  1289               	iorwf	3977,f,c	;volatile
  7112  000BEC                     l358:
  7113  000BEC                     l3025:
  7114                           
  7115                           ; BSR set to: 0
  7116                           ;main2.c: 697: if(i >= arrow_i && i < arrow_i + 16)
  7117  000BEC  51E3               	movf	mode_TransLove@arrow_i& (0+255),w,b
  7118  000BEE  5DE5               	subwf	mode_TransLove@i& (0+255),w,b
  7119  000BF0  51E6               	movf	(mode_TransLove@i+1)& (0+255),w,b
  7120  000BF2  0A80               	xorlw	128
  7121  000BF4  6E31               	movwf	??_mode_TransLove& (0+255),c
  7122  000BF6  51E4               	movf	(mode_TransLove@arrow_i+1)& (0+255),w,b
  7123  000BF8  0A80               	xorlw	128
  7124  000BFA  5831               	subwfb	??_mode_TransLove& (0+255),w,c
  7125  000BFC  A0D8               	btfss	status,0,c
  7126  000BFE  D027               	goto	l359
  7127                           
  7128                           ; BSR set to: 0
  7129  000C00  0E10               	movlw	16
  7130  000C02  25E3               	addwf	mode_TransLove@arrow_i& (0+255),w,b
  7131  000C04  6E31               	movwf	??_mode_TransLove& (0+255),c
  7132  000C06  0E00               	movlw	0
  7133  000C08  21E4               	addwfc	(mode_TransLove@arrow_i+1)& (0+255),w,b
  7134  000C0A  6E32               	movwf	(??_mode_TransLove+1)& (0+255),c
  7135  000C0C  5031               	movf	??_mode_TransLove,w,c
  7136  000C0E  5DE5               	subwf	mode_TransLove@i& (0+255),w,b
  7137  000C10  51E6               	movf	(mode_TransLove@i+1)& (0+255),w,b
  7138  000C12  0A80               	xorlw	128
  7139  000C14  6E33               	movwf	(??_mode_TransLove+2)& (0+255),c
  7140  000C16  5032               	movf	??_mode_TransLove+1,w,c
  7141  000C18  0A80               	xorlw	128
  7142  000C1A  5833               	subwfb	(??_mode_TransLove+2)& (0+255),w,c
  7143  000C1C  B0D8               	btfsc	status,0,c
  7144  000C1E  D017               	goto	l359
  7145                           
  7146                           ; BSR set to: 0
  7147                           ;main2.c: 698: LATA |= arrow[i-arrow_i];
  7148  000C20  C0E3  F031         	movff	mode_TransLove@arrow_i,??_mode_TransLove
  7149  000C24  C0E4  F032         	movff	mode_TransLove@arrow_i+1,??_mode_TransLove+1
  7150  000C28  1E31               	comf	??_mode_TransLove,f,c
  7151  000C2A  1E32               	comf	??_mode_TransLove+1,f,c
  7152  000C2C  4A31               	infsnz	??_mode_TransLove,f,c
  7153  000C2E  2A32               	incf	??_mode_TransLove+1,f,c
  7154  000C30  51E5               	movf	mode_TransLove@i& (0+255),w,b
  7155  000C32  2631               	addwf	??_mode_TransLove,f,c
  7156  000C34  51E6               	movf	(mode_TransLove@i+1)& (0+255),w,b
  7157  000C36  2232               	addwfc	??_mode_TransLove+1,f,c
  7158  000C38  90D8               	bcf	status,0,c
  7159  000C3A  3631               	rlcf	??_mode_TransLove,f,c
  7160  000C3C  3632               	rlcf	??_mode_TransLove+1,f,c
  7161  000C3E  0E80               	movlw	low mode_TransLove@arrow
  7162  000C40  2431               	addwf	??_mode_TransLove,w,c
  7163  000C42  6ED9               	movwf	fsr2l,c
  7164  000C44  0E00               	movlw	high mode_TransLove@arrow
  7165  000C46  2032               	addwfc	??_mode_TransLove+1,w,c
  7166  000C48  6EDA               	movwf	fsr2h,c
  7167  000C4A  50DF               	movf	indf2,w,c
  7168  000C4C  1289               	iorwf	3977,f,c	;volatile
  7169  000C4E                     l359:
  7170                           
  7171                           ; BSR set to: 0
  7172                           ;main2.c: 699: if(i >= arrow_i + 99 && i < arrow_i + 99 + 16)
  7173                           
  7174                           ; BSR set to: 0
  7175  000C4E  0E63               	movlw	99
  7176  000C50  25E3               	addwf	mode_TransLove@arrow_i& (0+255),w,b
  7177  000C52  6E31               	movwf	??_mode_TransLove& (0+255),c
  7178  000C54  0E00               	movlw	0
  7179  000C56  21E4               	addwfc	(mode_TransLove@arrow_i+1)& (0+255),w,b
  7180  000C58  6E32               	movwf	(??_mode_TransLove+1)& (0+255),c
  7181  000C5A  5031               	movf	??_mode_TransLove,w,c
  7182  000C5C  5DE5               	subwf	mode_TransLove@i& (0+255),w,b
  7183  000C5E  51E6               	movf	(mode_TransLove@i+1)& (0+255),w,b
  7184  000C60  0A80               	xorlw	128
  7185  000C62  6E33               	movwf	(??_mode_TransLove+2)& (0+255),c
  7186  000C64  5032               	movf	??_mode_TransLove+1,w,c
  7187  000C66  0A80               	xorlw	128
  7188  000C68  5833               	subwfb	(??_mode_TransLove+2)& (0+255),w,c
  7189  000C6A  A0D8               	btfss	status,0,c
  7190  000C6C  D029               	goto	l360
  7191                           
  7192                           ; BSR set to: 0
  7193  000C6E  0E73               	movlw	115
  7194  000C70  25E3               	addwf	mode_TransLove@arrow_i& (0+255),w,b
  7195  000C72  6E31               	movwf	??_mode_TransLove& (0+255),c
  7196  000C74  0E00               	movlw	0
  7197  000C76  21E4               	addwfc	(mode_TransLove@arrow_i+1)& (0+255),w,b
  7198  000C78  6E32               	movwf	(??_mode_TransLove+1)& (0+255),c
  7199  000C7A  5031               	movf	??_mode_TransLove,w,c
  7200  000C7C  5DE5               	subwf	mode_TransLove@i& (0+255),w,b
  7201  000C7E  51E6               	movf	(mode_TransLove@i+1)& (0+255),w,b
  7202  000C80  0A80               	xorlw	128
  7203  000C82  6E33               	movwf	(??_mode_TransLove+2)& (0+255),c
  7204  000C84  5032               	movf	??_mode_TransLove+1,w,c
  7205  000C86  0A80               	xorlw	128
  7206  000C88  5833               	subwfb	(??_mode_TransLove+2)& (0+255),w,c
  7207  000C8A  B0D8               	btfsc	status,0,c
  7208  000C8C  D019               	goto	l360
  7209                           
  7210                           ; BSR set to: 0
  7211                           ;main2.c: 700: LATA |= arrow[i-arrow_i-99];
  7212  000C8E  0E63               	movlw	99
  7213  000C90  25E3               	addwf	mode_TransLove@arrow_i& (0+255),w,b
  7214  000C92  6E31               	movwf	??_mode_TransLove& (0+255),c
  7215  000C94  0E00               	movlw	0
  7216  000C96  21E4               	addwfc	(mode_TransLove@arrow_i+1)& (0+255),w,b
  7217  000C98  6E32               	movwf	(??_mode_TransLove+1)& (0+255),c
  7218  000C9A  1E31               	comf	??_mode_TransLove,f,c
  7219  000C9C  1E32               	comf	??_mode_TransLove+1,f,c
  7220  000C9E  4A31               	infsnz	??_mode_TransLove,f,c
  7221  000CA0  2A32               	incf	??_mode_TransLove+1,f,c
  7222  000CA2  51E5               	movf	mode_TransLove@i& (0+255),w,b
  7223  000CA4  2631               	addwf	??_mode_TransLove,f,c
  7224  000CA6  51E6               	movf	(mode_TransLove@i+1)& (0+255),w,b
  7225  000CA8  2232               	addwfc	??_mode_TransLove+1,f,c
  7226  000CAA  90D8               	bcf	status,0,c
  7227  000CAC  3631               	rlcf	??_mode_TransLove,f,c
  7228  000CAE  3632               	rlcf	??_mode_TransLove+1,f,c
  7229  000CB0  0E80               	movlw	low mode_TransLove@arrow
  7230  000CB2  2431               	addwf	??_mode_TransLove,w,c
  7231  000CB4  6ED9               	movwf	fsr2l,c
  7232  000CB6  0E00               	movlw	high mode_TransLove@arrow
  7233  000CB8  2032               	addwfc	??_mode_TransLove+1,w,c
  7234  000CBA  6EDA               	movwf	fsr2h,c
  7235  000CBC  50DF               	movf	indf2,w,c
  7236  000CBE  1289               	iorwf	3977,f,c	;volatile
  7237  000CC0                     l360:
  7238                           
  7239                           ; BSR set to: 0
  7240                           ;main2.c: 701: int bright = 40;
  7241                           
  7242                           ; BSR set to: 0
  7243  000CC0  0E00               	movlw	0
  7244  000CC2  6FDA               	movwf	(mode_TransLove@bright+1)& (0+255),b
  7245  000CC4  0E28               	movlw	40
  7246  000CC6  6FD9               	movwf	mode_TransLove@bright& (0+255),b
  7247  000CC8                     l3039:
  7248                           
  7249                           ; BSR set to: 0
  7250  000CC8  07D9               	decf	mode_TransLove@bright& (0+255),f,b
  7251  000CCA  A0D8               	btfss	status,0,c
  7252  000CCC  07DA               	decf	(mode_TransLove@bright+1)& (0+255),f,b
  7253  000CCE  29D9               	incf	mode_TransLove@bright& (0+255),w,b
  7254  000CD0  E1FB               	bnz	l3039
  7255  000CD2  29DA               	incf	(mode_TransLove@bright+1)& (0+255),w,b
  7256  000CD4  A4D8               	btfss	status,2,c
  7257  000CD6  D7F8               	goto	l362
  7258                           
  7259                           ; BSR set to: 0
  7260                           ;main2.c: 703: LATA = 0;
  7261                           
  7262                           ; BSR set to: 0
  7263  000CD8  0E00               	movlw	0
  7264  000CDA  6E89               	movwf	3977,c	;volatile
  7265                           
  7266                           ;main2.c: 704: int dark = 40;
  7267  000CDC  0E00               	movlw	0
  7268  000CDE  6FDC               	movwf	(mode_TransLove@dark+1)& (0+255),b
  7269  000CE0  0E28               	movlw	40
  7270  000CE2  6FDB               	movwf	mode_TransLove@dark& (0+255),b
  7271  000CE4                     l3043:
  7272                           
  7273                           ; BSR set to: 0
  7274  000CE4  07DB               	decf	mode_TransLove@dark& (0+255),f,b
  7275  000CE6  A0D8               	btfss	status,0,c
  7276  000CE8  07DC               	decf	(mode_TransLove@dark+1)& (0+255),f,b
  7277  000CEA  29DB               	incf	mode_TransLove@dark& (0+255),w,b
  7278  000CEC  E1FB               	bnz	l3043
  7279  000CEE  29DC               	incf	(mode_TransLove@dark+1)& (0+255),w,b
  7280  000CF0  A4D8               	btfss	status,2,c
  7281  000CF2  D7F8               	goto	l365
  7282                           
  7283                           ; BSR set to: 0
  7284                           
  7285                           ; BSR set to: 0
  7286  000CF4  4BE5               	infsnz	mode_TransLove@i& (0+255),f,b
  7287  000CF6  2BE6               	incf	(mode_TransLove@i+1)& (0+255),f,b
  7288                           
  7289                           ; BSR set to: 0
  7290  000CF8  BFE6               	btfsc	(mode_TransLove@i+1)& (0+255),7,b
  7291  000CFA  D5BA               	goto	l333
  7292  000CFC  51E6               	movf	(mode_TransLove@i+1)& (0+255),w,b
  7293  000CFE  E101               	bnz	l3049
  7294  000D00  D5B1               	goto	L13
  7295  000D02                     u3850:
  7296  000D02                     l3049:
  7297                           
  7298                           ; BSR set to: 0
  7299                           ;main2.c: 706: }
  7300                           ;main2.c: 708: if(arrow_i == 48)
  7301  000D02  0E30               	movlw	48
  7302  000D04  19E3               	xorwf	mode_TransLove@arrow_i& (0+255),w,b
  7303  000D06  11E4               	iorwf	(mode_TransLove@arrow_i+1)& (0+255),w,b
  7304  000D08  A4D8               	btfss	status,2,c
  7305  000D0A  D004               	goto	l367
  7306                           
  7307                           ; BSR set to: 0
  7308                           ;main2.c: 709: arrow_speed = 1;
  7309  000D0C  0E00               	movlw	0
  7310  000D0E  6FE0               	movwf	(mode_TransLove@arrow_speed+1)& (0+255),b
  7311  000D10  0E01               	movlw	1
  7312  000D12  6FDF               	movwf	mode_TransLove@arrow_speed& (0+255),b
  7313  000D14                     l367:
  7314                           
  7315                           ; BSR set to: 0
  7316                           ;main2.c: 711: if(arrow_i == 87-4)
  7317                           
  7318                           ; BSR set to: 0
  7319  000D14  0E53               	movlw	83
  7320  000D16  19E3               	xorwf	mode_TransLove@arrow_i& (0+255),w,b
  7321  000D18  11E4               	iorwf	(mode_TransLove@arrow_i+1)& (0+255),w,b
  7322  000D1A  A4D8               	btfss	status,2,c
  7323  000D1C  D00A               	goto	l369
  7324                           
  7325                           ; BSR set to: 0
  7326                           ;main2.c: 712: if(--stop_arrow)
  7327  000D1E  07DD               	decf	mode_TransLove@stop_arrow& (0+255),f,b
  7328  000D20  A0D8               	btfss	status,0,c
  7329  000D22  07DE               	decf	(mode_TransLove@stop_arrow+1)& (0+255),f,b
  7330  000D24  51DD               	movf	mode_TransLove@stop_arrow& (0+255),w,b
  7331  000D26  11DE               	iorwf	(mode_TransLove@stop_arrow+1)& (0+255),w,b
  7332  000D28  B4D8               	btfsc	status,2,c
  7333  000D2A  D003               	goto	l369
  7334                           
  7335                           ; BSR set to: 0
  7336                           ;main2.c: 713: --arrow_i;
  7337  000D2C  07E3               	decf	mode_TransLove@arrow_i& (0+255),f,b
  7338  000D2E  A0D8               	btfss	status,0,c
  7339  000D30  07E4               	decf	(mode_TransLove@arrow_i+1)& (0+255),f,b
  7340  000D32                     l369:
  7341                           
  7342                           ; BSR set to: 0
  7343                           ;main2.c: 715: arrow_i += arrow_speed;
  7344                           
  7345                           ; BSR set to: 0
  7346                           
  7347                           ; BSR set to: 0
  7348  000D32  51DF               	movf	mode_TransLove@arrow_speed& (0+255),w,b
  7349  000D34  27E3               	addwf	mode_TransLove@arrow_i& (0+255),f,b
  7350  000D36  51E0               	movf	(mode_TransLove@arrow_speed+1)& (0+255),w,b
  7351  000D38  23E4               	addwfc	(mode_TransLove@arrow_i+1)& (0+255),f,b
  7352                           
  7353                           ; BSR set to: 0
  7354                           ;main2.c: 717: if(arrow_i > 99-15){
  7355  000D3A  BFE4               	btfsc	(mode_TransLove@arrow_i+1)& (0+255),7,b
  7356  000D3C  D012               	goto	l370
  7357  000D3E  51E4               	movf	(mode_TransLove@arrow_i+1)& (0+255),w,b
  7358  000D40  E104               	bnz	u3890
  7359  000D42  0E55               	movlw	85
  7360  000D44  5DE3               	subwf	mode_TransLove@arrow_i& (0+255),w,b
  7361  000D46  A0D8               	btfss	status,0,c
  7362  000D48  D00C               	goto	l370
  7363  000D4A                     u3890:
  7364                           
  7365                           ; BSR set to: 0
  7366                           ;main2.c: 718: stop_arrow = 120;
  7367  000D4A  0E00               	movlw	0
  7368  000D4C  6FDE               	movwf	(mode_TransLove@stop_arrow+1)& (0+255),b
  7369  000D4E  0E78               	movlw	120
  7370  000D50  6FDD               	movwf	mode_TransLove@stop_arrow& (0+255),b
  7371                           
  7372                           ;main2.c: 719: arrow_i = -15;
  7373  000D52  0EFF               	movlw	255
  7374  000D54  6FE4               	movwf	(mode_TransLove@arrow_i+1)& (0+255),b
  7375  000D56  0EF1               	movlw	241
  7376  000D58  6FE3               	movwf	mode_TransLove@arrow_i& (0+255),b
  7377                           
  7378                           ;main2.c: 720: arrow_speed = 3;
  7379  000D5A  0E00               	movlw	0
  7380  000D5C  6FE0               	movwf	(mode_TransLove@arrow_speed+1)& (0+255),b
  7381  000D5E  0E03               	movlw	3
  7382  000D60  6FDF               	movwf	mode_TransLove@arrow_speed& (0+255),b
  7383  000D62                     l370:
  7384                           
  7385                           ; BSR set to: 0
  7386                           
  7387                           ; BSR set to: 0
  7388                           
  7389                           ; BSR set to: 0
  7390  000D62  07D7               	decf	mode_TransLove@cycle& (0+255),f,b
  7391  000D64  A0D8               	btfss	status,0,c
  7392  000D66  07D8               	decf	(mode_TransLove@cycle+1)& (0+255),f,b
  7393  000D68  29D7               	incf	mode_TransLove@cycle& (0+255),w,b
  7394  000D6A  E103               	bnz	u3901
  7395  000D6C  29D8               	incf	(mode_TransLove@cycle+1)& (0+255),w,b
  7396  000D6E  B4D8               	btfsc	status,2,c
  7397  000D70  0012               	return	
  7398  000D72                     u3901:
  7399  000D72  D570               	goto	l332
  7400  000D74                     __end_of_mode_TransLove:
  7401                           	opt stack 0
  7402                           tblptru	equ	0xFF8
  7403                           tblptrh	equ	0xFF7
  7404                           tblptrl	equ	0xFF6
  7405                           tablat	equ	0xFF5
  7406                           prodh	equ	0xFF4
  7407                           prodl	equ	0xFF3
  7408                           intcon	equ	0xFF2
  7409                           postinc0	equ	0xFEE
  7410                           wreg	equ	0xFE8
  7411                           postdec1	equ	0xFE5
  7412                           plusw1	equ	0xFE3
  7413                           fsr1l	equ	0xFE1
  7414                           indf2	equ	0xFDF
  7415                           postinc2	equ	0xFDE
  7416                           postdec2	equ	0xFDD
  7417                           plusw2	equ	0xFDB
  7418                           fsr2h	equ	0xFDA
  7419                           fsr2l	equ	0xFD9
  7420                           status	equ	0xFD8
  7421                           
  7422 ;; *************** function _tc_int *****************
  7423 ;; Defined at:
  7424 ;;		line 1006 in file "main2.c"
  7425 ;; Parameters:    Size  Location     Type
  7426 ;;		None
  7427 ;; Auto vars:     Size  Location     Type
  7428 ;;		None
  7429 ;; Return value:  Size  Location     Type
  7430 ;;                  1    wreg      void 
  7431 ;; Registers used:
  7432 ;;		wreg, status,2, status,0, cstack
  7433 ;; Tracked objects:
  7434 ;;		On entry : 0/0
  7435 ;;		On exit  : 0/0
  7436 ;;		Unchanged: 0/0
  7437 ;; Data sizes:     COMRAM   BANK0   BANK1   BANK2   BANK3   BANK4   BANK5
  7438 ;;      Params:         0       0       0       0       0       0       0
  7439 ;;      Locals:         0       0       0       0       0       0       0
  7440 ;;      Temps:         18       0       0       0       0       0       0
  7441 ;;      Totals:        18       0       0       0       0       0       0
  7442 ;;Total ram usage:       18 bytes
  7443 ;; Hardware stack levels used:    1
  7444 ;; Hardware stack levels required when called:    1
  7445 ;; This function calls:
  7446 ;;		_update_time
  7447 ;; This function is called by:
  7448 ;;		Interrupt level 2
  7449 ;; This function uses a non-reentrant model
  7450 ;;
  7451                           
  7452                           	psect	intcode
  7453  000008                     __pintcode:
  7454                           	opt stack 0
  7455  000008                     _tc_int:
  7456                           	opt stack 26
  7457                           
  7458                           ; BSR set to: 0
  7459                           ;incstack = 0
  7460  000008  823F               	bsf	btemp,1,c	;set compiler interrupt flag (level 2)
  7461  00000A  ED74  F00D         	call	int_func,f	;refresh shadow registers
  7462                           tblptru	equ	0xFF8
  7463                           tblptrh	equ	0xFF7
  7464                           tblptrl	equ	0xFF6
  7465                           tablat	equ	0xFF5
  7466                           prodh	equ	0xFF4
  7467                           prodl	equ	0xFF3
  7468                           intcon	equ	0xFF2
  7469                           postinc0	equ	0xFEE
  7470                           wreg	equ	0xFE8
  7471                           postdec1	equ	0xFE5
  7472                           plusw1	equ	0xFE3
  7473                           fsr1l	equ	0xFE1
  7474                           indf2	equ	0xFDF
  7475                           postinc2	equ	0xFDE
  7476                           postdec2	equ	0xFDD
  7477                           plusw2	equ	0xFDB
  7478                           fsr2h	equ	0xFDA
  7479                           fsr2l	equ	0xFD9
  7480                           status	equ	0xFD8
  7481                           
  7482                           	psect	intcode_body
  7483  001AE8                     __pintcode_body:
  7484                           	opt stack 26
  7485  001AE8                     int_func:
  7486                           	opt stack 26
  7487  001AE8  0006               	pop		; remove dummy address from shadow register refresh
  7488  001AEA  CFFA F01F          	movff	pclath,??_tc_int
  7489  001AEE  CFFB F020          	movff	pclatu,??_tc_int+1
  7490  001AF2  CFE9 F021          	movff	fsr0l,??_tc_int+2
  7491  001AF6  CFEA F022          	movff	fsr0h,??_tc_int+3
  7492  001AFA  CFE1 F023          	movff	fsr1l,??_tc_int+4
  7493  001AFE  CFE2 F024          	movff	fsr1h,??_tc_int+5
  7494  001B02  CFD9 F025          	movff	fsr2l,??_tc_int+6
  7495  001B06  CFDA F026          	movff	fsr2h,??_tc_int+7
  7496  001B0A  CFF3 F027          	movff	prodl,??_tc_int+8
  7497  001B0E  CFF4 F028          	movff	prodh,??_tc_int+9
  7498  001B12  CFF6 F029          	movff	tblptrl,??_tc_int+10
  7499  001B16  CFF7 F02A          	movff	tblptrh,??_tc_int+11
  7500  001B1A  CFF8 F02B          	movff	tblptru,??_tc_int+12
  7501  001B1E  CFF5 F02C          	movff	tablat,??_tc_int+13
  7502  001B22  C03F  F02D         	movff	btemp,??_tc_int+14
  7503  001B26  C040  F02E         	movff	btemp+1,??_tc_int+15
  7504  001B2A  C041  F02F         	movff	btemp+2,??_tc_int+16
  7505  001B2E  C042  F030         	movff	btemp+3,??_tc_int+17
  7506                           
  7507                           ;main2.c: 1008: if(TMR1IE && TMR1IF){
  7508  001B32  B09D               	btfsc	3997,0,c	;volatile
  7509  001B34  A09E               	btfss	3998,0,c	;volatile
  7510  001B36  D012               	goto	i2l463
  7511                           
  7512                           ;main2.c: 1009: TMR1 = 15535;
  7513  001B38  0E3C               	movlw	60
  7514  001B3A  6ECF               	movwf	4047,c	;volatile
  7515  001B3C  0EAF               	movlw	175
  7516  001B3E  6ECE               	movwf	4046,c	;volatile
  7517                           
  7518                           ;main2.c: 1010: TMR1IF=0;
  7519  001B40  909E               	bcf	3998,0,c	;volatile
  7520                           
  7521                           ;main2.c: 1011: count++;
  7522  001B42  4A3D               	infsnz	_count,f,c
  7523  001B44  2A3E               	incf	_count+1,f,c
  7524                           
  7525                           ;main2.c: 1012: if(count == 5){
  7526  001B46  0E05               	movlw	5
  7527  001B48  183D               	xorwf	_count,w,c
  7528  001B4A  103E               	iorwf	_count+1,w,c
  7529  001B4C  A4D8               	btfss	status,2,c
  7530  001B4E  D006               	goto	i2l463
  7531                           
  7532                           ;main2.c: 1013: count = 0;
  7533  001B50  0E00               	movlw	0
  7534  001B52  6E3E               	movwf	_count+1,c
  7535  001B54  0E00               	movlw	0
  7536  001B56  6E3D               	movwf	_count,c
  7537                           
  7538                           ;main2.c: 1014: update_time();
  7539  001B58  EC23  F00F         	call	_update_time	;wreg free
  7540  001B5C                     i2l463:
  7541  001B5C  C030  F042         	movff	??_tc_int+17,btemp+3
  7542  001B60  C02F  F041         	movff	??_tc_int+16,btemp+2
  7543  001B64  C02E  F040         	movff	??_tc_int+15,btemp+1
  7544  001B68  C02D  F03F         	movff	??_tc_int+14,btemp
  7545  001B6C  C02C  FFF5         	movff	??_tc_int+13,tablat
  7546  001B70  C02B  FFF8         	movff	??_tc_int+12,tblptru
  7547  001B74  C02A  FFF7         	movff	??_tc_int+11,tblptrh
  7548  001B78  C029  FFF6         	movff	??_tc_int+10,tblptrl
  7549  001B7C  C028  FFF4         	movff	??_tc_int+9,prodh
  7550  001B80  C027  FFF3         	movff	??_tc_int+8,prodl
  7551  001B84  C026  FFDA         	movff	??_tc_int+7,fsr2h
  7552  001B88  C025  FFD9         	movff	??_tc_int+6,fsr2l
  7553  001B8C  C024  FFE2         	movff	??_tc_int+5,fsr1h
  7554  001B90  C023  FFE1         	movff	??_tc_int+4,fsr1l
  7555  001B94  C022  FFEA         	movff	??_tc_int+3,fsr0h
  7556  001B98  C021  FFE9         	movff	??_tc_int+2,fsr0l
  7557  001B9C  C020  FFFB         	movff	??_tc_int+1,pclatu
  7558  001BA0  C01F  FFFA         	movff	??_tc_int,pclath
  7559  001BA4  923F               	bcf	btemp,1,c	;clear compiler interrupt flag (level 2)
  7560  001BA6  0011               	retfie		f
  7561  001BA8                     __end_of_tc_int:
  7562                           	opt stack 0
  7563                           pclatu	equ	0xFFB
  7564                           pclath	equ	0xFFA
  7565                           tblptru	equ	0xFF8
  7566                           tblptrh	equ	0xFF7
  7567                           tblptrl	equ	0xFF6
  7568                           tablat	equ	0xFF5
  7569                           prodh	equ	0xFF4
  7570                           prodl	equ	0xFF3
  7571                           intcon	equ	0xFF2
  7572                           postinc0	equ	0xFEE
  7573                           fsr0h	equ	0xFEA
  7574                           fsr0l	equ	0xFE9
  7575                           wreg	equ	0xFE8
  7576                           postdec1	equ	0xFE5
  7577                           plusw1	equ	0xFE3
  7578                           fsr1h	equ	0xFE2
  7579                           fsr1l	equ	0xFE1
  7580                           indf2	equ	0xFDF
  7581                           postinc2	equ	0xFDE
  7582                           postdec2	equ	0xFDD
  7583                           plusw2	equ	0xFDB
  7584                           fsr2h	equ	0xFDA
  7585                           fsr2l	equ	0xFD9
  7586                           status	equ	0xFD8
  7587                           
  7588 ;; *************** function _update_time *****************
  7589 ;; Defined at:
  7590 ;;		line 995 in file "main2.c"
  7591 ;; Parameters:    Size  Location     Type
  7592 ;;		None
  7593 ;; Auto vars:     Size  Location     Type
  7594 ;;		None
  7595 ;; Return value:  Size  Location     Type
  7596 ;;                  1    wreg      void 
  7597 ;; Registers used:
  7598 ;;		wreg, status,2, status,0
  7599 ;; Tracked objects:
  7600 ;;		On entry : 0/0
  7601 ;;		On exit  : 0/0
  7602 ;;		Unchanged: 0/0
  7603 ;; Data sizes:     COMRAM   BANK0   BANK1   BANK2   BANK3   BANK4   BANK5
  7604 ;;      Params:         0       0       0       0       0       0       0
  7605 ;;      Locals:         0       0       0       0       0       0       0
  7606 ;;      Temps:          0       0       0       0       0       0       0
  7607 ;;      Totals:         0       0       0       0       0       0       0
  7608 ;;Total ram usage:        0 bytes
  7609 ;; Hardware stack levels used:    1
  7610 ;; This function calls:
  7611 ;;		Nothing
  7612 ;; This function is called by:
  7613 ;;		_tc_int
  7614 ;; This function uses a non-reentrant model
  7615 ;;
  7616                           
  7617                           	psect	text11
  7618  001E46                     __ptext11:
  7619                           	opt stack 0
  7620  001E46                     _update_time:
  7621                           	opt stack 26
  7622                           
  7623                           ;main2.c: 996: if(++seconds == 60){
  7624                           
  7625                           ;incstack = 0
  7626  001E46  0101               	movlb	1	; () banked
  7627  001E48  4BF0               	infsnz	_seconds& (0+255),f,b
  7628  001E4A  2BF1               	incf	(_seconds+1)& (0+255),f,b
  7629  001E4C  0E3C               	movlw	60
  7630  001E4E  19F0               	xorwf	_seconds& (0+255),w,b
  7631  001E50  11F1               	iorwf	(_seconds+1)& (0+255),w,b
  7632  001E52  A4D8               	btfss	status,2,c
  7633  001E54  0012               	return	
  7634                           
  7635                           ; BSR set to: 1
  7636                           ;main2.c: 997: seconds = 0;
  7637  001E56  0E00               	movlw	0
  7638  001E58  6FF1               	movwf	(_seconds+1)& (0+255),b
  7639  001E5A  0E00               	movlw	0
  7640  001E5C  6FF0               	movwf	_seconds& (0+255),b
  7641                           
  7642                           ; BSR set to: 1
  7643                           ;main2.c: 998: if(++minutes==60){
  7644  001E5E  4BEE               	infsnz	_minutes& (0+255),f,b
  7645  001E60  2BEF               	incf	(_minutes+1)& (0+255),f,b
  7646  001E62  0E3C               	movlw	60
  7647  001E64  19EE               	xorwf	_minutes& (0+255),w,b
  7648  001E66  11EF               	iorwf	(_minutes+1)& (0+255),w,b
  7649  001E68  A4D8               	btfss	status,2,c
  7650  001E6A  0012               	return	
  7651                           
  7652                           ; BSR set to: 1
  7653                           ;main2.c: 999: minutes = 0;
  7654  001E6C  0E00               	movlw	0
  7655  001E6E  6FEF               	movwf	(_minutes+1)& (0+255),b
  7656  001E70  0E00               	movlw	0
  7657  001E72  6FEE               	movwf	_minutes& (0+255),b
  7658                           
  7659                           ; BSR set to: 1
  7660                           ;main2.c: 1000: if(++hours == 24)
  7661  001E74  4BF2               	infsnz	_hours& (0+255),f,b
  7662  001E76  2BF3               	incf	(_hours+1)& (0+255),f,b
  7663  001E78  0E18               	movlw	24
  7664  001E7A  19F2               	xorwf	_hours& (0+255),w,b
  7665  001E7C  11F3               	iorwf	(_hours+1)& (0+255),w,b
  7666  001E7E  A4D8               	btfss	status,2,c
  7667  001E80  0012               	return	
  7668                           
  7669                           ; BSR set to: 1
  7670                           ;main2.c: 1001: hours = 0;
  7671  001E82  0E00               	movlw	0
  7672  001E84  6FF3               	movwf	(_hours+1)& (0+255),b
  7673  001E86  0E00               	movlw	0
  7674  001E88  6FF2               	movwf	_hours& (0+255),b
  7675                           
  7676                           ; BSR set to: 1
  7677                           
  7678                           ; BSR set to: 1
  7679  001E8A  0012               	return	
  7680  001E8C                     __end_of_update_time:
  7681                           	opt stack 0
  7682  0000                     pclatu	equ	0xFFB
  7683                           pclath	equ	0xFFA
  7684                           tblptru	equ	0xFF8
  7685                           tblptrh	equ	0xFF7
  7686                           tblptrl	equ	0xFF6
  7687                           tablat	equ	0xFF5
  7688                           prodh	equ	0xFF4
  7689                           prodl	equ	0xFF3
  7690                           intcon	equ	0xFF2
  7691                           postinc0	equ	0xFEE
  7692                           fsr0h	equ	0xFEA
  7693                           fsr0l	equ	0xFE9
  7694                           wreg	equ	0xFE8
  7695                           postdec1	equ	0xFE5
  7696                           plusw1	equ	0xFE3
  7697                           fsr1h	equ	0xFE2
  7698                           fsr1l	equ	0xFE1
  7699                           indf2	equ	0xFDF
  7700                           postinc2	equ	0xFDE
  7701                           postdec2	equ	0xFDD
  7702                           plusw2	equ	0xFDB
  7703                           fsr2h	equ	0xFDA
  7704                           fsr2l	equ	0xFD9
  7705                           status	equ	0xFD8
  7706                           pclatu	equ	0xFFB
  7707                           pclath	equ	0xFFA
  7708                           tblptru	equ	0xFF8
  7709                           tblptrh	equ	0xFF7
  7710                           tblptrl	equ	0xFF6
  7711                           tablat	equ	0xFF5
  7712                           prodh	equ	0xFF4
  7713                           prodl	equ	0xFF3
  7714                           intcon	equ	0xFF2
  7715                           postinc0	equ	0xFEE
  7716                           fsr0h	equ	0xFEA
  7717                           fsr0l	equ	0xFE9
  7718                           wreg	equ	0xFE8
  7719                           postdec1	equ	0xFE5
  7720                           plusw1	equ	0xFE3
  7721                           fsr1h	equ	0xFE2
  7722                           fsr1l	equ	0xFE1
  7723                           indf2	equ	0xFDF
  7724                           postinc2	equ	0xFDE
  7725                           postdec2	equ	0xFDD
  7726                           plusw2	equ	0xFDB
  7727                           fsr2h	equ	0xFDA
  7728                           fsr2l	equ	0xFD9
  7729                           status	equ	0xFD8
  7730                           
  7731                           	psect	rparam
  7732  0000                     pclatu	equ	0xFFB
  7733                           pclath	equ	0xFFA
  7734                           tblptru	equ	0xFF8
  7735                           tblptrh	equ	0xFF7
  7736                           tblptrl	equ	0xFF6
  7737                           tablat	equ	0xFF5
  7738                           prodh	equ	0xFF4
  7739                           prodl	equ	0xFF3
  7740                           intcon	equ	0xFF2
  7741                           postinc0	equ	0xFEE
  7742                           fsr0h	equ	0xFEA
  7743                           fsr0l	equ	0xFE9
  7744                           wreg	equ	0xFE8
  7745                           postdec1	equ	0xFE5
  7746                           plusw1	equ	0xFE3
  7747                           fsr1h	equ	0xFE2
  7748                           fsr1l	equ	0xFE1
  7749                           indf2	equ	0xFDF
  7750                           postinc2	equ	0xFDE
  7751                           postdec2	equ	0xFDD
  7752                           plusw2	equ	0xFDB
  7753                           fsr2h	equ	0xFDA
  7754                           fsr2l	equ	0xFD9
  7755                           status	equ	0xFD8
  7756                           
  7757                           	psect	temp
  7758  00003F                     btemp:
  7759                           	opt stack 0
  7760  00003F                     	ds	1
  7761  0000                     int$flags	set	btemp
  7762  0000                     wtemp6	set	btemp+1
  7763                           pclatu	equ	0xFFB
  7764                           pclath	equ	0xFFA
  7765                           tblptru	equ	0xFF8
  7766                           tblptrh	equ	0xFF7
  7767                           tblptrl	equ	0xFF6
  7768                           tablat	equ	0xFF5
  7769                           prodh	equ	0xFF4
  7770                           prodl	equ	0xFF3
  7771                           intcon	equ	0xFF2
  7772                           postinc0	equ	0xFEE
  7773                           fsr0h	equ	0xFEA
  7774                           fsr0l	equ	0xFE9
  7775                           wreg	equ	0xFE8
  7776                           postdec1	equ	0xFE5
  7777                           plusw1	equ	0xFE3
  7778                           fsr1h	equ	0xFE2
  7779                           fsr1l	equ	0xFE1
  7780                           indf2	equ	0xFDF
  7781                           postinc2	equ	0xFDE
  7782                           postdec2	equ	0xFDD
  7783                           plusw2	equ	0xFDB
  7784                           fsr2h	equ	0xFDA
  7785                           fsr2l	equ	0xFD9
  7786                           status	equ	0xFD8


Data Sizes:
    Strings     0
    Constant    0
    Data        527
    BSS         6
    Persistent  2
    Stack       0

Auto Spaces:
    Space          Size  Autos    Used
    COMRAM          126     30      62
    BANK0           128    120     125
    BANK1           256    172     244
    BANK2           256      0     232
    BANK3           256      0     194
    BANK4           256      0       0
    BANK5           256      0       0

Pointer List with Targets:

    mode_clock@face_i	PTR int  size(2) Largest target is 26
		 -> mode_clock@face(BANK1[26]), 

    mode_clock@show	PTR int  size(2) Largest target is 80
		 -> mode_clock@MAS(BANK1[80]), mode_clock@X(BANK1[28]), 

    display_num@iter	PTR unsigned char  size(2) Largest target is 50
		 -> display_num@num(BANK0[50]), 

    mode_walker@show	PTR unsigned int  size(2) Largest target is 108
		 -> walker(BANK3[108]), 

    mode_tree@show_413	PTR int  size(2) Largest target is 42
		 -> mode_tree@tree(BANK0[42]), 

    mode_tree@show_407	PTR int  size(2) Largest target is 42
		 -> mode_tree@tree(BANK0[42]), 

    mode_tree@show_403	PTR int  size(2) Largest target is 42
		 -> mode_tree@tree(BANK0[42]), 

    mode_tree@show_397	PTR int  size(2) Largest target is 42
		 -> mode_tree@tree(BANK0[42]), 

    mode_tree@six_ptr_395	PTR int  size(2) Largest target is 12
		 -> mode_tree@six(BANK0[12]), 

    mode_tree@show	PTR int  size(2) Largest target is 42
		 -> mode_tree@tree(BANK0[42]), 

    mode_tree@six_ptr	PTR int  size(2) Largest target is 12
		 -> mode_tree@six(BANK0[12]), 

    mode_snow@show	PTR int  size(2) Largest target is 108
		 -> walker(BANK3[108]), mode_snow@snow_car(BANK0[86]), 


Critical Paths under _main in COMRAM

    _main->_mode_clock
    _main->_mode_walker
    _mode_walker->___awmod
    _mode_walker->___wmul
    _mode_snow->___wmul
    _mode_clock->_display_num
    _display_num->___awdiv

Critical Paths under _tc_int in COMRAM

    None.

Critical Paths under _main in BANK0

    _main->_mode_tree
    _mode_clock->_display_num

Critical Paths under _tc_int in BANK0

    None.

Critical Paths under _main in BANK1

    _main->_mode_clock

Critical Paths under _tc_int in BANK1

    None.

Critical Paths under _main in BANK2

    None.

Critical Paths under _tc_int in BANK2

    None.

Critical Paths under _main in BANK3

    None.

Critical Paths under _tc_int in BANK3

    None.

Critical Paths under _main in BANK4

    None.

Critical Paths under _tc_int in BANK4

    None.

Critical Paths under _main in BANK5

    None.

Critical Paths under _tc_int in BANK5

    None.

Call Graph Tables:

 ---------------------------------------------------------------------------------
 (Depth) Function   	        Calls       Base Space   Used Autos Params    Refs
 ---------------------------------------------------------------------------------
 (0) _main                                                 0     0      0   16469
                     _mode_TransLove
                         _mode_clock
                          _mode_snow
                          _mode_tree
                        _mode_walker
 ---------------------------------------------------------------------------------
 (1) _mode_walker                                         66    66      0    5135
                                             24 COMRAM     6     6      0
                                              0 BANK0     60    60      0
                            ___awmod
                             ___wmul
 ---------------------------------------------------------------------------------
 (1) _mode_tree                                          122   122      0    1744
                                             18 COMRAM     2     2      0
                                              0 BANK0    120   120      0
 ---------------------------------------------------------------------------------
 (1) _mode_snow                                          102   102      0    1787
                                             24 COMRAM     2     2      0
                                              0 BANK0    100   100      0
                             ___wmul
 ---------------------------------------------------------------------------------
 (1) _mode_clock                                         174   174      0    6304
                                             28 COMRAM     2     2      0
                                              0 BANK1    172   172      0
                            ___awdiv
                            ___awmod
                             ___wmul
                        _display_num
 ---------------------------------------------------------------------------------
 (2) _display_num                                         60    58      2    1913
                                             26 COMRAM     2     0      2
                                              0 BANK0     58    58      0
                            ___awdiv (ARG)
                            ___awmod (ARG)
                             ___wmul
 ---------------------------------------------------------------------------------
 (2) ___wmul                                               6     2      4    1132
                                             18 COMRAM     6     2      4
 ---------------------------------------------------------------------------------
 (2) ___awmod                                              6     2      4    1153
                                             18 COMRAM     6     2      4
 ---------------------------------------------------------------------------------
 (2) ___awdiv                                              8     4      4     756
                                             18 COMRAM     8     4      4
 ---------------------------------------------------------------------------------
 (1) _mode_TransLove                                     107   107      0    1499
                                             18 COMRAM     4     4      0
                                              0 BANK0    103   103      0
 ---------------------------------------------------------------------------------
 Estimated maximum stack depth 2
 ---------------------------------------------------------------------------------
 (Depth) Function   	        Calls       Base Space   Used Autos Params    Refs
 ---------------------------------------------------------------------------------
 (4) _tc_int                                              18    18      0       0
                                              0 COMRAM    18    18      0
                        _update_time
 ---------------------------------------------------------------------------------
 (5) _update_time                                          0     0      0       0
 ---------------------------------------------------------------------------------
 Estimated maximum stack depth 5
 ---------------------------------------------------------------------------------

 Call Graph Graphs:

 _main (ROOT)
   _mode_TransLove
   _mode_clock
     ___awdiv
     ___awmod
     ___wmul
     _display_num
       ___awdiv (ARG)
       ___awmod (ARG)
       ___wmul (ARG)
   _mode_snow
     ___wmul
   _mode_tree
   _mode_walker
     ___awmod
     ___wmul

 _tc_int (ROOT)
   _update_time

 Address spaces:
Name               Size   Autos  Total    Cost      Usage
BIGRAM             5FF      0       0      17        0.0%
EEDATA             100      0       0       0        0.0%
BITBANK5           100      0       0      16        0.0%
BANK5              100      0       0      14        0.0%
BITBANK4           100      0       0      12        0.0%
BANK4              100      0       0      13        0.0%
BITBANK3           100      0       0      10        0.0%
BANK3              100      0      C2      11       75.8%
BITBANK2           100      0       0       8        0.0%
BANK2              100      0      E8       9       90.6%
BITBANK1           100      0       0       6        0.0%
BANK1              100     AC      F4       7       95.3%
BITBANK0            80      0       0       4        0.0%
BANK0               80     78      7D       5       97.7%
BITCOMRAM           7E      0       0       0        0.0%
COMRAM              7E     1E      3E       1       49.2%
BITSFR               0      0       0     200        0.0%
SFR                  0      0       0     200        0.0%
STACK                0      0       0       2        0.0%
NULL                 0      0       0       0        0.0%
ABS                  0      0     359      15        0.0%
DATA                 0      0     359       3        0.0%
CODE                 0      0       0       0        0.0%


Microchip Technology PIC18 Macro Assembler V1.44 build -154322312 
Symbol Table                                                                                   Thu Dec 21 23:39:01 2017

                  _update_time 1E46                             l60 18A4                             l53 181A  
                           l63 18D8                             l56 1838                             l48 1790  
                           l80 0DAC                             l49 17D2                             l66 18F6  
                           l90 0E42                             l82 0DB6                             l59 1884  
                           l83 0DD6                             l69 191C                             l93 0E5A  
                           l85 0DF6                             l87 0E32                             l96 0E7A  
                           l99 0EA0                   ?_display_num 0039                   ___awdiv@sign 0036  
          ___wmul@multiplicand 0033                    __CFG_LVP$ON 000000                            l111 0F78  
                          l103 0EE8                            l120 0FEC                            l104 0F0C  
                          l200 013C                            l121 0FF4                            l130 106E  
                          l114 0F90                            l106 0F2C                            l202 01E6  
                          l211 0182                            l203 014E                            l140 113C  
                          l108 0F68                            l300 0730                            l133 10CA  
                          l117 0FB0                            l221 0260                            l213 018A  
                          l205 0156                            l134 10EA                            l126 1088  
                          l151 11DE                            l143 1162                            l127 1034  
                          l119 0FFC                            l303 0748                            l215 019C  
                          l207 0168                            l160 1338                            l128 10B0  
                          l232 0326                            l224 0270                            l161 1256  
                          l137 111C                            l129 1044                            l217 01A4  
                          l209 0170                            l410 14D8                            l402 1444  
                          l162 126A                            l154 11FE                            l242 03BE  
                          l171 12F4                            l163 1282                            l147 118C  
                          l227 0290                            l219 0220                            l340 089A  
                          l332 0854                            l148 11AC                            l341 08A2  
                          l333 0870                            l421 158C                            l413 150A  
                          l405 1476                            l165 12A2                            l157 1224  
                          l261 04E6                            l229 0348                            l350 09AC  
                          l342 08AA                            l174 131A                            l254 0454  
                          l190 00CC                            l351 09F4                            l335 08D4  
                          l343 08B2                            l431 164E                            l423 15C2  
                          l415 153A                            l407 148E                            l271 0574  
                          l263 04EE                            l191 00B2                            l183 0070  
                          l360 0CC0                            l352 0A3C                            l344 08BA  
                          l336 087A                            l424 1692                            l168 12D4  
                          l264 0528                            l256 04B6                            l192 00BA  
                          l184 0088                            l353 0A84                            l337 0882  
                          l425 15FC                            l249 03F4                            l193 00EA  
                          l370 0D62                            l362 0CC8                            l354 0ACC  
                          l346 08C2                            l338 088A                            l442 16FC  
                          l434 1674                            l418 156C                            l290 06B0  
                          l282 0624                            l274 058C                            l258 04F8  
                          l194 0118                            l355 0B14                            l339 0892  
                          l267 054A                            l259 04D6                            l187 0090  
                          l356 0B5C                            l348 091C                            l380 1CC4  
                          l428 162E                            l276 05D6                            l268 056C  
                          l365 0CE4                            l357 0BA4                            l349 0964  
                          l445 171C                            l437 169A                            l293 06D0  
                          l285 0652                            l197 01B6                            l358 0BEC  
                          l198 0134                            l367 0D14                            l359 0C4E  
                          l383 1CE0                            l439 16CA                            l295 0728  
                          l287 067A                            l279 0604                            l471 1E44  
                          l448 1742                            l369 0D32                            l377 1CB0  
                          l385 1CFA                            l650 1D5E                            l651 1D68  
                          l643 1D10                            l395 1394                            l652 1D76  
                          l644 1D20                            l660 1DAE                            l397 13DE  
                          l469 1E2E                            l646 1D3E                            l647 1D36  
                          l663 1DCE                            l399 13FA                            l664 1DD8  
                          l656 1D94                            l665 1DE6                            l657 1DA0  
                          l659 1DB6                   ___awmod@sign 0036                            wreg 000FE8  
                mode_clock@MAS 0100                   __CFG_WDT$OFF 000000                           l3001 0ACC  
                         l3013 0B5C                           l3007 0B14                           l3025 0BEC  
                         l3043 0CE4                           l3019 0BA4                           l3039 0CC8  
                         l2511 0FB0                           l2503 0F78                           l3049 0D02  
                         l3401 1CC4                           l2601 11FE                           l2441 0DE6  
                         l2611 1224                           l2507 0F90                           l2451 0E42  
                         l3405 1CE0                           l2621 126A                           l3511 18F6  
                         l2631 1292                           l2519 0FCE                           l2455 0E5A  
                         l3521 191C                           l3505 18D8                           l2609 121C  
                         l2553 10CA                           l2529 0FFC                           l2537 1022  
                         l2459 0E7A                           l2467 0E98                           l2645 12F4  
                         l2653 1312                           l2661 1338                           l2565 111C  
                         l2557 10DA                           l2493 0F1C                           l2469 0EA0  
                         l2477 0EC6                           l3613 0290                           l3621 02AE  
                         l3519 1914                           l2655 131A                           l2639 12D4  
                         l3631 02E8                           l3551 0090                           l3393 1CA0  
                         l3473 181A                           l2585 118C                           l2569 113C  
                         l2577 115A                           l3609 0270                           l3459 17C2  
                         l2579 1162                           l3723 0604                           l3715 05C6  
                         l3707 0574                           l2597 11DE                           l2589 119C  
                         l3709 058C                           l3581 0170                           l3573 013C  
                         l3903 164E                           l3911 166C                           l3831 1444  
                         l3479 1838                           l3487 1856                           l3743 066A  
                         l3727 0624                           l3735 0642                           l3671 0454  
                         l3647 036A                           l3663 0424                           l2961 08C2  
                         l3921 169A                           l3913 1674                           l3817 13DE  
                         l3681 04A6                           l3657 03F4                           l3585 018A  
                         l3577 0156                           l2971 0964                           l3755 06B0  
                         l3739 0652                           l3861 152A                           l3837 1476  
                         l3781 0748                           l3765 06E6                           l3589 01A4  
                         l2983 09F4                           l3935 16FC                           l3927 16BA  
                         l3919 1692                           l3855 150A                           l3759 06D0  
                         l3695 04F8                           l3599 0210                           l2977 09AC  
                         l3873 158C                           l3881 15AA                           l3849 14D8  
                         l3777 0730                           l3697 0528                           l2995 0A84  
                         l3939 171C                           l3947 173A                           l3891 15EC  
                         l3779 0740                           l2989 0A3C                           l3949 1742  
                         l3869 156C                           l3899 162E                           u2210 1D42  
                         _LATA 000F89                           _LATD 000F8C                           u2520 0E98  
                         u5000 06F6                           u2441 0D7E                           u2451 0D90  
                         u2620 0FCE                           u2540 0EC6                           u3501 07BC  
                         u5030 0740                           u3511 07CE                           u2551 0ED4  
                         u3600 093C                           u2720 115A                           u2560 0F0A  
                         u5040 0758                           u3521 07E0                           u3610 0974  
                         u4330 1DBA                           u4410 1856                           u2810 1266  
                         u2730 1172                           u2490 0E52                           u3531 07F2  
                         u4251 1C6E                           u5051 0768                           u3700 0AA4  
                         u3620 0984                           u2660 1022                           u3541 0804  
                         u3461 0774                           u5061 135E                           u4501 001C  
                         u3710 0ADC                           u3630 09BC                           u5310 173A  
                         u2590 0F88                           u4510 007E                           u3551 0816  
                         u3471 0786                           u5071 1370                           u2671 1032  
                         u3720 0AEC                           u3640 09CC                           u5320 1752  
                         u5240 166C                           u4520 00A0                           u3561 0828  
                         u3481 0798                           u5081 1382                           u4361 176C  
                         u2681 10BE                           u3730 0B24                           u3650 0A04  
                         u3570 086E                           u3491 07AA                           u3740 0B34  
                         u3660 0A14                           u5260 1692                           u2860 1312  
                         u2780 121C                           u4700 02E8                           u3901 0D72  
                         u3750 0B6C                           u3670 0A4C                           u3590 092C  
                         u5190 15AA                           u4470 1914                           u2790 1234  
                         u4550 0100                           u3760 0B7C                           u3680 0A5C  
                         u4480 192C                           u2880 1338                           u4560 0132  
                         u3850 0D02                           u3770 0BB4                           u3690 0A94  
                         u4810 0424                           u4730 0304                           u4491 193C  
                         u3780 0BC4                           u4660 02AE                           u4760 036A  
                         u4680 02D0                           u3890 0D4A                           u4940 0642  
                         u4790 0386                           u4871 0536                           u4890 0584  
                         u4990 06E6                           _TMR1 000FCE                           _main 1DF0  
                         fsr0h 000FEA                           fsr1h 000FE2                           fsr2h 000FDA  
                         fsr0l 000FE9                           indf2 000FDF                           fsr1l 000FE1  
                         fsr2l 000FD9                           btemp 003F       mode_TransLove@stop_arrow 00DD  
                         prodh 000FF4                           prodl 000FF3                           start 000E  
                __CFG_MCLRE$ON 000000                   ___param_bank 000000                          ?_main 001F  
               mode_clock@face 0150                 mode_clock@dark 0192                __end_of___awdiv 1D80  
              __end_of___awmod 1DF0                 mode_clock@minH 0188                 mode_clock@minL 018A  
               mode_clock@secH 018C                 mode_clock@secL 018E                ___awdiv@divisor 0033  
                        _T1CON 000FCD                 mode_clock@show 01A8                          i2l463 1B5C  
              ___awdiv@counter 0035                          _TRISA 000F92                          _TRISD 000F95  
             ??_mode_TransLove 0031                          _count 003D                          _hours 01F2  
                mode_tree@dark 00B0                          pclath 000FFA                          tablat 000FF5  
                mode_tree@move 00CE                  mode_tree@wait 00B2                  mode_tree@show 00CA  
                mode_tree@tree 0080                          plusw1 000FE3                          plusw2 000FDB  
                 display_num@i 00B8                   display_num@n 0039                          status 000FD8  
                        wtemp6 0040                   ?_mode_walker 001F                  mode_snow@show 00E0  
              __initialization 1BA8                   __end_of_main 1E46            display_num@bright_i 00B2  
              mode_clock@F3140 02CC                mode_clock@F3143 0200                mode_clock@F3145 01AC  
                       ??_main 003D                  __activetblptr 000002                mode_clock@i_510 01A4  
              mode_clock@i_505 01A6                mode_clock@delay 01AA               ___awdiv@dividend 0031  
              mode_clock@state 019C                         _TMR1IE 007CE8                         _TMR1IF 007CF0  
               mode_tree@F3023 0282                 mode_tree@F3025 01C6                         ___wmul 1ECE  
                    ??___awdiv 0035            mode_tree@bright_400 00B4            mode_tree@bright_405 00B8  
          mode_tree@bright_415 00C0            mode_tree@bright_409 00BC          mode_snow@walker_pic_i 00DA  
                    ??___awmod 0035                         _tc_int 0008               ___awdiv@quotient 0037  
              ___awmod@divisor 0033                         _walker 0356                 mode_snow@F3011 0300  
              ___awmod@counter 0035                 mode_tree@i_404 00D6                 mode_tree@i_414 00E0  
               mode_tree@i_408 00DA                 mode_tree@i_398 00D2           __size_of_display_num 0098  
          mode_TransLove@F3100 02AC            mode_TransLove@F3102 00F8            mode_TransLove@F3110 000B  
          mode_TransLove@F3104 001A            mode_TransLove@F3112 0006            mode_TransLove@F3106 0015  
          mode_TransLove@F3114 0001                 mode_tree@delay 00F6            mode_TransLove@F3116 01E9  
          mode_TransLove@F3108 0010            mode_TransLove@F3118 01E4            mode_TransLove@F3098 01D2  
               mode_tree@cycle 00EE                 mode_tree@count 00F4                   __pdataCOMRAM 0001  
               mode_tree@six_i 00C8                 mode_tree@state 00AC                         tblptrh 000FF7  
                       tblptrl 000FF6                         tblptru 000FF8                 mode_snow@i_378 00DC  
               mode_snow@delay 00E2                 mode_snow@count 00D8            mode_TransLove@delay 00E1  
          mode_TransLove@arrow 0080            mode_TransLove@cycle 00D7                     __accesstop 0080  
      __end_of__initialization 1C56                __CFG_PBADEN$OFF 000000                  ___rparam_used 000001  
                  mode_clock@X 016A                    mode_clock@i 019E                    mode_clock@j 01A0  
               __pcstackCOMRAM 001F                   ?_update_time 001F                   __pidataBANK0 1F12  
                 __pidataBANK1 1E8C                   __pidataBANK2 193E                   __pidataBANK3 1A26  
                   __pbssBANK1 01EE           __size_of_mode_walker 0758             __size_of_mode_tree 05D6  
           __size_of_mode_snow 01DC                        ?___wmul 0031               mode_clock@face_i 01A2  
                      ?_tc_int 001F               mode_clock@bright 0190       mode_walker@display_cycle 00AC  
           mode_clock@dark_512 019A             mode_clock@dark_508 0196                        __Hparam 0000  
                      __Lparam 0000                        ___awdiv 1CFC                        ___awmod 1D80  
              __size_of___wmul 0026                        __pcinit 1BA8                        __ramtop 0600  
              __size_of_tc_int 1BA0      mode_TransLove@arrow_speed 00DF                        __ptext0 1DF0  
                      __ptext1 0012                        __ptext2 0D74                        __ptext3 1762  
                      __ptext4 134A                        __ptext5 1C64                        __ptext6 1ECE  
                      __ptext7 1D80                        __ptext8 1CFC                        __ptext9 076A  
                   _mode_clock 134A               ___awmod@dividend 0031                        _minutes 01EE  
                      _seconds 01F0                mode_walker@dark 0084              __end_of_mode_tree 134A  
            __end_of_mode_snow 193E                mode_walker@four 00A4                mode_walker@move 00B6  
              mode_walker@show 00B4                 __pintcode_body 1AE8           end_of_initialization 1C56  
              mode_tree@bright 00AE                  __Lmediumconst 0000                        int_func 1AE8  
              mode_tree@tree_i 00DC                        postdec1 000FE5                        postdec2 000FDD  
                      postinc0 000FEE                        postinc2 000FDE                 display_num@num 0080  
         __size_of_update_time 0046           mode_TransLove@bright 00D9        __size_of_mode_TransLove 060A  
                ??_display_num 003B                 __end_of___wmul 1EF4                  __pidataCOMRAM 1EF4  
                 mode_walker@i 00BA                 __end_of_tc_int 1BA8                    ?_mode_clock 001F  
                 mode_tree@six 00E2            start_initialization 1BA8         mode_snow@display_cycle 00D6  
             __CFG_OSC$INTIO67 000000           mode_clock@bright_511 0198           mode_clock@bright_507 0194  
                     ??___wmul 0035                    __pdataBANK0 00F8                    __pdataBANK1 01AC  
                  __pdataBANK2 0200                    __pdataBANK3 0300                       ??_tc_int 001F  
           mode_TransLove@dark 00DB             mode_TransLove@love 00A0            __end_of_display_num 1CFC  
                  __pbssCOMRAM 003D                  __pcstackBANK0 0080                  __pcstackBANK1 0100  
                   mode_tree@i 00CC                     mode_snow@i 00DE                  ??_mode_walker 0037  
                    __pnvBANK1 01F2            __size_of_mode_clock 0418             mode_tree@six_i_396 00F0  
  mode_walker@update_next_time 0094                      __pintcode 0008                       ?___awdiv 0031  
                     ?___awmod 0031         mode_walker@pic_cycle_i 00A2           mode_tree@six_ptr_395 00C6  
                    _mode_tree 0D74                      _mode_snow 1762                 _mode_TransLove 076A  
               ___wmul@product 0035                       _LATAbits 000F89                       _LATDbits 000F8C  
                     _IPR1bits 000F9F                       _PIE1bits 000F9D                       _PIR1bits 000F9E  
                     _RCONbits 000FD0              mode_walker@bright 0082            __end_of_mode_walker 076A  
            mode_walker@column 009C              mode_walker@update 0092                    _display_num 1C64  
            ___wmul@multiplier 0031                      copy_data0 1BBC                      copy_data1 1BDC  
                    copy_data2 1BFC                      copy_data3 1C1C                      copy_data4 1C3C  
       __end_of_mode_TransLove 0D74          mode_walker@bright_443 008A          mode_walker@bright_439 0086  
                   ?_mode_tree 001F                     ?_mode_snow 001F              display_num@dark_i 00B4  
            mode_tree@dark_401 00B6              mode_tree@dark_410 00BE              mode_tree@dark_406 00BA  
            mode_tree@dark_416 00C2                       __Hrparam 0000          mode_walker@column_442 00A0  
        mode_walker@column_438 009E                       __Lrparam 0000                  ??_update_time 001F  
             __size_of___awdiv 0084               __size_of___awmod 0070              mode_tree@interval 00F2  
                 ??_mode_clock 003B              mode_tree@show_403 00D4              mode_tree@show_413 00DE  
            mode_tree@show_407 00D8              mode_tree@show_397 00D0                       __ptext11 1E46  
      mode_clock@display_cycle 0186                ?_mode_TransLove 001F               mode_walker@F3068 01DC  
                __size_of_main 0056                    _mode_walker 0012             __end_of_mode_clock 1762  
             mode_walker@delay 0080  mode_walker@state_change_cycle 008E           mode_walker@delay_432 00B2  
         mode_walker@delay_437 00B0               mode_walker@pic_i 00AE               display_num@F3131 0250  
             mode_walker@state 00B8                       int$flags 003F            __end_of_update_time 1E8C  
                   _INTCONbits 000FF2               mode_tree@count_4 00AA                       intlevel2 0000  
                  ??_mode_tree 0031                    ??_mode_snow 0037               mode_tree@six_ptr 00C4  
         mode_walker@pic_cycle 0096                     _OSCCONbits 000FD3            mode_walker@dark_440 0088  
          mode_walker@dark_441 0090            mode_walker@dark_436 0098            mode_walker@dark_444 008C  
              display_num@iter 00B6                mode_TransLove@A 00B4                mode_TransLove@E 00D2  
              mode_TransLove@L 00C3                mode_TransLove@N 00B9                mode_TransLove@O 00C8  
              mode_TransLove@R 00AF                mode_TransLove@S 00BE                mode_TransLove@T 00AA  
              mode_TransLove@V 00CD                mode_TransLove@i 00E5              mode_snow@snow_car 0080  
        mode_TransLove@arrow_i 00E3  
