

Microchip Technology PIC18 LITE Macro Assembler V1.44 build -154322312 
                                                                                               Tue Dec 19 01:59:06 2017

Microchip Technology Omniscient Code Generator v1.44 (Free mode) build 201709140600
     1                           	processor	18F4520
     2                           	fnconf	rparam,??,?,0
     3                           	opt	pw 120
     4                           	opt	lm
     5                           	psect	idataCOMRAM,global,class=CODE,delta=1,noexec
     6                           	psect	idataBANK0,global,class=CODE,delta=1,noexec
     7                           	psect	idataBANK1,global,class=CODE,delta=1,noexec
     8                           	psect	idataBANK2,global,class=CODE,delta=1,noexec
     9                           	psect	idataBANK3,global,class=CODE,delta=1,noexec
    10                           	psect	nvBANK1,global,class=BANK1,space=1,delta=1,lowdata,noexec
    11                           	psect	cinit,global,reloc=2,class=CODE,delta=1
    12                           	psect	bssCOMRAM,global,class=COMRAM,space=1,delta=1,noexec
    13                           	psect	dataCOMRAM,global,class=COMRAM,space=1,delta=1,noexec
    14                           	psect	dataBANK0,global,class=BANK0,space=1,delta=1,lowdata,noexec
    15                           	psect	bssBANK1,global,class=BANK1,space=1,delta=1,lowdata,noexec
    16                           	psect	dataBANK1,global,class=BANK1,space=1,delta=1,lowdata,noexec
    17                           	psect	dataBANK2,global,class=BANK2,space=1,delta=1,lowdata,noexec
    18                           	psect	dataBANK3,global,class=BANK3,space=1,delta=1,lowdata,noexec
    19                           	psect	cstackBANK1,global,class=BANK1,space=1,delta=1,noexec
    20                           	psect	cstackBANK0,global,class=BANK0,space=1,delta=1,noexec
    21                           	psect	cstackCOMRAM,global,class=COMRAM,space=1,delta=1,noexec
    22                           	psect	text0,global,reloc=2,class=CODE,delta=1
    23                           	psect	text1,global,reloc=2,class=CODE,delta=1
    24                           	psect	text2,global,reloc=2,class=CODE,delta=1
    25                           	psect	text3,global,reloc=2,class=CODE,delta=1
    26                           	psect	text4,global,reloc=2,class=CODE,delta=1
    27                           	psect	text5,global,reloc=2,class=CODE,delta=1,group=1
    28                           	psect	text6,global,reloc=2,class=CODE,delta=1,group=1
    29                           	psect	text7,global,reloc=2,class=CODE,delta=1,group=1
    30                           	psect	text8,global,reloc=2,class=CODE,delta=1
    31                           	psect	intcode,global,reloc=2,class=CODE,delta=1
    32                           	psect	intcode_body,global,reloc=2,class=CODE,delta=1
    33                           	psect	text10,global,reloc=2,class=CODE,delta=1
    34                           	psect	intsave_regs,global,class=BIGRAM,space=1,delta=1,noexec
    35                           	psect	rparam,global,class=COMRAM,space=1,delta=1,noexec
    36                           	psect	temp,global,ovrld,common,class=COMRAM,space=1,delta=1
    37  0000                     
    38                           ; Version 1.44
    39                           ; Generated 14/09/2017 GMT
    40                           ; 
    41                           ; Copyright © 2017, Microchip Technology Inc. and its subsidiaries ("Microchip")
    42                           ; All rights reserved.
    43                           ; 
    44                           ; This software is developed by Microchip Technology Inc. and its subsidiaries ("Microch
      +                          ip").
    45                           ; 
    46                           ; Redistribution and use in source and binary forms, with or without modification, are
    47                           ; permitted provided that the following conditions are met:
    48                           ; 
    49                           ;     1. Redistributions of source code must retain the above copyright notice, this lis
      +                          t of
    50                           ;        conditions and the following disclaimer.
    51                           ; 
    52                           ;     2. Redistributions in binary form must reproduce the above copyright notice, this 
      +                          list
    53                           ;        of conditions and the following disclaimer in the documentation and/or other
    54                           ;        materials provided with the distribution.
    55                           ; 
    56                           ;     3. Microchip's name may not be used to endorse or promote products derived from th
      +                          is
    57                           ;        software without specific prior written permission.
    58                           ; 
    59                           ; THIS SOFTWARE IS PROVIDED BY MICROCHIP "AS IS" AND ANY EXPRESS OR IMPLIED WARRANTIES,
    60                           ; INCLUDING, BUT NOT LIMITED TO, THE IMPLIED WARRANTIES OF MERCHANTABILITY AND FITNESS F
      +                          OR
    61                           ; PURPOSE ARE DISCLAIMED.  IN NO EVENT SHALL MICROCHIP BE LIABLE FOR ANY DIRECT, INDIREC
      +                          T,
    62                           ; INCIDENTAL, SPECIAL, EXEMPLARY, OR CONSEQUENTIAL DAMAGES (INCLUDING BUT NOT LIMITED TO
    63                           ; PROCUREMENT OF SUBSTITUTE GOODS OR SERVICES; LOSS OF USE, DATA OR PROFITS; OR BUSINESS
    64                           ; INTERRUPTION) HOWSOEVER CAUSED AND ON ANY THEORY OF LIABILITY, WHETHER IN CONTRACT, ST
      +                          RICT
    65                           ; LIABILITY, OR TORT (INCLUDING NEGLIGENCE OR OTHERWISE) ARISING IN ANY WAY OUT OF THE U
      +                          SE OF
    66                           ; THIS SOFTWARE, EVEN IF ADVISED OF THE POSSIBILITY OF SUCH DAMAGE.
    67                           ; 
    68                           ; 
    69                           ; Code-generator required, PIC18F4520 Definitions
    70                           ; 
    71                           ; SFR Addresses
    72  0000                     
    73                           	psect	idataCOMRAM
    74  001696                     __pidataCOMRAM:
    75                           	opt stack 0
    76                           
    77                           ;initializer for mode_TransLove@F3051
    78  001696  00                 	db	0
    79  001697  0C                 	db	12
    80  001698  1E                 	db	30
    81  001699  3E                 	db	62
    82  00169A  7C                 	db	124
    83  00169B  3E                 	db	62
    84  00169C  1E                 	db	30
    85  00169D  0C                 	db	12
    86  00169E  00                 	db	0
    87  00169F  00                 	db	0
    88                           
    89                           ;initializer for mode_TransLove@F3071
    90  0016A0  1F                 	db	31
    91  0016A1  15                 	db	21
    92  0016A2  15                 	db	21
    93  0016A3  15                 	db	21
    94  0016A4  15                 	db	21
    95                           
    96                           ;initializer for mode_TransLove@F3069
    97  0016A5  07                 	db	7
    98  0016A6  0C                 	db	12
    99  0016A7  10                 	db	16
   100  0016A8  0C                 	db	12
   101  0016A9  07                 	db	7
   102                           
   103                           ;initializer for mode_TransLove@F3067
   104  0016AA  0E                 	db	14
   105  0016AB  11                 	db	17
   106  0016AC  11                 	db	17
   107  0016AD  11                 	db	17
   108  0016AE  0E                 	db	14
   109                           
   110                           ;initializer for mode_TransLove@F3065
   111  0016AF  1F                 	db	31
   112  0016B0  10                 	db	16
   113  0016B1  10                 	db	16
   114  0016B2  10                 	db	16
   115  0016B3  10                 	db	16
   116                           
   117                           	psect	idataBANK0
   118  0016B4                     __pidataBANK0:
   119                           	opt stack 0
   120                           
   121                           ;initializer for mode_TransLove@F3063
   122  0016B4  12                 	db	18
   123  0016B5  15                 	db	21
   124  0016B6  15                 	db	21
   125  0016B7  15                 	db	21
   126  0016B8  09                 	db	9
   127                           
   128                           ;initializer for mode_TransLove@F3061
   129  0016B9  1F                 	db	31
   130  0016BA  02                 	db	2
   131  0016BB  04                 	db	4
   132  0016BC  08                 	db	8
   133  0016BD  1F                 	db	31
   134                           
   135                           ;initializer for mode_TransLove@F3059
   136  0016BE  1C                 	db	28
   137  0016BF  0A                 	db	10
   138  0016C0  09                 	db	9
   139  0016C1  0A                 	db	10
   140  0016C2  1C                 	db	28
   141                           
   142                           ;initializer for mode_TransLove@F3057
   143  0016C3  1F                 	db	31
   144  0016C4  05                 	db	5
   145  0016C5  05                 	db	5
   146  0016C6  0D                 	db	13
   147  0016C7  12                 	db	18
   148                           
   149                           ;initializer for mode_TransLove@F3055
   150  0016C8  03                 	db	3
   151  0016C9  01                 	db	1
   152  0016CA  1F                 	db	31
   153  0016CB  01                 	db	1
   154  0016CC  03                 	db	3
   155                           
   156                           	psect	idataBANK1
   157  001632                     __pidataBANK1:
   158                           	opt stack 0
   159                           
   160                           ;initializer for mode_clock@F3093
   161  001632  0200               	dw	512
   162  001634  0200               	dw	512
   163  001636  0303               	dw	771
   164  001638  0101               	dw	257
   165  00163A  01CF               	dw	463
   166  00163C  00DC               	dw	220
   167  00163E  0070               	dw	112
   168  001640  0038               	dw	56
   169  001642  00EC               	dw	236
   170  001644  01CF               	dw	463
   171  001646  0301               	dw	769
   172  001648  0203               	dw	515
   173  00164A  0200               	dw	512
   174  00164C  0200               	dw	512
   175                           
   176                           ;initializer for mode_clock@F3098
   177  00164E  00FE               	dw	254
   178  001650  0107               	dw	263
   179  001652  0237               	dw	567
   180  001654  0236               	dw	566
   181  001656  0237               	dw	567
   182  001658  0286               	dw	646
   183  00165A  0286               	dw	646
   184  00165C  0287               	dw	647
   185  00165E  0236               	dw	566
   186  001660  0237               	dw	567
   187  001662  0237               	dw	567
   188  001664  0107               	dw	263
   189  001666  00FE               	dw	254
   190                           
   191                           ;initializer for mode_walker@F3030
   192  001668  0001               	dw	1
   193  00166A  00                 	db	0
   194  00166B  00                 	db	0
   195  00166C  00                 	db	0
   196  00166D  00                 	db	0
   197  00166E  00                 	db	0
   198  00166F  00                 	db	0
   199                           
   200                           	psect	idataBANK2
   201  00115A                     __pidataBANK2:
   202                           	opt stack 0
   203                           
   204                           ;initializer for mode_clock@F3096
   205  00115A  0000               	dw	0
   206  00115C  0000               	dw	0
   207  00115E  0000               	dw	0
   208  001160  0003               	dw	3
   209  001162  000B               	dw	11
   210  001164  0007               	dw	7
   211  001166  0000               	dw	0
   212  001168  0000               	dw	0
   213  00116A  0000               	dw	0
   214  00116C  0000               	dw	0
   215  00116E  0303               	dw	771
   216  001170  03FF               	dw	1023
   217  001172  000E               	dw	14
   218  001174  0018               	dw	24
   219  001176  0030               	dw	48
   220  001178  0030               	dw	48
   221  00117A  0018               	dw	24
   222  00117C  000E               	dw	14
   223  00117E  03FF               	dw	1023
   224  001180  0303               	dw	771
   225  001182  0300               	dw	768
   226  001184  03F0               	dw	1008
   227  001186  027C               	dw	636
   228  001188  002E               	dw	46
   229  00118A  0023               	dw	35
   230  00118C  0023               	dw	35
   231  00118E  002E               	dw	46
   232  001190  027C               	dw	636
   233  001192  03F0               	dw	1008
   234  001194  0300               	dw	768
   235  001196  038C               	dw	908
   236  001198  019E               	dw	414
   237  00119A  0333               	dw	819
   238  00119C  0323               	dw	803
   239  00119E  0221               	dw	545
   240  0011A0  0211               	dw	529
   241  0011A2  0313               	dw	787
   242  0011A4  0337               	dw	823
   243  0011A6  01E6               	dw	486
   244  0011A8  00C7               	dw	199
   245                           
   246                           ;initializer for display_num@F3084
   247  0011AA  1F                 	db	31
   248  0011AB  11                 	db	17
   249  0011AC  11                 	db	17
   250  0011AD  11                 	db	17
   251  0011AE  1F                 	db	31
   252  0011AF  00                 	db	0
   253  0011B0  00                 	db	0
   254  0011B1  1F                 	db	31
   255  0011B2  00                 	db	0
   256  0011B3  00                 	db	0
   257  0011B4  1C                 	db	28
   258  0011B5  15                 	db	21
   259  0011B6  15                 	db	21
   260  0011B7  15                 	db	21
   261  0011B8  17                 	db	23
   262  0011B9  10                 	db	16
   263  0011BA  11                 	db	17
   264  0011BB  15                 	db	21
   265  0011BC  15                 	db	21
   266  0011BD  1F                 	db	31
   267  0011BE  07                 	db	7
   268  0011BF  04                 	db	4
   269  0011C0  04                 	db	4
   270  0011C1  1F                 	db	31
   271  0011C2  04                 	db	4
   272  0011C3  17                 	db	23
   273  0011C4  15                 	db	21
   274  0011C5  15                 	db	21
   275  0011C6  15                 	db	21
   276  0011C7  1D                 	db	29
   277  0011C8  1F                 	db	31
   278  0011C9  14                 	db	20
   279  0011CA  14                 	db	20
   280  0011CB  14                 	db	20
   281  0011CC  1C                 	db	28
   282  0011CD  00                 	db	0
   283  0011CE  01                 	db	1
   284  0011CF  01                 	db	1
   285  0011D0  01                 	db	1
   286  0011D1  1F                 	db	31
   287  0011D2  1F                 	db	31
   288  0011D3  15                 	db	21
   289  0011D4  15                 	db	21
   290  0011D5  15                 	db	21
   291  0011D6  1F                 	db	31
   292  0011D7  07                 	db	7
   293  0011D8  05                 	db	5
   294  0011D9  05                 	db	5
   295  0011DA  05                 	db	5
   296  0011DB  1F                 	db	31
   297                           
   298                           ;initializer for mode_tree@F3010
   299  0011DC  0100               	dw	256
   300  0011DE  0000               	dw	0
   301  0011E0  0000               	dw	0
   302  0011E2  0180               	dw	384
   303  0011E4  0020               	dw	32
   304  0011E6  0060               	dw	96
   305  0011E8  0110               	dw	272
   306  0011EA  0024               	dw	36
   307  0011EC  010E               	dw	270
   308  0011EE  0325               	dw	805
   309  0011F0  010E               	dw	270
   310  0011F2  0024               	dw	36
   311  0011F4  0110               	dw	272
   312  0011F6  0060               	dw	96
   313  0011F8  0020               	dw	32
   314  0011FA  0180               	dw	384
   315  0011FC  0000               	dw	0
   316  0011FE  0000               	dw	0
   317  001200  0100               	dw	256
   318  001202  00                 	db	0
   319  001203  00                 	db	0
   320  001204  00                 	db	0
   321  001205  00                 	db	0
   322                           
   323                           ;initializer for mode_TransLove@F3053
   324  001206  0032               	dw	50
   325  001208  0036               	dw	54
   326  00120A  001C               	dw	28
   327  00120C  0008               	dw	8
   328  00120E  0008               	dw	8
   329  001210  0008               	dw	8
   330  001212  0008               	dw	8
   331  001214  0008               	dw	8
   332  001216  0008               	dw	8
   333  001218  0008               	dw	8
   334  00121A  0008               	dw	8
   335  00121C  0008               	dw	8
   336  00121E  0008               	dw	8
   337  001220  002A               	dw	42
   338  001222  001C               	dw	28
   339  001224  0008               	dw	8
   340                           
   341                           	psect	idataBANK3
   342  00152E                     __pidataBANK3:
   343                           	opt stack 0
   344                           
   345                           ;initializer for mode_walker@F3028
   346  00152E  0000               	dw	0
   347  001530  0200               	dw	512
   348  001532  0120               	dw	288
   349  001534  00D0               	dw	208
   350  001536  007F               	dw	127
   351  001538  02A7               	dw	679
   352  00153A  0110               	dw	272
   353  00153C  0000               	dw	0
   354  00153E  0000               	dw	0
   355  001540  0000               	dw	0
   356  001542  0080               	dw	128
   357  001544  0130               	dw	304
   358  001546  0090               	dw	144
   359  001548  007F               	dw	127
   360  00154A  0297               	dw	663
   361  00154C  0120               	dw	288
   362  00154E  0020               	dw	32
   363  001550  0000               	dw	0
   364  001552  0080               	dw	128
   365  001554  0108               	dw	264
   366  001556  0088               	dw	136
   367  001558  0050               	dw	80
   368  00155A  00BF               	dw	191
   369  00155C  0317               	dw	791
   370  00155E  0020               	dw	32
   371  001560  0040               	dw	64
   372  001562  0000               	dw	0
   373  001564  0000               	dw	0
   374  001566  0140               	dw	320
   375  001568  0120               	dw	288
   376  00156A  0090               	dw	144
   377  00156C  037F               	dw	895
   378  00156E  0057               	dw	87
   379  001570  0020               	dw	32
   380  001572  0000               	dw	0
   381  001574  0000               	dw	0
   382  001576  0000               	dw	0
   383  001578  0200               	dw	512
   384  00157A  0100               	dw	256
   385  00157C  02B0               	dw	688
   386  00157E  017F               	dw	383
   387  001580  0037               	dw	55
   388  001582  0000               	dw	0
   389  001584  0000               	dw	0
   390  001586  0000               	dw	0
   391  001588  0200               	dw	512
   392  00158A  0100               	dw	256
   393  00158C  0080               	dw	128
   394  00158E  0050               	dw	80
   395  001590  007F               	dw	127
   396  001592  01D7               	dw	471
   397  001594  0120               	dw	288
   398  001596  0010               	dw	16
   399  001598  0000               	dw	0
   400                           
   401                           	psect	nvBANK1
   402  0001EE                     __pnvBANK1:
   403                           	opt stack 0
   404  0001EE                     _hours:
   405                           	opt stack 0
   406  0001EE                     	ds	2
   407  0000                     _TMR1	set	4046
   408  0000                     _TRISD	set	3989
   409  0000                     _TRISA	set	3986
   410  0000                     _INTCONbits	set	4082
   411  0000                     _PIR1bits	set	3998
   412  0000                     _IPR1bits	set	3999
   413  0000                     _PIE1bits	set	3997
   414  0000                     _T1CON	set	4045
   415  0000                     _RCONbits	set	4048
   416  0000                     _OSCCONbits	set	4051
   417  0000                     _LATD	set	3980
   418  0000                     _LATA	set	3977
   419  0000                     _TMR1IF	set	31984
   420  0000                     _TMR1IE	set	31976
   421                           
   422                           ; #config settings
   423  0000                     
   424                           	psect	cinit
   425  0012E6                     __pcinit:
   426                           	opt stack 0
   427  0012E6                     start_initialization:
   428                           	opt stack 0
   429  0012E6                     __initialization:
   430                           	opt stack 0
   431                           
   432                           ; Initialize objects allocated to BANK3 (108 bytes)
   433                           ; load TBLPTR registers with __pidataBANK3
   434  0012E6  0E2E               	movlw	low __pidataBANK3
   435  0012E8  6EF6               	movwf	tblptrl,c
   436  0012EA  0E15               	movlw	high __pidataBANK3
   437  0012EC  6EF7               	movwf	tblptrh,c
   438  0012EE  0E00               	movlw	low (__pidataBANK3 shr (0+16))
   439  0012F0  6EF8               	movwf	tblptru,c
   440  0012F2  EE03  F000         	lfsr	0,__pdataBANK3
   441  0012F6  EE10 F06C          	lfsr	1,108
   442  0012FA                     copy_data0:
   443  0012FA  0009               	tblrd		*+
   444  0012FC  CFF5 FFEE          	movff	tablat,postinc0
   445  001300  50E5               	movf	postdec1,w,c
   446  001302  50E1               	movf	fsr1l,w,c
   447  001304  E1FA               	bnz	copy_data0
   448                           
   449                           ; Initialize objects allocated to BANK2 (204 bytes)
   450                           ; load TBLPTR registers with __pidataBANK2
   451  001306  0E5A               	movlw	low __pidataBANK2
   452  001308  6EF6               	movwf	tblptrl,c
   453  00130A  0E11               	movlw	high __pidataBANK2
   454  00130C  6EF7               	movwf	tblptrh,c
   455  00130E  0E00               	movlw	low (__pidataBANK2 shr (0+16))
   456  001310  6EF8               	movwf	tblptru,c
   457  001312  EE02  F000         	lfsr	0,__pdataBANK2
   458  001316  EE10 F0CC          	lfsr	1,204
   459  00131A                     copy_data1:
   460  00131A  0009               	tblrd		*+
   461  00131C  CFF5 FFEE          	movff	tablat,postinc0
   462  001320  50E5               	movf	postdec1,w,c
   463  001322  50E1               	movf	fsr1l,w,c
   464  001324  E1FA               	bnz	copy_data1
   465                           
   466                           ; Initialize objects allocated to BANK1 (62 bytes)
   467                           ; load TBLPTR registers with __pidataBANK1
   468  001326  0E32               	movlw	low __pidataBANK1
   469  001328  6EF6               	movwf	tblptrl,c
   470  00132A  0E16               	movlw	high __pidataBANK1
   471  00132C  6EF7               	movwf	tblptrh,c
   472  00132E  0E00               	movlw	low (__pidataBANK1 shr (0+16))
   473  001330  6EF8               	movwf	tblptru,c
   474  001332  EE01  F0AC         	lfsr	0,__pdataBANK1
   475  001336  EE10 F03E          	lfsr	1,62
   476  00133A                     copy_data2:
   477  00133A  0009               	tblrd		*+
   478  00133C  CFF5 FFEE          	movff	tablat,postinc0
   479  001340  50E5               	movf	postdec1,w,c
   480  001342  50E1               	movf	fsr1l,w,c
   481  001344  E1FA               	bnz	copy_data2
   482                           
   483                           ; Initialize objects allocated to BANK0 (25 bytes)
   484                           ; load TBLPTR registers with __pidataBANK0
   485  001346  0EB4               	movlw	low __pidataBANK0
   486  001348  6EF6               	movwf	tblptrl,c
   487  00134A  0E16               	movlw	high __pidataBANK0
   488  00134C  6EF7               	movwf	tblptrh,c
   489  00134E  0E00               	movlw	low (__pidataBANK0 shr (0+16))
   490  001350  6EF8               	movwf	tblptru,c
   491  001352  EE00  F0E7         	lfsr	0,__pdataBANK0
   492  001356  EE10 F019          	lfsr	1,25
   493  00135A                     copy_data3:
   494  00135A  0009               	tblrd		*+
   495  00135C  CFF5 FFEE          	movff	tablat,postinc0
   496  001360  50E5               	movf	postdec1,w,c
   497  001362  50E1               	movf	fsr1l,w,c
   498  001364  E1FA               	bnz	copy_data3
   499                           
   500                           ; Initialize objects allocated to COMRAM (30 bytes)
   501                           ; load TBLPTR registers with __pidataCOMRAM
   502  001366  0E96               	movlw	low __pidataCOMRAM
   503  001368  6EF6               	movwf	tblptrl,c
   504  00136A  0E16               	movlw	high __pidataCOMRAM
   505  00136C  6EF7               	movwf	tblptrh,c
   506  00136E  0E00               	movlw	low (__pidataCOMRAM shr (0+16))
   507  001370  6EF8               	movwf	tblptru,c
   508  001372  EE00  F021         	lfsr	0,__pdataCOMRAM
   509  001376  EE10 F01E          	lfsr	1,30
   510  00137A                     copy_data4:
   511  00137A  0009               	tblrd		*+
   512  00137C  CFF5 FFEE          	movff	tablat,postinc0
   513  001380  50E5               	movf	postdec1,w,c
   514  001382  50E1               	movf	fsr1l,w,c
   515  001384  E1FA               	bnz	copy_data4
   516                           
   517                           ; Clear objects allocated to BANK1 (4 bytes)
   518  001386  0101               	movlb	1
   519  001388  6BED               	clrf	(__pbssBANK1+3)& (0+255),b
   520  00138A  6BEC               	clrf	(__pbssBANK1+2)& (0+255),b
   521  00138C  6BEB               	clrf	(__pbssBANK1+1)& (0+255),b
   522  00138E  6BEA               	clrf	__pbssBANK1& (0+255),b
   523                           
   524                           ; Clear objects allocated to COMRAM (2 bytes)
   525  001390  6A40               	clrf	(__pbssCOMRAM+1)& (0+255),c
   526  001392  6A3F               	clrf	__pbssCOMRAM& (0+255),c
   527  001394                     end_of_initialization:
   528                           	opt stack 0
   529  001394                     __end_of__initialization:
   530                           	opt stack 0
   531  001394  9041               	bcf	int$flags,0,c	;clear compiler interrupt flag (level 1)
   532  001396  9241               	bcf	int$flags,1,c	;clear compiler interrupt flag (level 2)
   533  001398  0E00               	movlw	low (__Lmediumconst shr (0+16))
   534  00139A  6EF8               	movwf	tblptru,c
   535  00139C  0100               	movlb	0
   536  00139E  EFCD  F00A         	goto	_main	;jump to C main() function
   537                           tblptru	equ	0xFF8
   538                           tblptrh	equ	0xFF7
   539                           tblptrl	equ	0xFF6
   540                           tablat	equ	0xFF5
   541                           postinc0	equ	0xFEE
   542                           postdec1	equ	0xFE5
   543                           fsr1l	equ	0xFE1
   544                           
   545                           	psect	bssCOMRAM
   546  00003F                     __pbssCOMRAM:
   547                           	opt stack 0
   548  00003F                     _count:
   549                           	opt stack 0
   550  00003F                     	ds	2
   551                           tblptru	equ	0xFF8
   552                           tblptrh	equ	0xFF7
   553                           tblptrl	equ	0xFF6
   554                           tablat	equ	0xFF5
   555                           postinc0	equ	0xFEE
   556                           postdec1	equ	0xFE5
   557                           fsr1l	equ	0xFE1
   558                           
   559                           	psect	dataCOMRAM
   560  000021                     __pdataCOMRAM:
   561                           	opt stack 0
   562  000021                     mode_TransLove@F3051:
   563                           	opt stack 0
   564  000021                     	ds	10
   565  00002B                     mode_TransLove@F3071:
   566                           	opt stack 0
   567  00002B                     	ds	5
   568  000030                     mode_TransLove@F3069:
   569                           	opt stack 0
   570  000030                     	ds	5
   571  000035                     mode_TransLove@F3067:
   572                           	opt stack 0
   573  000035                     	ds	5
   574  00003A                     mode_TransLove@F3065:
   575                           	opt stack 0
   576  00003A                     	ds	5
   577                           tblptru	equ	0xFF8
   578                           tblptrh	equ	0xFF7
   579                           tblptrl	equ	0xFF6
   580                           tablat	equ	0xFF5
   581                           postinc0	equ	0xFEE
   582                           postdec1	equ	0xFE5
   583                           fsr1l	equ	0xFE1
   584                           
   585                           	psect	dataBANK0
   586  0000E7                     __pdataBANK0:
   587                           	opt stack 0
   588  0000E7                     mode_TransLove@F3063:
   589                           	opt stack 0
   590  0000E7                     	ds	5
   591  0000EC                     mode_TransLove@F3061:
   592                           	opt stack 0
   593  0000EC                     	ds	5
   594  0000F1                     mode_TransLove@F3059:
   595                           	opt stack 0
   596  0000F1                     	ds	5
   597  0000F6                     mode_TransLove@F3057:
   598                           	opt stack 0
   599  0000F6                     	ds	5
   600  0000FB                     mode_TransLove@F3055:
   601                           	opt stack 0
   602  0000FB                     	ds	5
   603                           tblptru	equ	0xFF8
   604                           tblptrh	equ	0xFF7
   605                           tblptrl	equ	0xFF6
   606                           tablat	equ	0xFF5
   607                           postinc0	equ	0xFEE
   608                           postdec1	equ	0xFE5
   609                           fsr1l	equ	0xFE1
   610                           
   611                           	psect	bssBANK1
   612  0001EA                     __pbssBANK1:
   613                           	opt stack 0
   614  0001EA                     _minutes:
   615                           	opt stack 0
   616  0001EA                     	ds	2
   617  0001EC                     _seconds:
   618                           	opt stack 0
   619  0001EC                     	ds	2
   620                           tblptru	equ	0xFF8
   621                           tblptrh	equ	0xFF7
   622                           tblptrl	equ	0xFF6
   623                           tablat	equ	0xFF5
   624                           postinc0	equ	0xFEE
   625                           postdec1	equ	0xFE5
   626                           fsr1l	equ	0xFE1
   627                           
   628                           	psect	dataBANK1
   629  0001AC                     __pdataBANK1:
   630                           	opt stack 0
   631  0001AC                     mode_clock@F3093:
   632                           	opt stack 0
   633  0001AC                     	ds	28
   634  0001C8                     mode_clock@F3098:
   635                           	opt stack 0
   636  0001C8                     	ds	26
   637  0001E2                     mode_walker@F3030:
   638                           	opt stack 0
   639  0001E2                     	ds	8
   640                           tblptru	equ	0xFF8
   641                           tblptrh	equ	0xFF7
   642                           tblptrl	equ	0xFF6
   643                           tablat	equ	0xFF5
   644                           postinc0	equ	0xFEE
   645                           postdec1	equ	0xFE5
   646                           fsr1l	equ	0xFE1
   647                           
   648                           	psect	dataBANK2
   649  000200                     __pdataBANK2:
   650                           	opt stack 0
   651  000200                     mode_clock@F3096:
   652                           	opt stack 0
   653  000200                     	ds	80
   654  000250                     display_num@F3084:
   655                           	opt stack 0
   656  000250                     	ds	50
   657  000282                     mode_tree@F3010:
   658                           	opt stack 0
   659  000282                     	ds	42
   660  0002AC                     mode_TransLove@F3053:
   661                           	opt stack 0
   662  0002AC                     	ds	32
   663                           tblptru	equ	0xFF8
   664                           tblptrh	equ	0xFF7
   665                           tblptrl	equ	0xFF6
   666                           tablat	equ	0xFF5
   667                           postinc0	equ	0xFEE
   668                           postdec1	equ	0xFE5
   669                           fsr1l	equ	0xFE1
   670                           
   671                           	psect	dataBANK3
   672  000300                     __pdataBANK3:
   673                           	opt stack 0
   674  000300                     mode_walker@F3028:
   675                           	opt stack 0
   676  000300                     	ds	108
   677                           tblptru	equ	0xFF8
   678                           tblptrh	equ	0xFF7
   679                           tblptrl	equ	0xFF6
   680                           tablat	equ	0xFF5
   681                           postinc0	equ	0xFEE
   682                           postdec1	equ	0xFE5
   683                           fsr1l	equ	0xFE1
   684                           
   685                           	psect	cstackBANK1
   686  000100                     __pcstackBANK1:
   687                           	opt stack 0
   688  000100                     mode_clock@MAS:
   689                           	opt stack 0
   690  000100                     mode_walker@walker:
   691                           	opt stack 0
   692                           
   693                           ; 108 bytes @ 0x0
   694  000100                     	ds	80
   695  000150                     mode_clock@face:
   696                           	opt stack 0
   697                           
   698                           ; 26 bytes @ 0x50
   699  000150                     	ds	26
   700  00016A                     mode_clock@X:
   701                           	opt stack 0
   702                           
   703                           ; 28 bytes @ 0x6A
   704  00016A                     	ds	2
   705  00016C                     mode_walker@pic_cycle:
   706                           	opt stack 0
   707                           
   708                           ; 2 bytes @ 0x6C
   709  00016C                     	ds	2
   710  00016E                     mode_walker@display_cycle:
   711                           	opt stack 0
   712                           
   713                           ; 2 bytes @ 0x6E
   714  00016E                     	ds	2
   715  000170                     mode_walker@delay:
   716                           	opt stack 0
   717                           
   718                           ; 2 bytes @ 0x70
   719  000170                     	ds	2
   720  000172                     mode_walker@bright:
   721                           	opt stack 0
   722                           
   723                           ; 2 bytes @ 0x72
   724  000172                     	ds	2
   725  000174                     mode_walker@dark:
   726                           	opt stack 0
   727                           
   728                           ; 2 bytes @ 0x74
   729  000174                     	ds	2
   730  000176                     mode_walker@state_change_cycle:
   731                           	opt stack 0
   732                           
   733                           ; 2 bytes @ 0x76
   734  000176                     	ds	2
   735  000178                     mode_walker@pic_cycle_i:
   736                           	opt stack 0
   737                           
   738                           ; 2 bytes @ 0x78
   739  000178                     	ds	2
   740  00017A                     mode_walker@update:
   741                           	opt stack 0
   742                           
   743                           ; 2 bytes @ 0x7A
   744  00017A                     	ds	2
   745  00017C                     mode_walker@update_next_time:
   746                           	opt stack 0
   747                           
   748                           ; 2 bytes @ 0x7C
   749  00017C                     	ds	2
   750  00017E                     mode_walker@dark_309:
   751                           	opt stack 0
   752                           
   753                           ; 4 bytes @ 0x7E
   754  00017E                     	ds	4
   755  000182                     mode_walker@pic_i:
   756                           	opt stack 0
   757                           
   758                           ; 2 bytes @ 0x82
   759  000182                     	ds	2
   760  000184                     mode_walker@show:
   761                           	opt stack 0
   762                           
   763                           ; 2 bytes @ 0x84
   764  000184                     	ds	2
   765  000186                     mode_walker@column:
   766                           	opt stack 0
   767  000186                     mode_clock@display_cycle:
   768                           	opt stack 0
   769                           
   770                           ; 2 bytes @ 0x86
   771  000186                     	ds	2
   772  000188                     mode_clock@minH:
   773                           	opt stack 0
   774  000188                     mode_walker@four:
   775                           	opt stack 0
   776                           
   777                           ; 8 bytes @ 0x88
   778  000188                     	ds	2
   779  00018A                     mode_clock@minL:
   780                           	opt stack 0
   781                           
   782                           ; 2 bytes @ 0x8A
   783  00018A                     	ds	2
   784  00018C                     mode_clock@secH:
   785                           	opt stack 0
   786                           
   787                           ; 2 bytes @ 0x8C
   788  00018C                     	ds	2
   789  00018E                     mode_clock@secL:
   790                           	opt stack 0
   791                           
   792                           ; 2 bytes @ 0x8E
   793  00018E                     	ds	2
   794  000190                     mode_walker@delay_305:
   795                           	opt stack 0
   796  000190                     mode_clock@bright:
   797                           	opt stack 0
   798                           
   799                           ; 2 bytes @ 0x90
   800  000190                     	ds	2
   801  000192                     mode_clock@dark:
   802                           	opt stack 0
   803  000192                     mode_walker@move:
   804                           	opt stack 0
   805                           
   806                           ; 4 bytes @ 0x92
   807  000192                     	ds	2
   808  000194                     mode_clock@bright_372:
   809                           	opt stack 0
   810                           
   811                           ; 2 bytes @ 0x94
   812  000194                     	ds	2
   813  000196                     mode_walker@state:
   814                           	opt stack 0
   815  000196                     mode_clock@dark_373:
   816                           	opt stack 0
   817                           
   818                           ; 2 bytes @ 0x96
   819  000196                     	ds	2
   820  000198                     mode_walker@i:
   821                           	opt stack 0
   822  000198                     mode_clock@bright_376:
   823                           	opt stack 0
   824                           
   825                           ; 2 bytes @ 0x98
   826  000198                     	ds	2
   827  00019A                     mode_clock@dark_377:
   828                           	opt stack 0
   829                           
   830                           ; 2 bytes @ 0x9A
   831  00019A                     	ds	2
   832  00019C                     mode_clock@state:
   833                           	opt stack 0
   834                           
   835                           ; 2 bytes @ 0x9C
   836  00019C                     	ds	2
   837  00019E                     mode_clock@i:
   838                           	opt stack 0
   839                           
   840                           ; 2 bytes @ 0x9E
   841  00019E                     	ds	2
   842  0001A0                     mode_clock@j:
   843                           	opt stack 0
   844                           
   845                           ; 2 bytes @ 0xA0
   846  0001A0                     	ds	2
   847  0001A2                     mode_clock@face_i:
   848                           	opt stack 0
   849                           
   850                           ; 2 bytes @ 0xA2
   851  0001A2                     	ds	2
   852  0001A4                     mode_clock@i_375:
   853                           	opt stack 0
   854                           
   855                           ; 2 bytes @ 0xA4
   856  0001A4                     	ds	2
   857  0001A6                     mode_clock@i_370:
   858                           	opt stack 0
   859                           
   860                           ; 2 bytes @ 0xA6
   861  0001A6                     	ds	2
   862  0001A8                     mode_clock@show:
   863                           	opt stack 0
   864                           
   865                           ; 2 bytes @ 0xA8
   866  0001A8                     	ds	2
   867  0001AA                     mode_clock@delay:
   868                           	opt stack 0
   869                           
   870                           ; 2 bytes @ 0xAA
   871  0001AA                     	ds	2
   872                           tblptru	equ	0xFF8
   873                           tblptrh	equ	0xFF7
   874                           tblptrl	equ	0xFF6
   875                           tablat	equ	0xFF5
   876                           postinc0	equ	0xFEE
   877                           postdec1	equ	0xFE5
   878                           fsr1l	equ	0xFE1
   879                           
   880                           	psect	cstackBANK0
   881  000080                     __pcstackBANK0:
   882                           	opt stack 0
   883  000080                     mode_TransLove@arrow:
   884                           	opt stack 0
   885  000080                     mode_tree@tree:
   886                           	opt stack 0
   887  000080                     display_num@num:
   888                           	opt stack 0
   889                           
   890                           ; 50 bytes @ 0x0
   891  000080                     	ds	32
   892  0000A0                     mode_TransLove@love:
   893                           	opt stack 0
   894                           
   895                           ; 10 bytes @ 0x20
   896  0000A0                     	ds	10
   897  0000AA                     mode_tree@bright:
   898                           	opt stack 0
   899  0000AA                     mode_TransLove@T:
   900                           	opt stack 0
   901                           
   902                           ; 5 bytes @ 0x2A
   903  0000AA                     	ds	2
   904  0000AC                     mode_tree@dark:
   905                           	opt stack 0
   906                           
   907                           ; 2 bytes @ 0x2C
   908  0000AC                     	ds	2
   909  0000AE                     mode_tree@delay:
   910                           	opt stack 0
   911                           
   912                           ; 2 bytes @ 0x2E
   913  0000AE                     	ds	1
   914  0000AF                     mode_TransLove@R:
   915                           	opt stack 0
   916                           
   917                           ; 5 bytes @ 0x2F
   918  0000AF                     	ds	1
   919  0000B0                     mode_tree@bright_284:
   920                           	opt stack 0
   921                           
   922                           ; 2 bytes @ 0x30
   923  0000B0                     	ds	2
   924  0000B2                     mode_tree@dark_285:
   925                           	opt stack 0
   926  0000B2                     display_num@bright_i:
   927                           	opt stack 0
   928                           
   929                           ; 2 bytes @ 0x32
   930  0000B2                     	ds	2
   931  0000B4                     mode_tree@delay_286:
   932                           	opt stack 0
   933  0000B4                     display_num@dark_i:
   934                           	opt stack 0
   935  0000B4                     mode_TransLove@A:
   936                           	opt stack 0
   937                           
   938                           ; 5 bytes @ 0x34
   939  0000B4                     	ds	2
   940  0000B6                     mode_tree@show:
   941                           	opt stack 0
   942  0000B6                     display_num@iter:
   943                           	opt stack 0
   944                           
   945                           ; 2 bytes @ 0x36
   946  0000B6                     	ds	2
   947  0000B8                     mode_tree@i:
   948                           	opt stack 0
   949  0000B8                     display_num@i:
   950                           	opt stack 0
   951                           
   952                           ; 2 bytes @ 0x38
   953  0000B8                     	ds	1
   954  0000B9                     mode_TransLove@N:
   955                           	opt stack 0
   956                           
   957                           ; 5 bytes @ 0x39
   958  0000B9                     	ds	1
   959  0000BA                     mode_tree@move:
   960                           	opt stack 0
   961                           
   962                           ; 2 bytes @ 0x3A
   963  0000BA                     	ds	2
   964  0000BC                     mode_tree@show_282:
   965                           	opt stack 0
   966                           
   967                           ; 2 bytes @ 0x3C
   968  0000BC                     	ds	2
   969  0000BE                     mode_tree@i_283:
   970                           	opt stack 0
   971  0000BE                     mode_TransLove@S:
   972                           	opt stack 0
   973                           
   974                           ; 5 bytes @ 0x3E
   975  0000BE                     	ds	2
   976  0000C0                     mode_tree@cycle:
   977                           	opt stack 0
   978                           
   979                           ; 2 bytes @ 0x40
   980  0000C0                     	ds	3
   981  0000C3                     mode_TransLove@L:
   982                           	opt stack 0
   983                           
   984                           ; 5 bytes @ 0x43
   985  0000C3                     	ds	5
   986  0000C8                     mode_TransLove@O:
   987                           	opt stack 0
   988                           
   989                           ; 5 bytes @ 0x48
   990  0000C8                     	ds	5
   991  0000CD                     mode_TransLove@V:
   992                           	opt stack 0
   993                           
   994                           ; 5 bytes @ 0x4D
   995  0000CD                     	ds	5
   996  0000D2                     mode_TransLove@E:
   997                           	opt stack 0
   998                           
   999                           ; 5 bytes @ 0x52
  1000  0000D2                     	ds	5
  1001  0000D7                     mode_TransLove@cycle:
  1002                           	opt stack 0
  1003                           
  1004                           ; 2 bytes @ 0x57
  1005  0000D7                     	ds	2
  1006  0000D9                     mode_TransLove@bright:
  1007                           	opt stack 0
  1008                           
  1009                           ; 2 bytes @ 0x59
  1010  0000D9                     	ds	2
  1011  0000DB                     mode_TransLove@dark:
  1012                           	opt stack 0
  1013                           
  1014                           ; 2 bytes @ 0x5B
  1015  0000DB                     	ds	2
  1016  0000DD                     mode_TransLove@stop_arrow:
  1017                           	opt stack 0
  1018                           
  1019                           ; 2 bytes @ 0x5D
  1020  0000DD                     	ds	2
  1021  0000DF                     mode_TransLove@arrow_speed:
  1022                           	opt stack 0
  1023                           
  1024                           ; 2 bytes @ 0x5F
  1025  0000DF                     	ds	2
  1026  0000E1                     mode_TransLove@delay:
  1027                           	opt stack 0
  1028                           
  1029                           ; 2 bytes @ 0x61
  1030  0000E1                     	ds	2
  1031  0000E3                     mode_TransLove@arrow_i:
  1032                           	opt stack 0
  1033                           
  1034                           ; 2 bytes @ 0x63
  1035  0000E3                     	ds	2
  1036  0000E5                     mode_TransLove@i:
  1037                           	opt stack 0
  1038                           
  1039                           ; 2 bytes @ 0x65
  1040  0000E5                     	ds	2
  1041                           tblptru	equ	0xFF8
  1042                           tblptrh	equ	0xFF7
  1043                           tblptrl	equ	0xFF6
  1044                           tablat	equ	0xFF5
  1045                           postinc0	equ	0xFEE
  1046                           postdec1	equ	0xFE5
  1047                           fsr1l	equ	0xFE1
  1048                           
  1049                           	psect	cstackCOMRAM
  1050  000001                     __pcstackCOMRAM:
  1051                           	opt stack 0
  1052  000001                     ??_tc_int:
  1053  000001                     
  1054                           ; 1 bytes @ 0x0
  1055  000001                     	ds	18
  1056  000013                     ??_mode_tree:
  1057  000013                     ??_mode_TransLove:
  1058  000013                     ?___wmul:
  1059                           	opt stack 0
  1060  000013                     ?___awdiv:
  1061                           	opt stack 0
  1062  000013                     ?___awmod:
  1063                           	opt stack 0
  1064  000013                     ___wmul@multiplier:
  1065                           	opt stack 0
  1066  000013                     ___awdiv@dividend:
  1067                           	opt stack 0
  1068  000013                     ___awmod@dividend:
  1069                           	opt stack 0
  1070                           
  1071                           ; 2 bytes @ 0x12
  1072  000013                     	ds	2
  1073  000015                     ___wmul@multiplicand:
  1074                           	opt stack 0
  1075  000015                     ___awdiv@divisor:
  1076                           	opt stack 0
  1077  000015                     ___awmod@divisor:
  1078                           	opt stack 0
  1079                           
  1080                           ; 2 bytes @ 0x14
  1081  000015                     	ds	2
  1082  000017                     ___awdiv@counter:
  1083                           	opt stack 0
  1084  000017                     ___awmod@counter:
  1085                           	opt stack 0
  1086  000017                     ___wmul@product:
  1087                           	opt stack 0
  1088                           
  1089                           ; 2 bytes @ 0x16
  1090  000017                     	ds	1
  1091  000018                     ___awdiv@sign:
  1092                           	opt stack 0
  1093  000018                     ___awmod@sign:
  1094                           	opt stack 0
  1095                           
  1096                           ; 1 bytes @ 0x17
  1097  000018                     	ds	1
  1098  000019                     ??_mode_walker:
  1099  000019                     ___awdiv@quotient:
  1100                           	opt stack 0
  1101                           
  1102                           ; 2 bytes @ 0x18
  1103  000019                     	ds	2
  1104  00001B                     display_num@n:
  1105                           	opt stack 0
  1106                           
  1107                           ; 2 bytes @ 0x1A
  1108  00001B                     	ds	2
  1109  00001D                     ??_mode_clock:
  1110                           
  1111                           ; 1 bytes @ 0x1C
  1112  00001D                     	ds	4
  1113  000021                     tblptru	equ	0xFF8
  1114                           tblptrh	equ	0xFF7
  1115                           tblptrl	equ	0xFF6
  1116                           tablat	equ	0xFF5
  1117                           postinc0	equ	0xFEE
  1118                           postdec1	equ	0xFE5
  1119                           fsr1l	equ	0xFE1
  1120                           
  1121                           ; 1 bytes @ 0x20
  1122 ;;
  1123 ;;Main: autosize = 0, tempsize = 0, incstack = 0, save=0
  1124 ;;
  1125 ;; *************** function _main *****************
  1126 ;; Defined at:
  1127 ;;		line 826 in file "main2.c"
  1128 ;; Parameters:    Size  Location     Type
  1129 ;;		None
  1130 ;; Auto vars:     Size  Location     Type
  1131 ;;		None
  1132 ;; Return value:  Size  Location     Type
  1133 ;;                  1    wreg      void 
  1134 ;; Registers used:
  1135 ;;		wreg, fsr1l, fsr1h, fsr2l, fsr2h, status,2, status,0, prodl, prodh, cstack
  1136 ;; Tracked objects:
  1137 ;;		On entry : 0/0
  1138 ;;		On exit  : 0/0
  1139 ;;		Unchanged: 0/0
  1140 ;; Data sizes:     COMRAM   BANK0   BANK1   BANK2   BANK3   BANK4   BANK5
  1141 ;;      Params:         0       0       0       0       0       0       0
  1142 ;;      Locals:         0       0       0       0       0       0       0
  1143 ;;      Temps:          0       0       0       0       0       0       0
  1144 ;;      Totals:         0       0       0       0       0       0       0
  1145 ;;Total ram usage:        0 bytes
  1146 ;; Hardware stack levels required when called:    5
  1147 ;; This function calls:
  1148 ;;		_mode_TransLove
  1149 ;;		_mode_clock
  1150 ;;		_mode_tree
  1151 ;;		_mode_walker
  1152 ;; This function is called by:
  1153 ;;		Startup code after reset
  1154 ;; This function uses a non-reentrant model
  1155 ;;
  1156                           
  1157                           	psect	text0
  1158  00159A                     __ptext0:
  1159                           	opt stack 0
  1160  00159A                     _main:
  1161                           	opt stack 26
  1162                           
  1163                           ;main2.c: 827: OSCCONbits.IRCF = 0b111;
  1164                           
  1165                           ;incstack = 0
  1166  00159A  88D3               	bsf	4051,4,c	;volatile
  1167  00159C  8AD3               	bsf	4051,5,c	;volatile
  1168  00159E  8CD3               	bsf	4051,6,c	;volatile
  1169                           
  1170                           ;main2.c: 830: RCONbits.IPEN=0x01;
  1171  0015A0  8ED0               	bsf	4048,7,c	;volatile
  1172                           
  1173                           ;main2.c: 831: T1CON = 0b10110101;
  1174  0015A2  0EB5               	movlw	181
  1175  0015A4  6ECD               	movwf	4045,c	;volatile
  1176                           
  1177                           ;main2.c: 832: TMR1 = 15536;
  1178  0015A6  0E3C               	movlw	60
  1179  0015A8  6ECF               	movwf	4047,c	;volatile
  1180  0015AA  0EB0               	movlw	176
  1181  0015AC  6ECE               	movwf	4046,c	;volatile
  1182                           
  1183                           ;main2.c: 833: PIE1bits.TMR1IE=1;
  1184  0015AE  809D               	bsf	3997,0,c	;volatile
  1185                           
  1186                           ;main2.c: 834: IPR1bits.TMR1IP=1;
  1187  0015B0  809F               	bsf	3999,0,c	;volatile
  1188                           
  1189                           ;main2.c: 835: PIR1bits.TMR1IF=0;
  1190  0015B2  909E               	bcf	3998,0,c	;volatile
  1191                           
  1192                           ;main2.c: 836: INTCONbits.GIE=1;
  1193  0015B4  8EF2               	bsf	intcon,7,c	;volatile
  1194                           
  1195                           ;main2.c: 839: hours = 21;
  1196  0015B6  0E00               	movlw	0
  1197  0015B8  0101               	movlb	1	; () banked
  1198  0015BA  6FEF               	movwf	(_hours+1)& (0+255),b
  1199  0015BC  0E15               	movlw	21
  1200  0015BE  6FEE               	movwf	_hours& (0+255),b
  1201                           
  1202                           ;main2.c: 840: minutes = 0;
  1203  0015C0  0E00               	movlw	0
  1204  0015C2  6FEB               	movwf	(_minutes+1)& (0+255),b
  1205  0015C4  0E00               	movlw	0
  1206  0015C6  6FEA               	movwf	_minutes& (0+255),b
  1207                           
  1208                           ;main2.c: 842: TRISA = 0;
  1209  0015C8  0E00               	movlw	0
  1210  0015CA  6E92               	movwf	3986,c	;volatile
  1211                           
  1212                           ;main2.c: 843: TRISD = 0;
  1213  0015CC  0E00               	movlw	0
  1214  0015CE  6E95               	movwf	3989,c	;volatile
  1215                           
  1216                           ;main2.c: 844: LATD = 0;
  1217  0015D0  0E00               	movlw	0
  1218  0015D2  6E8C               	movwf	3980,c	;volatile
  1219                           
  1220                           ;main2.c: 845: LATA = 0;
  1221  0015D4  0E00               	movlw	0
  1222  0015D6  6E89               	movwf	3977,c	;volatile
  1223                           
  1224                           ; BSR set to: 1
  1225                           ;main2.c: 848: mode_tree();
  1226  0015D8  ECCD  F007         	call	_mode_tree	;wreg free
  1227  0015DC                     
  1228                           ;main2.c: 850: mode_clock();
  1229  0015DC  ECC1  F005         	call	_mode_clock	;wreg free
  1230                           
  1231                           ;main2.c: 852: mode_walker();
  1232  0015E0  EC0E  F003         	call	_mode_walker	;wreg free
  1233                           
  1234                           ;main2.c: 853: mode_TransLove();
  1235  0015E4  EC09  F000         	call	_mode_TransLove	;wreg free
  1236  0015E8  D7F9               	goto	l328
  1237  0015EA                     
  1238                           ;main2.c: 855: }
  1239                           ;main2.c: 857: while(1);
  1240  0015EA  D7FF               	goto	l330
  1241  0015EC                     __end_of_main:
  1242                           	opt stack 0
  1243                           tblptru	equ	0xFF8
  1244                           tblptrh	equ	0xFF7
  1245                           tblptrl	equ	0xFF6
  1246                           tablat	equ	0xFF5
  1247                           intcon	equ	0xFF2
  1248                           postinc0	equ	0xFEE
  1249                           postdec1	equ	0xFE5
  1250                           fsr1l	equ	0xFE1
  1251                           
  1252 ;; *************** function _mode_walker *****************
  1253 ;; Defined at:
  1254 ;;		line 94 in file "main2.c"
  1255 ;; Parameters:    Size  Location     Type
  1256 ;;		None
  1257 ;; Auto vars:     Size  Location     Type
  1258 ;;  dark            2  116[BANK1 ] int 
  1259 ;;  bright          2  114[BANK1 ] int 
  1260 ;;  column          2  134[BANK1 ] int 
  1261 ;;  dark            4  126[BANK1 ] long 
  1262 ;;  delay           2  144[BANK1 ] int 
  1263 ;;  delay           2  112[BANK1 ] int 
  1264 ;;  i               2  152[BANK1 ] int 
  1265 ;;  walker        108    0[BANK1 ] int [9][6]
  1266 ;;  four            8  136[BANK1 ] int [4]
  1267 ;;  move            4  146[BANK1 ] long 
  1268 ;;  state           2  150[BANK1 ] int 
  1269 ;;  show            2  132[BANK1 ] PTR unsigned int 
  1270 ;;		 -> mode_walker@walker(108), 
  1271 ;;  pic_i           2  130[BANK1 ] int 
  1272 ;;  update_next_    2  124[BANK1 ] int 
  1273 ;;  update          2  122[BANK1 ] int 
  1274 ;;  pic_cycle_i     2  120[BANK1 ] int 
  1275 ;;  state_change    2  118[BANK1 ] int 
  1276 ;;  display_cycl    2  110[BANK1 ] int 
  1277 ;;  pic_cycle       2  108[BANK1 ] const int 
  1278 ;; Return value:  Size  Location     Type
  1279 ;;                  1    wreg      void 
  1280 ;; Registers used:
  1281 ;;		wreg, fsr1l, fsr1h, fsr2l, fsr2h, status,2, status,0, prodl, prodh, cstack
  1282 ;; Tracked objects:
  1283 ;;		On entry : 0/0
  1284 ;;		On exit  : 0/0
  1285 ;;		Unchanged: 0/0
  1286 ;; Data sizes:     COMRAM   BANK0   BANK1   BANK2   BANK3   BANK4   BANK5
  1287 ;;      Params:         0       0       0       0       0       0       0
  1288 ;;      Locals:         0       0     154       0       0       0       0
  1289 ;;      Temps:          8       0       0       0       0       0       0
  1290 ;;      Totals:         8       0     154       0       0       0       0
  1291 ;;Total ram usage:      162 bytes
  1292 ;; Hardware stack levels used:    1
  1293 ;; Hardware stack levels required when called:    3
  1294 ;; This function calls:
  1295 ;;		___awmod
  1296 ;;		___wmul
  1297 ;; This function is called by:
  1298 ;;		_main
  1299 ;; This function uses a non-reentrant model
  1300 ;;
  1301                           
  1302                           	psect	text1
  1303  00061C                     __ptext1:
  1304                           	opt stack 0
  1305  00061C                     _mode_walker:
  1306                           	opt stack 27
  1307                           
  1308                           ;main2.c: 101: int walker[6][9] =
  1309                           ;main2.c: 102: {
  1310                           ;main2.c: 103: {
  1311                           ;main2.c: 104: 0b0000000000,
  1312                           ;main2.c: 105: 0b1000000000,
  1313                           ;main2.c: 106: 0b0100100000,
  1314                           ;main2.c: 107: 0b0011010000,
  1315                           ;main2.c: 108: 0b0001111111,
  1316                           ;main2.c: 109: 0b1010100111,
  1317                           ;main2.c: 110: 0b0100010000,
  1318                           ;main2.c: 111: 0b0000000000,
  1319                           ;main2.c: 112: 0b0000000000
  1320                           ;main2.c: 113: },
  1321                           ;main2.c: 114: {
  1322                           ;main2.c: 115: 0b0000000000,
  1323                           ;main2.c: 116: 0b0010000000,
  1324                           ;main2.c: 117: 0b0100110000,
  1325                           ;main2.c: 118: 0b0010010000,
  1326                           ;main2.c: 119: 0b0001111111,
  1327                           ;main2.c: 120: 0b1010010111,
  1328                           
  1329                           ;incstack = 0
  1330  00061C  EE23  F000         	lfsr	2,mode_walker@F3028
  1331  000620  EE11  F000         	lfsr	1,mode_walker@walker
  1332  000624  0E6B               	movlw	107
  1333  000626                     u3181:
  1334  000626  CFDB FFE3          	movff	plusw2,plusw1
  1335  00062A  06E8               	decf	wreg,f,c
  1336  00062C  E2FC               	bc	u3181
  1337                           
  1338                           ;main2.c: 171: bool four[4] = {1};
  1339  00062E  EE21  F0E2         	lfsr	2,mode_walker@F3030
  1340  000632  EE11  F088         	lfsr	1,mode_walker@four
  1341  000636  0E07               	movlw	7
  1342  000638                     u3191:
  1343  000638  CFDB FFE3          	movff	plusw2,plusw1
  1344  00063C  06E8               	decf	wreg,f,c
  1345  00063E  E2FC               	bc	u3191
  1346                           
  1347                           ;main2.c: 172: int state_change_cycle = 160;
  1348  000640  0E00               	movlw	0
  1349  000642  0101               	movlb	1	; () banked
  1350  000644  6F77               	movwf	(mode_walker@state_change_cycle+1)& (0+255),b
  1351  000646  0EA0               	movlw	160
  1352  000648  6F76               	movwf	mode_walker@state_change_cycle& (0+255),b
  1353                           
  1354                           ; BSR set to: 1
  1355                           ;main2.c: 173: int state = 0;
  1356  00064A  0E00               	movlw	0
  1357  00064C  6F97               	movwf	(mode_walker@state+1)& (0+255),b
  1358  00064E  0E00               	movlw	0
  1359  000650  6F96               	movwf	mode_walker@state& (0+255),b
  1360                           
  1361                           ; BSR set to: 1
  1362                           ;main2.c: 174: long int move = 1000;
  1363  000652  0EE8               	movlw	232
  1364  000654  6F92               	movwf	mode_walker@move& (0+255),b
  1365  000656  0E03               	movlw	3
  1366  000658  6F93               	movwf	(mode_walker@move+1)& (0+255),b
  1367  00065A  0E00               	movlw	0
  1368  00065C  6F94               	movwf	(mode_walker@move+2)& (0+255),b
  1369  00065E  0E00               	movlw	0
  1370  000660  6F95               	movwf	(mode_walker@move+3)& (0+255),b
  1371                           
  1372                           ; BSR set to: 1
  1373                           ;main2.c: 175: bool update = 0;
  1374  000662  0E00               	movlw	0
  1375  000664  6F7B               	movwf	(mode_walker@update+1)& (0+255),b
  1376  000666  0E00               	movlw	0
  1377  000668  6F7A               	movwf	mode_walker@update& (0+255),b
  1378                           
  1379                           ; BSR set to: 1
  1380                           ;main2.c: 176: bool update_next_time = 0;
  1381  00066A  0E00               	movlw	0
  1382  00066C  6F7D               	movwf	(mode_walker@update_next_time+1)& (0+255),b
  1383  00066E  0E00               	movlw	0
  1384  000670  6F7C               	movwf	mode_walker@update_next_time& (0+255),b
  1385                           
  1386                           ; BSR set to: 1
  1387                           ;main2.c: 177: const int pic_cycle = 3;
  1388  000672  0E00               	movlw	0
  1389  000674  6F6D               	movwf	(mode_walker@pic_cycle+1)& (0+255),b
  1390  000676  0E03               	movlw	3
  1391  000678  6F6C               	movwf	mode_walker@pic_cycle& (0+255),b
  1392                           
  1393                           ; BSR set to: 1
  1394                           ;main2.c: 178: int pic_cycle_i = 0;
  1395  00067A  0E00               	movlw	0
  1396  00067C  6F79               	movwf	(mode_walker@pic_cycle_i+1)& (0+255),b
  1397  00067E  0E00               	movlw	0
  1398  000680  6F78               	movwf	mode_walker@pic_cycle_i& (0+255),b
  1399                           
  1400                           ; BSR set to: 1
  1401                           ;main2.c: 179: int pic_i = 0;
  1402  000682  0E00               	movlw	0
  1403  000684  6F83               	movwf	(mode_walker@pic_i+1)& (0+255),b
  1404  000686  0E00               	movlw	0
  1405  000688  6F82               	movwf	mode_walker@pic_i& (0+255),b
  1406                           
  1407                           ; BSR set to: 1
  1408                           ;main2.c: 180: unsigned int* show;
  1409                           ;main2.c: 182: int display_cycle = 700;
  1410  00068A  0E02               	movlw	2
  1411  00068C  6F6F               	movwf	(mode_walker@display_cycle+1)& (0+255),b
  1412  00068E  0EBC               	movlw	188
  1413  000690  6F6E               	movwf	mode_walker@display_cycle& (0+255),b
  1414                           
  1415                           ;main2.c: 183: while(display_cycle--){
  1416  000692  D26E               	goto	l163
  1417  000694                     
  1418                           ; BSR set to: 1
  1419                           ;main2.c: 184: if(move > 0)
  1420                           
  1421                           ; BSR set to: 1
  1422  000694  BF95               	btfsc	(mode_walker@move+3)& (0+255),7,b
  1423  000696  D010               	goto	l83
  1424  000698  5195               	movf	(mode_walker@move+3)& (0+255),w,b
  1425  00069A  1194               	iorwf	(mode_walker@move+2)& (0+255),w,b
  1426  00069C  1193               	iorwf	(mode_walker@move+1)& (0+255),w,b
  1427  00069E  E103               	bnz	u3200
  1428  0006A0  0592               	decf	mode_walker@move& (0+255),w,b
  1429  0006A2  A0D8               	btfss	status,0,c
  1430  0006A4  D009               	goto	l83
  1431  0006A6                     u3200:
  1432                           
  1433                           ; BSR set to: 1
  1434                           ;main2.c: 185: move -= 30;
  1435  0006A6  0EE2               	movlw	226
  1436  0006A8  2792               	addwf	mode_walker@move& (0+255),f,b
  1437  0006AA  0EFF               	movlw	255
  1438  0006AC  2393               	addwfc	(mode_walker@move+1)& (0+255),f,b
  1439  0006AE  0EFF               	movlw	255
  1440  0006B0  2394               	addwfc	(mode_walker@move+2)& (0+255),f,b
  1441  0006B2  0EFF               	movlw	255
  1442  0006B4  2395               	addwfc	(mode_walker@move+3)& (0+255),f,b
  1443  0006B6  D00C               	goto	u3210
  1444  0006B8                     l83:
  1445                           
  1446                           ; BSR set to: 1
  1447                           ;main2.c: 186: else{
  1448                           ;main2.c: 187: int delay = 20;
  1449                           
  1450                           ; BSR set to: 1
  1451  0006B8  0E00               	movlw	0
  1452  0006BA  6F71               	movwf	(mode_walker@delay+1)& (0+255),b
  1453  0006BC  0E14               	movlw	20
  1454  0006BE  6F70               	movwf	mode_walker@delay& (0+255),b
  1455  0006C0                     l2708:
  1456                           
  1457                           ; BSR set to: 1
  1458  0006C0  0770               	decf	mode_walker@delay& (0+255),f,b
  1459  0006C2  A0D8               	btfss	status,0,c
  1460  0006C4  0771               	decf	(mode_walker@delay+1)& (0+255),f,b
  1461  0006C6  2970               	incf	mode_walker@delay& (0+255),w,b
  1462  0006C8  E1FB               	bnz	l2708
  1463  0006CA  2971               	incf	(mode_walker@delay+1)& (0+255),w,b
  1464  0006CC  A4D8               	btfss	status,2,c
  1465  0006CE  D7F8               	goto	l86
  1466  0006D0                     u3210:
  1467                           
  1468                           ; BSR set to: 1
  1469                           ;main2.c: 189: }
  1470                           ;main2.c: 190: if(update_next_time == 1){
  1471                           
  1472                           ; BSR set to: 1
  1473                           
  1474                           ; BSR set to: 1
  1475  0006D0  057C               	decf	mode_walker@update_next_time& (0+255),w,b
  1476  0006D2  117D               	iorwf	(mode_walker@update_next_time+1)& (0+255),w,b
  1477  0006D4  A4D8               	btfss	status,2,c
  1478  0006D6  D021               	goto	l92
  1479                           
  1480                           ; BSR set to: 1
  1481                           ;main2.c: 191: update_next_time = 0;
  1482  0006D8  0E00               	movlw	0
  1483  0006DA  6F7D               	movwf	(mode_walker@update_next_time+1)& (0+255),b
  1484  0006DC  0E00               	movlw	0
  1485  0006DE  6F7C               	movwf	mode_walker@update_next_time& (0+255),b
  1486                           
  1487                           ;main2.c: 193: switch(state){
  1488  0006E0  D00D               	goto	l89
  1489  0006E2                     
  1490                           ; BSR set to: 1
  1491                           ;main2.c: 195: four[2] = 0;
  1492                           
  1493                           ; BSR set to: 1
  1494  0006E2  0E00               	movlw	0
  1495  0006E4  6F8D               	movwf	(mode_walker@four+5)& (0+255),b
  1496  0006E6  0E00               	movlw	0
  1497  0006E8  6F8C               	movwf	(mode_walker@four+4)& (0+255),b
  1498  0006EA                     l91:
  1499                           
  1500                           ; BSR set to: 1
  1501                           ;main2.c: 197: four[1] = four[3] = 0;
  1502  0006EA  0E00               	movlw	0
  1503  0006EC  6F8F               	movwf	(mode_walker@four+7)& (0+255),b
  1504  0006EE  0E00               	movlw	0
  1505  0006F0  6F8E               	movwf	(mode_walker@four+6)& (0+255),b
  1506  0006F2  C18E  F18A         	movff	mode_walker@four+6,mode_walker@four+2
  1507  0006F6  C18F  F18B         	movff	mode_walker@four+7,mode_walker@four+3
  1508                           
  1509                           ;main2.c: 198: }
  1510  0006FA  D00F               	goto	l92
  1511  0006FC                     l89:
  1512                           
  1513                           ; BSR set to: 1
  1514                           
  1515                           ; BSR set to: 1
  1516  0006FC  C196  F019         	movff	mode_walker@state,??_mode_walker
  1517  000700  C197  F01A         	movff	mode_walker@state+1,??_mode_walker+1
  1518                           
  1519                           ; Switch on 2 bytes has been partitioned into a top level switch of size 1, and 1 sub-sw
      +                          itches
  1520                           ; Switch size 1, requested type "space"
  1521                           ; Number of cases is 1, Range of values is 0 to 0
  1522                           ; switch strategies available:
  1523                           ; Name         Instructions Cycles
  1524                           ; simple_byte            4     3 (average)
  1525                           ;	Chosen strategy is simple_byte
  1526  000704  501A               	movf	??_mode_walker+1,w,c
  1527  000706  0A00               	xorlw	0	; case 0
  1528  000708  A4D8               	btfss	status,2,c
  1529  00070A  D007               	goto	l92
  1530                           
  1531                           ; BSR set to: 1
  1532                           ; Switch size 1, requested type "space"
  1533                           ; Number of cases is 2, Range of values is 3 to 4
  1534                           ; switch strategies available:
  1535                           ; Name         Instructions Cycles
  1536                           ; simple_byte            7     4 (average)
  1537                           ;	Chosen strategy is simple_byte
  1538  00070C  5019               	movf	??_mode_walker,w,c
  1539  00070E  0A03               	xorlw	3	; case 3
  1540  000710  B4D8               	btfsc	status,2,c
  1541  000712  D7EB               	goto	l91
  1542  000714  0A07               	xorlw	7	; case 4
  1543  000716  B4D8               	btfsc	status,2,c
  1544  000718  D7E4               	goto	l90
  1545  00071A                     l92:
  1546                           
  1547                           ; BSR set to: 1
  1548                           ;main2.c: 199: }
  1549                           ;main2.c: 200: if(update == 0 && move <= 0){
  1550                           
  1551                           ; BSR set to: 1
  1552                           
  1553                           ; BSR set to: 1
  1554  00071A  517A               	movf	mode_walker@update& (0+255),w,b
  1555  00071C  117B               	iorwf	(mode_walker@update+1)& (0+255),w,b
  1556  00071E  A4D8               	btfss	status,2,c
  1557  000720  D019               	goto	l93
  1558                           
  1559                           ; BSR set to: 1
  1560  000722  BF95               	btfsc	(mode_walker@move+3)& (0+255),7,b
  1561  000724  D007               	goto	u3240
  1562  000726  5195               	movf	(mode_walker@move+3)& (0+255),w,b
  1563  000728  1194               	iorwf	(mode_walker@move+2)& (0+255),w,b
  1564  00072A  1193               	iorwf	(mode_walker@move+1)& (0+255),w,b
  1565  00072C  E113               	bnz	l93
  1566  00072E  0592               	decf	mode_walker@move& (0+255),w,b
  1567  000730  B0D8               	btfsc	status,0,c
  1568  000732  D010               	goto	l93
  1569  000734                     u3240:
  1570                           
  1571                           ; BSR set to: 1
  1572                           ;main2.c: 201: update = 1;
  1573  000734  0E00               	movlw	0
  1574  000736  6F7B               	movwf	(mode_walker@update+1)& (0+255),b
  1575  000738  0E01               	movlw	1
  1576  00073A  6F7A               	movwf	mode_walker@update& (0+255),b
  1577                           
  1578                           ;main2.c: 202: update_next_time = 1;
  1579  00073C  0E00               	movlw	0
  1580  00073E  6F7D               	movwf	(mode_walker@update_next_time+1)& (0+255),b
  1581  000740  0E01               	movlw	1
  1582  000742  6F7C               	movwf	mode_walker@update_next_time& (0+255),b
  1583                           
  1584                           ;main2.c: 203: move = 0;
  1585  000744  0E00               	movlw	0
  1586  000746  6F92               	movwf	mode_walker@move& (0+255),b
  1587  000748  0E00               	movlw	0
  1588  00074A  6F93               	movwf	(mode_walker@move+1)& (0+255),b
  1589  00074C  0E00               	movlw	0
  1590  00074E  6F94               	movwf	(mode_walker@move+2)& (0+255),b
  1591  000750  0E00               	movlw	0
  1592  000752  6F95               	movwf	(mode_walker@move+3)& (0+255),b
  1593  000754                     l93:
  1594                           
  1595                           ; BSR set to: 1
  1596                           ;main2.c: 204: }
  1597                           ;main2.c: 207: int i;
  1598                           ;main2.c: 208: for(i = 0; i < 4; ++i){
  1599  000754  0E00               	movlw	0
  1600  000756  6F99               	movwf	(mode_walker@i+1)& (0+255),b
  1601  000758  0E00               	movlw	0
  1602  00075A  6F98               	movwf	mode_walker@i& (0+255),b
  1603                           
  1604                           ; BSR set to: 1
  1605  00075C  BF99               	btfsc	(mode_walker@i+1)& (0+255),7,b
  1606  00075E  D049               	goto	l96
  1607  000760  5199               	movf	(mode_walker@i+1)& (0+255),w,b
  1608  000762  E105               	bnz	u3250
  1609  000764  0E04               	movlw	4
  1610  000766  5D98               	subwf	mode_walker@i& (0+255),w,b
  1611  000768  B0D8               	btfsc	status,0,c
  1612  00076A  D17C               	goto	u3500
  1613  00076C  D042               	goto	l96
  1614  00076E                     u3250:
  1615                           
  1616                           ; BSR set to: 1
  1617  00076E  D17A               	goto	u3500
  1618  000770                     
  1619                           ; BSR set to: 1
  1620                           ;main2.c: 213: delay = 28;
  1621                           
  1622                           ; BSR set to: 1
  1623  000770  0E00               	movlw	0
  1624  000772  6F91               	movwf	(mode_walker@delay_305+1)& (0+255),b
  1625  000774  0E1C               	movlw	28
  1626  000776  6F90               	movwf	mode_walker@delay_305& (0+255),b
  1627  000778                     l2730:
  1628                           
  1629                           ; BSR set to: 1
  1630  000778  0790               	decf	mode_walker@delay_305& (0+255),f,b
  1631  00077A  A0D8               	btfss	status,0,c
  1632  00077C  0791               	decf	(mode_walker@delay_305+1)& (0+255),f,b
  1633  00077E  2990               	incf	mode_walker@delay_305& (0+255),w,b
  1634  000780  E1FB               	bnz	l2730
  1635  000782  2991               	incf	(mode_walker@delay_305+1)& (0+255),w,b
  1636  000784  B4D8               	btfsc	status,2,c
  1637  000786  D04D               	goto	l101
  1638  000788  D7F7               	goto	l99
  1639  00078A                     
  1640                           ; BSR set to: 1
  1641                           ;main2.c: 217: delay = 15;
  1642                           
  1643                           ; BSR set to: 1
  1644  00078A  0E00               	movlw	0
  1645  00078C  6F91               	movwf	(mode_walker@delay_305+1)& (0+255),b
  1646  00078E  0E0F               	movlw	15
  1647  000790  6F90               	movwf	mode_walker@delay_305& (0+255),b
  1648  000792                     l2734:
  1649                           
  1650                           ; BSR set to: 1
  1651  000792  0790               	decf	mode_walker@delay_305& (0+255),f,b
  1652  000794  A0D8               	btfss	status,0,c
  1653  000796  0791               	decf	(mode_walker@delay_305+1)& (0+255),f,b
  1654  000798  2990               	incf	mode_walker@delay_305& (0+255),w,b
  1655  00079A  E1FB               	bnz	l2734
  1656  00079C  2991               	incf	(mode_walker@delay_305+1)& (0+255),w,b
  1657  00079E  B4D8               	btfsc	status,2,c
  1658  0007A0  D040               	goto	l101
  1659  0007A2  D7F7               	goto	l104
  1660  0007A4                     
  1661                           ; BSR set to: 1
  1662                           ;main2.c: 221: delay = 0;
  1663                           
  1664                           ; BSR set to: 1
  1665  0007A4  0E00               	movlw	0
  1666  0007A6  6F91               	movwf	(mode_walker@delay_305+1)& (0+255),b
  1667  0007A8  0E00               	movlw	0
  1668  0007AA  6F90               	movwf	mode_walker@delay_305& (0+255),b
  1669  0007AC                     l2738:
  1670                           
  1671                           ; BSR set to: 1
  1672  0007AC  0790               	decf	mode_walker@delay_305& (0+255),f,b
  1673  0007AE  A0D8               	btfss	status,0,c
  1674  0007B0  0791               	decf	(mode_walker@delay_305+1)& (0+255),f,b
  1675  0007B2  2990               	incf	mode_walker@delay_305& (0+255),w,b
  1676  0007B4  E1FB               	bnz	l2738
  1677  0007B6  2991               	incf	(mode_walker@delay_305+1)& (0+255),w,b
  1678  0007B8  B4D8               	btfsc	status,2,c
  1679  0007BA  D033               	goto	l101
  1680  0007BC  D7F7               	goto	l108
  1681  0007BE                     
  1682                           ; BSR set to: 1
  1683                           ;main2.c: 225: delay = 10;
  1684                           
  1685                           ; BSR set to: 1
  1686  0007BE  0E00               	movlw	0
  1687  0007C0  6F91               	movwf	(mode_walker@delay_305+1)& (0+255),b
  1688  0007C2  0E0A               	movlw	10
  1689  0007C4  6F90               	movwf	mode_walker@delay_305& (0+255),b
  1690  0007C6                     l2742:
  1691                           
  1692                           ; BSR set to: 1
  1693  0007C6  0790               	decf	mode_walker@delay_305& (0+255),f,b
  1694  0007C8  A0D8               	btfss	status,0,c
  1695  0007CA  0791               	decf	(mode_walker@delay_305+1)& (0+255),f,b
  1696  0007CC  2990               	incf	mode_walker@delay_305& (0+255),w,b
  1697  0007CE  E1FB               	bnz	l2742
  1698  0007D0  2991               	incf	(mode_walker@delay_305+1)& (0+255),w,b
  1699  0007D2  B4D8               	btfsc	status,2,c
  1700  0007D4  D026               	goto	l101
  1701  0007D6  D7F7               	goto	l112
  1702  0007D8                     
  1703                           ; BSR set to: 1
  1704                           ;main2.c: 229: delay = 16;
  1705                           
  1706                           ; BSR set to: 1
  1707  0007D8  0E00               	movlw	0
  1708  0007DA  6F91               	movwf	(mode_walker@delay_305+1)& (0+255),b
  1709  0007DC  0E10               	movlw	16
  1710  0007DE  6F90               	movwf	mode_walker@delay_305& (0+255),b
  1711  0007E0                     l2746:
  1712                           
  1713                           ; BSR set to: 1
  1714  0007E0  0790               	decf	mode_walker@delay_305& (0+255),f,b
  1715  0007E2  A0D8               	btfss	status,0,c
  1716  0007E4  0791               	decf	(mode_walker@delay_305+1)& (0+255),f,b
  1717  0007E6  2990               	incf	mode_walker@delay_305& (0+255),w,b
  1718  0007E8  E1FB               	bnz	l2746
  1719  0007EA  2991               	incf	(mode_walker@delay_305+1)& (0+255),w,b
  1720  0007EC  B4D8               	btfsc	status,2,c
  1721  0007EE  D019               	goto	l101
  1722  0007F0  D7F7               	goto	l116
  1723  0007F2                     l96:
  1724                           
  1725                           ; BSR set to: 1
  1726                           
  1727                           ; BSR set to: 1
  1728  0007F2  C196  F019         	movff	mode_walker@state,??_mode_walker
  1729  0007F6  C197  F01A         	movff	mode_walker@state+1,??_mode_walker+1
  1730                           
  1731                           ; Switch on 2 bytes has been partitioned into a top level switch of size 1, and 1 sub-sw
      +                          itches
  1732                           ; Switch size 1, requested type "space"
  1733                           ; Number of cases is 1, Range of values is 0 to 0
  1734                           ; switch strategies available:
  1735                           ; Name         Instructions Cycles
  1736                           ; simple_byte            4     3 (average)
  1737                           ;	Chosen strategy is simple_byte
  1738  0007FA  501A               	movf	??_mode_walker+1,w,c
  1739  0007FC  0A00               	xorlw	0	; case 0
  1740  0007FE  A4D8               	btfss	status,2,c
  1741  000800  D010               	goto	l101
  1742                           
  1743                           ; BSR set to: 1
  1744                           ; Switch size 1, requested type "space"
  1745                           ; Number of cases is 5, Range of values is 0 to 4
  1746                           ; switch strategies available:
  1747                           ; Name         Instructions Cycles
  1748                           ; simple_byte           16     9 (average)
  1749                           ;	Chosen strategy is simple_byte
  1750  000802  5019               	movf	??_mode_walker,w,c
  1751  000804  0A00               	xorlw	0	; case 0
  1752  000806  B4D8               	btfsc	status,2,c
  1753  000808  D7B3               	goto	l97
  1754  00080A  0A01               	xorlw	1	; case 1
  1755  00080C  B4D8               	btfsc	status,2,c
  1756  00080E  D7BD               	goto	l102
  1757  000810  0A03               	xorlw	3	; case 2
  1758  000812  B4D8               	btfsc	status,2,c
  1759  000814  D7C7               	goto	l106
  1760  000816  0A01               	xorlw	1	; case 3
  1761  000818  B4D8               	btfsc	status,2,c
  1762  00081A  D7D1               	goto	l110
  1763  00081C  0A07               	xorlw	7	; case 4
  1764  00081E  B4D8               	btfsc	status,2,c
  1765  000820  D7DB               	goto	l114
  1766  000822                     l101:
  1767                           
  1768                           ; BSR set to: 1
  1769                           ;main2.c: 234: show = (unsigned int*)walker[pic_i];
  1770                           
  1771                           ; BSR set to: 1
  1772  000822  C182  F013         	movff	mode_walker@pic_i,___wmul@multiplier
  1773  000826  C183  F014         	movff	mode_walker@pic_i+1,___wmul@multiplier+1
  1774  00082A  0E00               	movlw	0
  1775  00082C  6E16               	movwf	___wmul@multiplicand+1,c
  1776  00082E  0E12               	movlw	18
  1777  000830  6E15               	movwf	___wmul@multiplicand,c
  1778  000832  EC38  F00B         	call	___wmul	;wreg free
  1779  000836  0E00               	movlw	low mode_walker@walker
  1780  000838  2413               	addwf	?___wmul,w,c
  1781  00083A  0101               	movlb	1	; () banked
  1782  00083C  6F84               	movwf	mode_walker@show& (0+255),b
  1783  00083E  0E01               	movlw	high mode_walker@walker
  1784  000840  2014               	addwfc	?___wmul+1,w,c
  1785  000842  6F85               	movwf	(mode_walker@show+1)& (0+255),b
  1786                           
  1787                           ; BSR set to: 1
  1788                           ;main2.c: 235: for(int column = 0; column < 9; ++column, ++show){
  1789  000844  0E00               	movlw	0
  1790  000846  6F87               	movwf	(mode_walker@column+1)& (0+255),b
  1791  000848  0E00               	movlw	0
  1792  00084A  6F86               	movwf	mode_walker@column& (0+255),b
  1793  00084C                     l2756:
  1794                           
  1795                           ; BSR set to: 1
  1796  00084C  BF87               	btfsc	(mode_walker@column+1)& (0+255),7,b
  1797  00084E  D006               	goto	l118
  1798  000850  5187               	movf	(mode_walker@column+1)& (0+255),w,b
  1799  000852  E14B               	bnz	l2778
  1800  000854  0E09               	movlw	9
  1801  000856  5D86               	subwf	mode_walker@column& (0+255),w,b
  1802  000858  B0D8               	btfsc	status,0,c
  1803  00085A  D047               	goto	u3350
  1804  00085C                     l118:
  1805                           
  1806                           ; BSR set to: 1
  1807                           ;main2.c: 236: if(four[i]){
  1808                           
  1809                           ; BSR set to: 1
  1810  00085C  90D8               	bcf	status,0,c
  1811  00085E  3598               	rlcf	mode_walker@i& (0+255),w,b
  1812  000860  6ED9               	movwf	fsr2l,c
  1813  000862  3599               	rlcf	(mode_walker@i+1)& (0+255),w,b
  1814  000864  6EDA               	movwf	fsr2h,c
  1815  000866  0E88               	movlw	low mode_walker@four
  1816  000868  26D9               	addwf	fsr2l,f,c
  1817  00086A  0E01               	movlw	high mode_walker@four
  1818  00086C  22DA               	addwfc	fsr2h,f,c
  1819  00086E  50DE               	movf	postinc2,w,c
  1820  000870  10DE               	iorwf	postinc2,w,c
  1821  000872  B4D8               	btfsc	status,2,c
  1822  000874  D013               	goto	l120
  1823                           
  1824                           ; BSR set to: 1
  1825                           ;main2.c: 237: LATA = *show;
  1826  000876  C184  FFD9         	movff	mode_walker@show,fsr2l
  1827  00087A  C185  FFDA         	movff	mode_walker@show+1,fsr2h
  1828  00087E  50DF               	movf	indf2,w,c
  1829  000880  6E89               	movwf	3977,c	;volatile
  1830                           
  1831                           ;main2.c: 238: LATD = (*show) >> 8;
  1832  000882  C184  FFD9         	movff	mode_walker@show,fsr2l
  1833  000886  C185  FFDA         	movff	mode_walker@show+1,fsr2h
  1834  00088A  CFDE F019          	movff	postinc2,??_mode_walker
  1835  00088E  CFDD F01A          	movff	postdec2,??_mode_walker+1
  1836  000892  C01A  F019         	movff	??_mode_walker+1,??_mode_walker
  1837  000896  6A1A               	clrf	??_mode_walker+1,c
  1838  000898  5019               	movf	??_mode_walker,w,c
  1839  00089A  D003               	goto	L1
  1840  00089C                     l120:
  1841                           
  1842                           ; BSR set to: 1
  1843                           ;main2.c: 240: else{
  1844                           ;main2.c: 241: LATA = 0;
  1845                           
  1846                           ; BSR set to: 1
  1847  00089C  0E00               	movlw	0
  1848  00089E  6E89               	movwf	3977,c	;volatile
  1849                           
  1850                           ;main2.c: 242: LATD = 0;
  1851  0008A0  0E00               	movlw	0
  1852  0008A2                     L1:
  1853  0008A2  6E8C               	movwf	3980,c	;volatile
  1854                           
  1855                           ; BSR set to: 1
  1856                           ;main2.c: 243: }
  1857                           ;main2.c: 244: int bright = 60;
  1858  0008A4  0E00               	movlw	0
  1859  0008A6  6F73               	movwf	(mode_walker@bright+1)& (0+255),b
  1860  0008A8  0E3C               	movlw	60
  1861  0008AA  6F72               	movwf	mode_walker@bright& (0+255),b
  1862  0008AC                     l2766:
  1863                           
  1864                           ; BSR set to: 1
  1865  0008AC  0772               	decf	mode_walker@bright& (0+255),f,b
  1866  0008AE  A0D8               	btfss	status,0,c
  1867  0008B0  0773               	decf	(mode_walker@bright+1)& (0+255),f,b
  1868  0008B2  2972               	incf	mode_walker@bright& (0+255),w,b
  1869  0008B4  E1FB               	bnz	l2766
  1870  0008B6  2973               	incf	(mode_walker@bright+1)& (0+255),w,b
  1871  0008B8  A4D8               	btfss	status,2,c
  1872  0008BA  D7F8               	goto	l123
  1873                           
  1874                           ; BSR set to: 1
  1875                           ;main2.c: 246: LATA = 0;
  1876                           
  1877                           ; BSR set to: 1
  1878  0008BC  0E00               	movlw	0
  1879  0008BE  6E89               	movwf	3977,c	;volatile
  1880                           
  1881                           ;main2.c: 247: LATD = 0;
  1882  0008C0  0E00               	movlw	0
  1883  0008C2  6E8C               	movwf	3980,c	;volatile
  1884                           
  1885                           ;main2.c: 248: int dark = 60;
  1886  0008C4  0E00               	movlw	0
  1887  0008C6  6F75               	movwf	(mode_walker@dark+1)& (0+255),b
  1888  0008C8  0E3C               	movlw	60
  1889  0008CA  6F74               	movwf	mode_walker@dark& (0+255),b
  1890  0008CC                     l2770:
  1891                           
  1892                           ; BSR set to: 1
  1893  0008CC  0774               	decf	mode_walker@dark& (0+255),f,b
  1894  0008CE  A0D8               	btfss	status,0,c
  1895  0008D0  0775               	decf	(mode_walker@dark+1)& (0+255),f,b
  1896  0008D2  2974               	incf	mode_walker@dark& (0+255),w,b
  1897  0008D4  E1FB               	bnz	l2770
  1898  0008D6  2975               	incf	(mode_walker@dark+1)& (0+255),w,b
  1899  0008D8  A4D8               	btfss	status,2,c
  1900  0008DA  D7F8               	goto	l126
  1901                           
  1902                           ; BSR set to: 1
  1903                           
  1904                           ; BSR set to: 1
  1905  0008DC  4B86               	infsnz	mode_walker@column& (0+255),f,b
  1906  0008DE  2B87               	incf	(mode_walker@column+1)& (0+255),f,b
  1907                           
  1908                           ; BSR set to: 1
  1909  0008E0  0E02               	movlw	2
  1910  0008E2  2784               	addwf	mode_walker@show& (0+255),f,b
  1911  0008E4  0E00               	movlw	0
  1912  0008E6  2385               	addwfc	(mode_walker@show+1)& (0+255),f,b
  1913  0008E8  D7B1               	goto	l2756
  1914  0008EA                     u3350:
  1915  0008EA                     l2778:
  1916                           
  1917                           ; BSR set to: 1
  1918                           ;main2.c: 250: }
  1919                           ;main2.c: 253: long int dark = 1000;
  1920  0008EA  0EE8               	movlw	232
  1921  0008EC  6F7E               	movwf	mode_walker@dark_309& (0+255),b
  1922  0008EE  0E03               	movlw	3
  1923  0008F0  6F7F               	movwf	(mode_walker@dark_309+1)& (0+255),b
  1924  0008F2  0E00               	movlw	0
  1925  0008F4  6F80               	movwf	(mode_walker@dark_309+2)& (0+255),b
  1926  0008F6  0E00               	movlw	0
  1927  0008F8  6F81               	movwf	(mode_walker@dark_309+3)& (0+255),b
  1928                           
  1929                           ; BSR set to: 1
  1930                           ;main2.c: 254: if(state == 1 || state == 2){
  1931  0008FA  0596               	decf	mode_walker@state& (0+255),w,b
  1932  0008FC  1197               	iorwf	(mode_walker@state+1)& (0+255),w,b
  1933  0008FE  B4D8               	btfsc	status,2,c
  1934  000900  D005               	goto	u3370
  1935                           
  1936                           ; BSR set to: 1
  1937  000902  0E02               	movlw	2
  1938  000904  1996               	xorwf	mode_walker@state& (0+255),w,b
  1939  000906  1197               	iorwf	(mode_walker@state+1)& (0+255),w,b
  1940  000908  A4D8               	btfss	status,2,c
  1941  00090A  D02A               	goto	l128
  1942  00090C                     u3370:
  1943                           
  1944                           ; BSR set to: 1
  1945                           ;main2.c: 255: if((state==1 && i<2) || (state==2 && (i==0||i==2)))
  1946                           
  1947                           ; BSR set to: 1
  1948  00090C  0596               	decf	mode_walker@state& (0+255),w,b
  1949  00090E  1197               	iorwf	(mode_walker@state+1)& (0+255),w,b
  1950  000910  A4D8               	btfss	status,2,c
  1951  000912  D008               	goto	u3390
  1952                           
  1953                           ; BSR set to: 1
  1954  000914  BF99               	btfsc	(mode_walker@i+1)& (0+255),7,b
  1955  000916  D014               	goto	u3420
  1956  000918  5199               	movf	(mode_walker@i+1)& (0+255),w,b
  1957  00091A  E104               	bnz	l2788
  1958  00091C  0E02               	movlw	2
  1959  00091E  5D98               	subwf	mode_walker@i& (0+255),w,b
  1960  000920  A0D8               	btfss	status,0,c
  1961  000922  D00E               	goto	u3420
  1962  000924                     u3390:
  1963  000924                     l2788:
  1964                           
  1965                           ; BSR set to: 1
  1966  000924  0E02               	movlw	2
  1967  000926  1996               	xorwf	mode_walker@state& (0+255),w,b
  1968  000928  1197               	iorwf	(mode_walker@state+1)& (0+255),w,b
  1969  00092A  A4D8               	btfss	status,2,c
  1970  00092C  D011               	goto	l131
  1971                           
  1972                           ; BSR set to: 1
  1973  00092E  5198               	movf	mode_walker@i& (0+255),w,b
  1974  000930  1199               	iorwf	(mode_walker@i+1)& (0+255),w,b
  1975  000932  B4D8               	btfsc	status,2,c
  1976  000934  D005               	goto	u3420
  1977                           
  1978                           ; BSR set to: 1
  1979  000936  0E02               	movlw	2
  1980  000938  1998               	xorwf	mode_walker@i& (0+255),w,b
  1981  00093A  1199               	iorwf	(mode_walker@i+1)& (0+255),w,b
  1982  00093C  A4D8               	btfss	status,2,c
  1983  00093E  D008               	goto	l131
  1984  000940                     u3420:
  1985                           
  1986                           ; BSR set to: 1
  1987                           ;main2.c: 256: dark -= move;
  1988                           
  1989                           ; BSR set to: 1
  1990                           
  1991                           ; BSR set to: 1
  1992  000940  5192               	movf	mode_walker@move& (0+255),w,b
  1993  000942  5F7E               	subwf	mode_walker@dark_309& (0+255),f,b
  1994  000944  5193               	movf	(mode_walker@move+1)& (0+255),w,b
  1995  000946  5B7F               	subwfb	(mode_walker@dark_309+1)& (0+255),f,b
  1996  000948  5194               	movf	(mode_walker@move+2)& (0+255),w,b
  1997  00094A  5B80               	subwfb	(mode_walker@dark_309+2)& (0+255),f,b
  1998  00094C  5195               	movf	(mode_walker@move+3)& (0+255),w,b
  1999  00094E  D071               	goto	L2
  2000  000950                     l131:
  2001                           
  2002                           ; BSR set to: 1
  2003                           ;main2.c: 257: else
  2004                           ;main2.c: 258: dark += move;
  2005                           
  2006                           ; BSR set to: 1
  2007  000950  5192               	movf	mode_walker@move& (0+255),w,b
  2008  000952  277E               	addwf	mode_walker@dark_309& (0+255),f,b
  2009  000954  5193               	movf	(mode_walker@move+1)& (0+255),w,b
  2010  000956  237F               	addwfc	(mode_walker@dark_309+1)& (0+255),f,b
  2011  000958  5194               	movf	(mode_walker@move+2)& (0+255),w,b
  2012  00095A  2380               	addwfc	(mode_walker@dark_309+2)& (0+255),f,b
  2013  00095C  5195               	movf	(mode_walker@move+3)& (0+255),w,b
  2014  00095E  D043               	goto	L3
  2015  000960                     l128:
  2016                           
  2017                           ; BSR set to: 1
  2018                           
  2019                           ; BSR set to: 1
  2020  000960  5196               	movf	mode_walker@state& (0+255),w,b
  2021  000962  1197               	iorwf	(mode_walker@state+1)& (0+255),w,b
  2022  000964  B4D8               	btfsc	status,2,c
  2023  000966  D066               	goto	l148
  2024                           
  2025                           ; BSR set to: 1
  2026                           ;main2.c: 260: if((state==4 && i<2) || (state==3 && (i==0||i==2)))
  2027  000968  0E04               	movlw	4
  2028  00096A  1996               	xorwf	mode_walker@state& (0+255),w,b
  2029  00096C  1197               	iorwf	(mode_walker@state+1)& (0+255),w,b
  2030  00096E  A4D8               	btfss	status,2,c
  2031  000970  D008               	goto	u3450
  2032                           
  2033                           ; BSR set to: 1
  2034  000972  BF99               	btfsc	(mode_walker@i+1)& (0+255),7,b
  2035  000974  D014               	goto	u3480
  2036  000976  5199               	movf	(mode_walker@i+1)& (0+255),w,b
  2037  000978  E104               	bnz	l2804
  2038  00097A  0E02               	movlw	2
  2039  00097C  5D98               	subwf	mode_walker@i& (0+255),w,b
  2040  00097E  A0D8               	btfss	status,0,c
  2041  000980  D00E               	goto	u3480
  2042  000982                     u3450:
  2043  000982                     l2804:
  2044                           
  2045                           ; BSR set to: 1
  2046  000982  0E03               	movlw	3
  2047  000984  1996               	xorwf	mode_walker@state& (0+255),w,b
  2048  000986  1197               	iorwf	(mode_walker@state+1)& (0+255),w,b
  2049  000988  A4D8               	btfss	status,2,c
  2050  00098A  D02F               	goto	l141
  2051                           
  2052                           ; BSR set to: 1
  2053  00098C  5198               	movf	mode_walker@i& (0+255),w,b
  2054  00098E  1199               	iorwf	(mode_walker@i+1)& (0+255),w,b
  2055  000990  B4D8               	btfsc	status,2,c
  2056  000992  D005               	goto	u3480
  2057                           
  2058                           ; BSR set to: 1
  2059  000994  0E02               	movlw	2
  2060  000996  1998               	xorwf	mode_walker@i& (0+255),w,b
  2061  000998  1199               	iorwf	(mode_walker@i+1)& (0+255),w,b
  2062  00099A  A4D8               	btfss	status,2,c
  2063  00099C  D026               	goto	l141
  2064  00099E                     u3480:
  2065                           
  2066                           ; BSR set to: 1
  2067                           ;main2.c: 261: dark += 1000 - move;
  2068                           
  2069                           ; BSR set to: 1
  2070                           
  2071                           ; BSR set to: 1
  2072  00099E  C192  F019         	movff	mode_walker@move,??_mode_walker
  2073  0009A2  C193  F01A         	movff	mode_walker@move+1,??_mode_walker+1
  2074  0009A6  C194  F01B         	movff	mode_walker@move+2,??_mode_walker+2
  2075  0009AA  C195  F01C         	movff	mode_walker@move+3,??_mode_walker+3
  2076  0009AE  1E19               	comf	??_mode_walker,f,c
  2077  0009B0  1E1A               	comf	??_mode_walker+1,f,c
  2078  0009B2  1E1B               	comf	??_mode_walker+2,f,c
  2079  0009B4  1E1C               	comf	??_mode_walker+3,f,c
  2080  0009B6  2A19               	incf	??_mode_walker,f,c
  2081  0009B8  0E00               	movlw	0
  2082  0009BA  221A               	addwfc	??_mode_walker+1,f,c
  2083  0009BC  221B               	addwfc	??_mode_walker+2,f,c
  2084  0009BE  221C               	addwfc	??_mode_walker+3,f,c
  2085  0009C0  0EE8               	movlw	232
  2086  0009C2  2419               	addwf	??_mode_walker,w,c
  2087  0009C4  6E1D               	movwf	(??_mode_walker+4)& (0+255),c
  2088  0009C6  0E03               	movlw	3
  2089  0009C8  201A               	addwfc	??_mode_walker+1,w,c
  2090  0009CA  6E1E               	movwf	(??_mode_walker+5)& (0+255),c
  2091  0009CC  0E00               	movlw	0
  2092  0009CE  201B               	addwfc	??_mode_walker+2,w,c
  2093  0009D0  6E1F               	movwf	(??_mode_walker+6)& (0+255),c
  2094  0009D2  0E00               	movlw	0
  2095  0009D4  201C               	addwfc	??_mode_walker+3,w,c
  2096  0009D6  6E20               	movwf	(??_mode_walker+7)& (0+255),c
  2097  0009D8  501D               	movf	??_mode_walker+4,w,c
  2098  0009DA  277E               	addwf	mode_walker@dark_309& (0+255),f,b
  2099  0009DC  501E               	movf	??_mode_walker+5,w,c
  2100  0009DE  237F               	addwfc	(mode_walker@dark_309+1)& (0+255),f,b
  2101  0009E0  501F               	movf	??_mode_walker+6,w,c
  2102  0009E2  2380               	addwfc	(mode_walker@dark_309+2)& (0+255),f,b
  2103  0009E4  5020               	movf	??_mode_walker+7,w,c
  2104  0009E6                     L3:
  2105  0009E6  2381               	addwfc	(mode_walker@dark_309+3)& (0+255),f,b
  2106  0009E8  D025               	goto	l148
  2107  0009EA                     l141:
  2108                           
  2109                           ; BSR set to: 1
  2110                           ;main2.c: 262: else
  2111                           ;main2.c: 263: dark -= 1000 - move;
  2112                           
  2113                           ; BSR set to: 1
  2114  0009EA  C192  F019         	movff	mode_walker@move,??_mode_walker
  2115  0009EE  C193  F01A         	movff	mode_walker@move+1,??_mode_walker+1
  2116  0009F2  C194  F01B         	movff	mode_walker@move+2,??_mode_walker+2
  2117  0009F6  C195  F01C         	movff	mode_walker@move+3,??_mode_walker+3
  2118  0009FA  1E19               	comf	??_mode_walker,f,c
  2119  0009FC  1E1A               	comf	??_mode_walker+1,f,c
  2120  0009FE  1E1B               	comf	??_mode_walker+2,f,c
  2121  000A00  1E1C               	comf	??_mode_walker+3,f,c
  2122  000A02  2A19               	incf	??_mode_walker,f,c
  2123  000A04  0E00               	movlw	0
  2124  000A06  221A               	addwfc	??_mode_walker+1,f,c
  2125  000A08  221B               	addwfc	??_mode_walker+2,f,c
  2126  000A0A  221C               	addwfc	??_mode_walker+3,f,c
  2127  000A0C  0EE8               	movlw	232
  2128  000A0E  2419               	addwf	??_mode_walker,w,c
  2129  000A10  6E1D               	movwf	(??_mode_walker+4)& (0+255),c
  2130  000A12  0E03               	movlw	3
  2131  000A14  201A               	addwfc	??_mode_walker+1,w,c
  2132  000A16  6E1E               	movwf	(??_mode_walker+5)& (0+255),c
  2133  000A18  0E00               	movlw	0
  2134  000A1A  201B               	addwfc	??_mode_walker+2,w,c
  2135  000A1C  6E1F               	movwf	(??_mode_walker+6)& (0+255),c
  2136  000A1E  0E00               	movlw	0
  2137  000A20  201C               	addwfc	??_mode_walker+3,w,c
  2138  000A22  6E20               	movwf	(??_mode_walker+7)& (0+255),c
  2139  000A24  501D               	movf	??_mode_walker+4,w,c
  2140  000A26  5F7E               	subwf	mode_walker@dark_309& (0+255),f,b
  2141  000A28  501E               	movf	??_mode_walker+5,w,c
  2142  000A2A  5B7F               	subwfb	(mode_walker@dark_309+1)& (0+255),f,b
  2143  000A2C  501F               	movf	??_mode_walker+6,w,c
  2144  000A2E  5B80               	subwfb	(mode_walker@dark_309+2)& (0+255),f,b
  2145  000A30  5020               	movf	??_mode_walker+7,w,c
  2146  000A32                     L2:
  2147  000A32  5B81               	subwfb	(mode_walker@dark_309+3)& (0+255),f,b
  2148  000A34                     l148:
  2149  000A34                     l2814:
  2150                           
  2151                           ; BSR set to: 1
  2152  000A34  0EFF               	movlw	255
  2153  000A36  277E               	addwf	mode_walker@dark_309& (0+255),f,b
  2154  000A38  0EFF               	movlw	255
  2155  000A3A  237F               	addwfc	(mode_walker@dark_309+1)& (0+255),f,b
  2156  000A3C  0EFF               	movlw	255
  2157  000A3E  2380               	addwfc	(mode_walker@dark_309+2)& (0+255),f,b
  2158  000A40  0EFF               	movlw	255
  2159  000A42  2381               	addwfc	(mode_walker@dark_309+3)& (0+255),f,b
  2160  000A44  297E               	incf	mode_walker@dark_309& (0+255),w,b
  2161  000A46  E1F6               	bnz	l2814
  2162  000A48  297F               	incf	(mode_walker@dark_309+1)& (0+255),w,b
  2163  000A4A  E1F4               	bnz	l2814
  2164  000A4C  2980               	incf	(mode_walker@dark_309+2)& (0+255),w,b
  2165  000A4E  E1F2               	bnz	l2814
  2166  000A50  2981               	incf	(mode_walker@dark_309+3)& (0+255),w,b
  2167  000A52  A4D8               	btfss	status,2,c
  2168  000A54  D7EF               	goto	l148
  2169                           
  2170                           ; BSR set to: 1
  2171                           
  2172                           ; BSR set to: 1
  2173  000A56  4B98               	infsnz	mode_walker@i& (0+255),f,b
  2174  000A58  2B99               	incf	(mode_walker@i+1)& (0+255),f,b
  2175                           
  2176                           ; BSR set to: 1
  2177  000A5A  BF99               	btfsc	(mode_walker@i+1)& (0+255),7,b
  2178  000A5C  D6CA               	goto	l96
  2179  000A5E  5199               	movf	(mode_walker@i+1)& (0+255),w,b
  2180  000A60  E101               	bnz	l2820
  2181  000A62  D680               	goto	L4
  2182  000A64                     u3500:
  2183  000A64                     l2820:
  2184                           
  2185                           ; BSR set to: 1
  2186                           ;main2.c: 266: }
  2187                           ;main2.c: 268: if(++pic_cycle_i == pic_cycle){
  2188  000A64  4B78               	infsnz	mode_walker@pic_cycle_i& (0+255),f,b
  2189  000A66  2B79               	incf	(mode_walker@pic_cycle_i+1)& (0+255),f,b
  2190  000A68  516C               	movf	mode_walker@pic_cycle& (0+255),w,b
  2191  000A6A  1978               	xorwf	mode_walker@pic_cycle_i& (0+255),w,b
  2192  000A6C  E113               	bnz	l2828
  2193  000A6E  516D               	movf	(mode_walker@pic_cycle+1)& (0+255),w,b
  2194  000A70  1979               	xorwf	(mode_walker@pic_cycle_i+1)& (0+255),w,b
  2195  000A72  A4D8               	btfss	status,2,c
  2196  000A74  D00F               	goto	l153
  2197                           
  2198                           ; BSR set to: 1
  2199                           ;main2.c: 269: pic_cycle_i = 0;
  2200  000A76  0E00               	movlw	0
  2201  000A78  6F79               	movwf	(mode_walker@pic_cycle_i+1)& (0+255),b
  2202  000A7A  0E00               	movlw	0
  2203  000A7C  6F78               	movwf	mode_walker@pic_cycle_i& (0+255),b
  2204                           
  2205                           ; BSR set to: 1
  2206                           ;main2.c: 270: if(++pic_i == 6)
  2207  000A7E  4B82               	infsnz	mode_walker@pic_i& (0+255),f,b
  2208  000A80  2B83               	incf	(mode_walker@pic_i+1)& (0+255),f,b
  2209  000A82  0E06               	movlw	6
  2210  000A84  1982               	xorwf	mode_walker@pic_i& (0+255),w,b
  2211  000A86  1183               	iorwf	(mode_walker@pic_i+1)& (0+255),w,b
  2212  000A88  A4D8               	btfss	status,2,c
  2213  000A8A  D004               	goto	l153
  2214                           
  2215                           ; BSR set to: 1
  2216                           ;main2.c: 271: pic_i = 0;
  2217  000A8C  0E00               	movlw	0
  2218  000A8E  6F83               	movwf	(mode_walker@pic_i+1)& (0+255),b
  2219  000A90  0E00               	movlw	0
  2220  000A92  6F82               	movwf	mode_walker@pic_i& (0+255),b
  2221  000A94                     l153:
  2222  000A94                     l2828:
  2223                           
  2224                           ; BSR set to: 1
  2225                           ;main2.c: 272: }
  2226                           ;main2.c: 275: if(state_change_cycle-- == 0){
  2227  000A94  0776               	decf	mode_walker@state_change_cycle& (0+255),f,b
  2228  000A96  A0D8               	btfss	status,0,c
  2229  000A98  0777               	decf	(mode_walker@state_change_cycle+1)& (0+255),f,b
  2230  000A9A  2976               	incf	mode_walker@state_change_cycle& (0+255),w,b
  2231  000A9C  E169               	bnz	l81
  2232  000A9E  2977               	incf	(mode_walker@state_change_cycle+1)& (0+255),w,b
  2233  000AA0  A4D8               	btfss	status,2,c
  2234  000AA2  D066               	goto	l163
  2235                           
  2236                           ; BSR set to: 1
  2237                           ;main2.c: 276: state_change_cycle = 160;
  2238  000AA4  0E00               	movlw	0
  2239  000AA6  6F77               	movwf	(mode_walker@state_change_cycle+1)& (0+255),b
  2240  000AA8  0EA0               	movlw	160
  2241  000AAA  6F76               	movwf	mode_walker@state_change_cycle& (0+255),b
  2242                           
  2243                           ;main2.c: 277: move = 1000;
  2244  000AAC  0EE8               	movlw	232
  2245  000AAE  6F92               	movwf	mode_walker@move& (0+255),b
  2246  000AB0  0E03               	movlw	3
  2247  000AB2  6F93               	movwf	(mode_walker@move+1)& (0+255),b
  2248  000AB4  0E00               	movlw	0
  2249  000AB6  6F94               	movwf	(mode_walker@move+2)& (0+255),b
  2250  000AB8  0E00               	movlw	0
  2251  000ABA  6F95               	movwf	(mode_walker@move+3)& (0+255),b
  2252                           
  2253                           ;main2.c: 278: update = 0;
  2254  000ABC  0E00               	movlw	0
  2255  000ABE  6F7B               	movwf	(mode_walker@update+1)& (0+255),b
  2256  000AC0  0E00               	movlw	0
  2257  000AC2  6F7A               	movwf	mode_walker@update& (0+255),b
  2258                           
  2259                           ; BSR set to: 1
  2260                           ;main2.c: 279: state++;
  2261  000AC4  4B96               	infsnz	mode_walker@state& (0+255),f,b
  2262  000AC6  2B97               	incf	(mode_walker@state+1)& (0+255),f,b
  2263                           
  2264                           ; BSR set to: 1
  2265                           ;main2.c: 280: state %= 5;
  2266  000AC8  C196  F013         	movff	mode_walker@state,___awmod@dividend
  2267  000ACC  C197  F014         	movff	mode_walker@state+1,___awmod@dividend+1
  2268  000AD0  0E00               	movlw	0
  2269  000AD2  6E16               	movwf	___awmod@divisor+1,c
  2270  000AD4  0E05               	movlw	5
  2271  000AD6  6E15               	movwf	___awmod@divisor,c
  2272  000AD8  EC5F  F00A         	call	___awmod	;wreg free
  2273  000ADC  C013  F196         	movff	?___awmod,mode_walker@state
  2274  000AE0  C014  F197         	movff	?___awmod+1,mode_walker@state+1
  2275                           
  2276                           ;main2.c: 281: for(i = 0; i < 4; ++i)
  2277  000AE4  0E00               	movlw	0
  2278  000AE6  0101               	movlb	1	; () banked
  2279  000AE8  6F99               	movwf	(mode_walker@i+1)& (0+255),b
  2280  000AEA  0E00               	movlw	0
  2281  000AEC  6F98               	movwf	mode_walker@i& (0+255),b
  2282  000AEE                     l2838:
  2283                           
  2284                           ; BSR set to: 1
  2285  000AEE  BF99               	btfsc	(mode_walker@i+1)& (0+255),7,b
  2286  000AF0  D006               	goto	l155
  2287  000AF2  5199               	movf	(mode_walker@i+1)& (0+255),w,b
  2288  000AF4  E125               	bnz	l2852
  2289  000AF6  0E04               	movlw	4
  2290  000AF8  5D98               	subwf	mode_walker@i& (0+255),w,b
  2291  000AFA  B0D8               	btfsc	status,0,c
  2292  000AFC  D021               	goto	l157
  2293  000AFE                     l155:
  2294                           
  2295                           ; BSR set to: 1
  2296                           ;main2.c: 282: four[i] = 0;
  2297                           
  2298                           ; BSR set to: 1
  2299  000AFE  90D8               	bcf	status,0,c
  2300  000B00  3598               	rlcf	mode_walker@i& (0+255),w,b
  2301  000B02  6ED9               	movwf	fsr2l,c
  2302  000B04  3599               	rlcf	(mode_walker@i+1)& (0+255),w,b
  2303  000B06  6EDA               	movwf	fsr2h,c
  2304  000B08  0E88               	movlw	low mode_walker@four
  2305  000B0A  26D9               	addwf	fsr2l,f,c
  2306  000B0C  0E01               	movlw	high mode_walker@four
  2307  000B0E  22DA               	addwfc	fsr2h,f,c
  2308  000B10  0E00               	movlw	0
  2309  000B12  6EDE               	movwf	postinc2,c
  2310  000B14  0E00               	movlw	0
  2311  000B16  6EDD               	movwf	postdec2,c
  2312                           
  2313                           ; BSR set to: 1
  2314  000B18  4B98               	infsnz	mode_walker@i& (0+255),f,b
  2315  000B1A  2B99               	incf	(mode_walker@i+1)& (0+255),f,b
  2316  000B1C  D7E8               	goto	l2838
  2317  000B1E                     
  2318                           ; BSR set to: 1
  2319                           ;main2.c: 285: case 3:
  2320                           ;main2.c: 286: four[1] = four[3] = 1;
  2321                           
  2322                           ; BSR set to: 1
  2323                           
  2324                           ; BSR set to: 1
  2325  000B1E  0E00               	movlw	0
  2326  000B20  6F8F               	movwf	(mode_walker@four+7)& (0+255),b
  2327  000B22  0E01               	movlw	1
  2328  000B24  6F8E               	movwf	(mode_walker@four+6)& (0+255),b
  2329  000B26  C18E  F18A         	movff	mode_walker@four+6,mode_walker@four+2
  2330  000B2A  C18F  F18B         	movff	mode_walker@four+7,mode_walker@four+3
  2331  000B2E                     
  2332                           ; BSR set to: 1
  2333                           ;main2.c: 288: case 4:
  2334                           ;main2.c: 289: four[2] = 1;
  2335                           
  2336                           ; BSR set to: 1
  2337  000B2E  0E00               	movlw	0
  2338  000B30  6F8D               	movwf	(mode_walker@four+5)& (0+255),b
  2339  000B32  0E01               	movlw	1
  2340  000B34  6F8C               	movwf	(mode_walker@four+4)& (0+255),b
  2341  000B36                     l162:
  2342                           
  2343                           ; BSR set to: 1
  2344                           ;main2.c: 291: four[0] = 1;
  2345  000B36  0E00               	movlw	0
  2346  000B38  6F89               	movwf	(mode_walker@four+1)& (0+255),b
  2347  000B3A  0E01               	movlw	1
  2348  000B3C  6F88               	movwf	mode_walker@four& (0+255),b
  2349                           
  2350                           ; BSR set to: 1
  2351                           ;main2.c: 293: }
  2352                           
  2353                           ;main2.c: 292: break;
  2354  000B3E  D018               	goto	l163
  2355  000B40                     l157:
  2356  000B40                     l2852:
  2357                           
  2358                           ; BSR set to: 1
  2359  000B40  C196  F019         	movff	mode_walker@state,??_mode_walker
  2360  000B44  C197  F01A         	movff	mode_walker@state+1,??_mode_walker+1
  2361                           
  2362                           ; Switch on 2 bytes has been partitioned into a top level switch of size 1, and 1 sub-sw
      +                          itches
  2363                           ; Switch size 1, requested type "space"
  2364                           ; Number of cases is 1, Range of values is 0 to 0
  2365                           ; switch strategies available:
  2366                           ; Name         Instructions Cycles
  2367                           ; simple_byte            4     3 (average)
  2368                           ;	Chosen strategy is simple_byte
  2369  000B48  501A               	movf	??_mode_walker+1,w,c
  2370  000B4A  0A00               	xorlw	0	; case 0
  2371  000B4C  A4D8               	btfss	status,2,c
  2372  000B4E  D010               	goto	l163
  2373                           
  2374                           ; BSR set to: 1
  2375                           ; Switch size 1, requested type "space"
  2376                           ; Number of cases is 5, Range of values is 0 to 4
  2377                           ; switch strategies available:
  2378                           ; Name         Instructions Cycles
  2379                           ; simple_byte           16     9 (average)
  2380                           ;	Chosen strategy is simple_byte
  2381  000B50  5019               	movf	??_mode_walker,w,c
  2382  000B52  0A00               	xorlw	0	; case 0
  2383  000B54  B4D8               	btfsc	status,2,c
  2384  000B56  D7EF               	goto	l162
  2385  000B58  0A01               	xorlw	1	; case 1
  2386  000B5A  B4D8               	btfsc	status,2,c
  2387  000B5C  D7E8               	goto	l160
  2388  000B5E  0A03               	xorlw	3	; case 2
  2389  000B60  B4D8               	btfsc	status,2,c
  2390  000B62  D7DD               	goto	l158
  2391  000B64  0A01               	xorlw	1	; case 3
  2392  000B66  B4D8               	btfsc	status,2,c
  2393  000B68  D7DA               	goto	l158
  2394  000B6A  0A07               	xorlw	7	; case 4
  2395  000B6C  B4D8               	btfsc	status,2,c
  2396  000B6E  D7DF               	goto	l160
  2397  000B70                     l163:
  2398  000B70                     l81:
  2399                           
  2400                           ; BSR set to: 1
  2401                           
  2402                           ; BSR set to: 1
  2403  000B70  076E               	decf	mode_walker@display_cycle& (0+255),f,b
  2404  000B72  A0D8               	btfss	status,0,c
  2405  000B74  076F               	decf	(mode_walker@display_cycle+1)& (0+255),f,b
  2406  000B76  296E               	incf	mode_walker@display_cycle& (0+255),w,b
  2407  000B78  E103               	bnz	u3561
  2408  000B7A  296F               	incf	(mode_walker@display_cycle+1)& (0+255),w,b
  2409  000B7C  B4D8               	btfsc	status,2,c
  2410  000B7E  0012               	return	
  2411  000B80                     u3561:
  2412  000B80  D589               	goto	l82
  2413  000B82                     __end_of_mode_walker:
  2414                           	opt stack 0
  2415                           tblptru	equ	0xFF8
  2416                           tblptrh	equ	0xFF7
  2417                           tblptrl	equ	0xFF6
  2418                           tablat	equ	0xFF5
  2419                           intcon	equ	0xFF2
  2420                           postinc0	equ	0xFEE
  2421                           wreg	equ	0xFE8
  2422                           postdec1	equ	0xFE5
  2423                           plusw1	equ	0xFE3
  2424                           fsr1l	equ	0xFE1
  2425                           indf2	equ	0xFDF
  2426                           postinc2	equ	0xFDE
  2427                           postdec2	equ	0xFDD
  2428                           plusw2	equ	0xFDB
  2429                           fsr2h	equ	0xFDA
  2430                           fsr2l	equ	0xFD9
  2431                           status	equ	0xFD8
  2432                           
  2433 ;; *************** function _mode_tree *****************
  2434 ;; Defined at:
  2435 ;;		line 27 in file "main2.c"
  2436 ;; Parameters:    Size  Location     Type
  2437 ;;		None
  2438 ;; Auto vars:     Size  Location     Type
  2439 ;;  dark            2   50[BANK0 ] int 
  2440 ;;  bright          2   48[BANK0 ] int 
  2441 ;;  dark            2   44[BANK0 ] int 
  2442 ;;  bright          2   42[BANK0 ] int 
  2443 ;;  i               2   62[BANK0 ] int 
  2444 ;;  i               2   56[BANK0 ] int 
  2445 ;;  show            2   60[BANK0 ] PTR int 
  2446 ;;		 -> mode_tree@tree(42), 
  2447 ;;  delay           2   52[BANK0 ] int 
  2448 ;;  show            2   54[BANK0 ] PTR int 
  2449 ;;		 -> mode_tree@tree(42), 
  2450 ;;  delay           2   46[BANK0 ] int 
  2451 ;;  cycle           2   64[BANK0 ] int 
  2452 ;;  move            2   58[BANK0 ] int 
  2453 ;;  tree           42    0[BANK0 ] int [21][1]
  2454 ;; Return value:  Size  Location     Type
  2455 ;;                  1    wreg      void 
  2456 ;; Registers used:
  2457 ;;		wreg, fsr1l, fsr1h, fsr2l, fsr2h, status,2, status,0
  2458 ;; Tracked objects:
  2459 ;;		On entry : 0/0
  2460 ;;		On exit  : 0/0
  2461 ;;		Unchanged: 0/0
  2462 ;; Data sizes:     COMRAM   BANK0   BANK1   BANK2   BANK3   BANK4   BANK5
  2463 ;;      Params:         0       0       0       0       0       0       0
  2464 ;;      Locals:         0      66       0       0       0       0       0
  2465 ;;      Temps:          2       0       0       0       0       0       0
  2466 ;;      Totals:         2      66       0       0       0       0       0
  2467 ;;Total ram usage:       68 bytes
  2468 ;; Hardware stack levels used:    1
  2469 ;; Hardware stack levels required when called:    2
  2470 ;; This function calls:
  2471 ;;		Nothing
  2472 ;; This function is called by:
  2473 ;;		_main
  2474 ;; This function uses a non-reentrant model
  2475 ;;
  2476                           
  2477                           	psect	text2
  2478  000F9A                     __ptext2:
  2479                           	opt stack 0
  2480  000F9A                     _mode_tree:
  2481                           	opt stack 28
  2482                           
  2483                           ;main2.c: 29: int tree[1][21] =
  2484                           ;main2.c: 30: {
  2485                           ;main2.c: 31: {
  2486                           ;main2.c: 32: 0b0100000000,
  2487                           ;main2.c: 33: 0b0000000000,
  2488                           ;main2.c: 34: 0b0000000000,
  2489                           ;main2.c: 35: 0b0110000000,
  2490                           ;main2.c: 36: 0b0000100000,
  2491                           ;main2.c: 37: 0b0001100000,
  2492                           ;main2.c: 38: 0b0100010000,
  2493                           ;main2.c: 39: 0b0000100100,
  2494                           ;main2.c: 40: 0b0100001110,
  2495                           ;main2.c: 41: 0b1100100101,
  2496                           ;main2.c: 42: 0b0100001110,
  2497                           ;main2.c: 43: 0b0000100100,
  2498                           ;main2.c: 44: 0b0100010000,
  2499                           ;main2.c: 45: 0b0001100000,
  2500                           ;main2.c: 46: 0b0000100000,
  2501                           ;main2.c: 47: 0b0110000000,
  2502                           
  2503                           ; BSR set to: 1
  2504                           ;incstack = 0
  2505  000F9A  EE22  F082         	lfsr	2,mode_tree@F3010
  2506  000F9E  EE10  F080         	lfsr	1,mode_tree@tree
  2507  000FA2  0E29               	movlw	41
  2508  000FA4                     u3041:
  2509  000FA4  CFDB FFE3          	movff	plusw2,plusw1
  2510  000FA8  06E8               	decf	wreg,f,c
  2511  000FAA  E2FC               	bc	u3041
  2512  000FAC                     
  2513                           ;main2.c: 54: int cycle = 100;
  2514  000FAC  0E00               	movlw	0
  2515  000FAE  0100               	movlb	0	; () banked
  2516  000FB0  6FC1               	movwf	(mode_tree@cycle+1)& (0+255),b
  2517  000FB2  0E64               	movlw	100
  2518  000FB4  6FC0               	movwf	mode_tree@cycle& (0+255),b
  2519                           
  2520                           ;main2.c: 55: while(cycle--){
  2521  000FB6  D054               	goto	u3090
  2522  000FB8                     l2614:
  2523                           
  2524                           ; BSR set to: 0
  2525                           ;main2.c: 56: int* show = (int*)tree[0];
  2526  000FB8  0E80               	movlw	low mode_tree@tree
  2527  000FBA  6FB6               	movwf	mode_tree@show& (0+255),b
  2528  000FBC  0E00               	movlw	high mode_tree@tree
  2529  000FBE  6FB7               	movwf	(mode_tree@show+1)& (0+255),b
  2530                           
  2531                           ; BSR set to: 0
  2532                           ;main2.c: 57: for(int i = 0; i < 21; ++i, ++show){
  2533  000FC0  0E00               	movlw	0
  2534  000FC2  6FB9               	movwf	(mode_tree@i+1)& (0+255),b
  2535  000FC4  0E00               	movlw	0
  2536  000FC6  6FB8               	movwf	mode_tree@i& (0+255),b
  2537  000FC8                     l2618:
  2538                           
  2539                           ; BSR set to: 0
  2540  000FC8  BFB9               	btfsc	(mode_tree@i+1)& (0+255),7,b
  2541  000FCA  D006               	goto	l44
  2542  000FCC  51B9               	movf	(mode_tree@i+1)& (0+255),w,b
  2543  000FCE  E13C               	bnz	l2638
  2544  000FD0  0E15               	movlw	21
  2545  000FD2  5DB8               	subwf	mode_tree@i& (0+255),w,b
  2546  000FD4  B0D8               	btfsc	status,0,c
  2547  000FD6  D038               	goto	u3080
  2548  000FD8                     l44:
  2549                           
  2550                           ; BSR set to: 0
  2551                           ;main2.c: 58: LATA = *show;
  2552                           
  2553                           ; BSR set to: 0
  2554  000FD8  C0B6  FFD9         	movff	mode_tree@show,fsr2l
  2555  000FDC  C0B7  FFDA         	movff	mode_tree@show+1,fsr2h
  2556  000FE0  50DF               	movf	indf2,w,c
  2557  000FE2  6E89               	movwf	3977,c	;volatile
  2558                           
  2559                           ;main2.c: 59: LATD = *show >> 8;
  2560  000FE4  C0B6  FFD9         	movff	mode_tree@show,fsr2l
  2561  000FE8  C0B7  FFDA         	movff	mode_tree@show+1,fsr2h
  2562  000FEC  CFDE F013          	movff	postinc2,??_mode_tree
  2563  000FF0  CFDD F014          	movff	postdec2,??_mode_tree+1
  2564  000FF4  C014  F013         	movff	??_mode_tree+1,??_mode_tree
  2565  000FF8  6A14               	clrf	??_mode_tree+1,c
  2566  000FFA  BE13               	btfsc	??_mode_tree,7,c
  2567  000FFC  6814               	setf	??_mode_tree+1,c
  2568  000FFE  5013               	movf	??_mode_tree,w,c
  2569  001000  6E8C               	movwf	3980,c	;volatile
  2570                           
  2571                           ; BSR set to: 0
  2572                           ;main2.c: 60: int bright = 30;
  2573  001002  0E00               	movlw	0
  2574  001004  6FAB               	movwf	(mode_tree@bright+1)& (0+255),b
  2575  001006  0E1E               	movlw	30
  2576  001008  6FAA               	movwf	mode_tree@bright& (0+255),b
  2577  00100A                     l2626:
  2578                           
  2579                           ; BSR set to: 0
  2580  00100A  07AA               	decf	mode_tree@bright& (0+255),f,b
  2581  00100C  A0D8               	btfss	status,0,c
  2582  00100E  07AB               	decf	(mode_tree@bright+1)& (0+255),f,b
  2583  001010  29AA               	incf	mode_tree@bright& (0+255),w,b
  2584  001012  E1FB               	bnz	l2626
  2585  001014  29AB               	incf	(mode_tree@bright+1)& (0+255),w,b
  2586  001016  A4D8               	btfss	status,2,c
  2587  001018  D7F8               	goto	l47
  2588                           
  2589                           ; BSR set to: 0
  2590                           ;main2.c: 62: LATA = LATD = 0;
  2591                           
  2592                           ; BSR set to: 0
  2593  00101A  0E00               	movlw	0
  2594  00101C  6E8C               	movwf	3980,c	;volatile
  2595  00101E  CF8C FF89          	movff	3980,3977	;volatile
  2596                           
  2597                           ;main2.c: 63: int dark = 30;
  2598  001022  0E00               	movlw	0
  2599  001024  6FAD               	movwf	(mode_tree@dark+1)& (0+255),b
  2600  001026  0E1E               	movlw	30
  2601  001028  6FAC               	movwf	mode_tree@dark& (0+255),b
  2602  00102A                     l2630:
  2603                           
  2604                           ; BSR set to: 0
  2605  00102A  07AC               	decf	mode_tree@dark& (0+255),f,b
  2606  00102C  A0D8               	btfss	status,0,c
  2607  00102E  07AD               	decf	(mode_tree@dark+1)& (0+255),f,b
  2608  001030  29AC               	incf	mode_tree@dark& (0+255),w,b
  2609  001032  E1FB               	bnz	l2630
  2610  001034  29AD               	incf	(mode_tree@dark+1)& (0+255),w,b
  2611  001036  A4D8               	btfss	status,2,c
  2612  001038  D7F8               	goto	l50
  2613                           
  2614                           ; BSR set to: 0
  2615                           
  2616                           ; BSR set to: 0
  2617  00103A  4BB8               	infsnz	mode_tree@i& (0+255),f,b
  2618  00103C  2BB9               	incf	(mode_tree@i+1)& (0+255),f,b
  2619                           
  2620                           ; BSR set to: 0
  2621  00103E  0E02               	movlw	2
  2622  001040  27B6               	addwf	mode_tree@show& (0+255),f,b
  2623  001042  0E00               	movlw	0
  2624  001044  23B7               	addwfc	(mode_tree@show+1)& (0+255),f,b
  2625  001046  D7C0               	goto	l2618
  2626  001048                     u3080:
  2627  001048                     l2638:
  2628                           
  2629                           ; BSR set to: 0
  2630                           ;main2.c: 65: }
  2631                           ;main2.c: 66: int delay = 10650;
  2632  001048  0E29               	movlw	41
  2633  00104A  6FAF               	movwf	(mode_tree@delay+1)& (0+255),b
  2634  00104C  0E9A               	movlw	154
  2635  00104E  6FAE               	movwf	mode_tree@delay& (0+255),b
  2636  001050                     l2640:
  2637                           
  2638                           ; BSR set to: 0
  2639  001050  07AE               	decf	mode_tree@delay& (0+255),f,b
  2640  001052  A0D8               	btfss	status,0,c
  2641  001054  07AF               	decf	(mode_tree@delay+1)& (0+255),f,b
  2642  001056  29AE               	incf	mode_tree@delay& (0+255),w,b
  2643  001058  E1FB               	bnz	l2640
  2644  00105A  29AF               	incf	(mode_tree@delay+1)& (0+255),w,b
  2645  00105C  A4D8               	btfss	status,2,c
  2646  00105E  D7F8               	goto	l53
  2647  001060                     u3090:
  2648                           
  2649                           ; BSR set to: 0
  2650                           
  2651                           ; BSR set to: 0
  2652                           
  2653                           ; BSR set to: 0
  2654  001060  07C0               	decf	mode_tree@cycle& (0+255),f,b
  2655  001062  A0D8               	btfss	status,0,c
  2656  001064  07C1               	decf	(mode_tree@cycle+1)& (0+255),f,b
  2657  001066  29C0               	incf	mode_tree@cycle& (0+255),w,b
  2658  001068  E1A7               	bnz	l2614
  2659  00106A  29C1               	incf	(mode_tree@cycle+1)& (0+255),w,b
  2660  00106C  A4D8               	btfss	status,2,c
  2661  00106E  D7A4               	goto	l43
  2662                           
  2663                           ; BSR set to: 0
  2664                           ;main2.c: 68: }
  2665                           ;main2.c: 69: cycle = 500;
  2666                           
  2667                           ; BSR set to: 0
  2668  001070  0E01               	movlw	1
  2669  001072  6FC1               	movwf	(mode_tree@cycle+1)& (0+255),b
  2670  001074  0EF4               	movlw	244
  2671  001076  6FC0               	movwf	mode_tree@cycle& (0+255),b
  2672                           
  2673                           ;main2.c: 70: int move = 0;
  2674  001078  0E00               	movlw	0
  2675  00107A  6FBB               	movwf	(mode_tree@move+1)& (0+255),b
  2676  00107C  0E00               	movlw	0
  2677  00107E  6FBA               	movwf	mode_tree@move& (0+255),b
  2678                           
  2679                           ;main2.c: 71: while(cycle--){
  2680  001080  D063               	goto	u3160
  2681  001082                     l2646:
  2682                           
  2683                           ; BSR set to: 0
  2684                           ;main2.c: 73: int* show = (int*)tree[0];
  2685  001082  0E80               	movlw	low mode_tree@tree
  2686  001084  6FBC               	movwf	mode_tree@show_282& (0+255),b
  2687  001086  0E00               	movlw	high mode_tree@tree
  2688  001088  6FBD               	movwf	(mode_tree@show_282+1)& (0+255),b
  2689                           
  2690                           ; BSR set to: 0
  2691                           ;main2.c: 74: for(int i = 0; i < 21; ++i, ++show){
  2692  00108A  0E00               	movlw	0
  2693  00108C  6FBF               	movwf	(mode_tree@i_283+1)& (0+255),b
  2694  00108E  0E00               	movlw	0
  2695  001090  6FBE               	movwf	mode_tree@i_283& (0+255),b
  2696  001092                     l2650:
  2697                           
  2698                           ; BSR set to: 0
  2699  001092  BFBF               	btfsc	(mode_tree@i_283+1)& (0+255),7,b
  2700  001094  D006               	goto	l58
  2701  001096  51BF               	movf	(mode_tree@i_283+1)& (0+255),w,b
  2702  001098  E13C               	bnz	l2670
  2703  00109A  0E15               	movlw	21
  2704  00109C  5DBE               	subwf	mode_tree@i_283& (0+255),w,b
  2705  00109E  B0D8               	btfsc	status,0,c
  2706  0010A0  D038               	goto	u3140
  2707  0010A2                     l58:
  2708                           
  2709                           ; BSR set to: 0
  2710                           ;main2.c: 75: LATA = *show;
  2711                           
  2712                           ; BSR set to: 0
  2713  0010A2  C0BC  FFD9         	movff	mode_tree@show_282,fsr2l
  2714  0010A6  C0BD  FFDA         	movff	mode_tree@show_282+1,fsr2h
  2715  0010AA  50DF               	movf	indf2,w,c
  2716  0010AC  6E89               	movwf	3977,c	;volatile
  2717                           
  2718                           ;main2.c: 76: LATD = *show >> 8;
  2719  0010AE  C0BC  FFD9         	movff	mode_tree@show_282,fsr2l
  2720  0010B2  C0BD  FFDA         	movff	mode_tree@show_282+1,fsr2h
  2721  0010B6  CFDE F013          	movff	postinc2,??_mode_tree
  2722  0010BA  CFDD F014          	movff	postdec2,??_mode_tree+1
  2723  0010BE  C014  F013         	movff	??_mode_tree+1,??_mode_tree
  2724  0010C2  6A14               	clrf	??_mode_tree+1,c
  2725  0010C4  BE13               	btfsc	??_mode_tree,7,c
  2726  0010C6  6814               	setf	??_mode_tree+1,c
  2727  0010C8  5013               	movf	??_mode_tree,w,c
  2728  0010CA  6E8C               	movwf	3980,c	;volatile
  2729                           
  2730                           ; BSR set to: 0
  2731                           ;main2.c: 77: int bright = 30;
  2732  0010CC  0E00               	movlw	0
  2733  0010CE  6FB1               	movwf	(mode_tree@bright_284+1)& (0+255),b
  2734  0010D0  0E1E               	movlw	30
  2735  0010D2  6FB0               	movwf	mode_tree@bright_284& (0+255),b
  2736  0010D4                     l2658:
  2737                           
  2738                           ; BSR set to: 0
  2739  0010D4  07B0               	decf	mode_tree@bright_284& (0+255),f,b
  2740  0010D6  A0D8               	btfss	status,0,c
  2741  0010D8  07B1               	decf	(mode_tree@bright_284+1)& (0+255),f,b
  2742  0010DA  29B0               	incf	mode_tree@bright_284& (0+255),w,b
  2743  0010DC  E1FB               	bnz	l2658
  2744  0010DE  29B1               	incf	(mode_tree@bright_284+1)& (0+255),w,b
  2745  0010E0  A4D8               	btfss	status,2,c
  2746  0010E2  D7F8               	goto	l61
  2747                           
  2748                           ; BSR set to: 0
  2749                           ;main2.c: 79: LATA = LATD = 0;
  2750                           
  2751                           ; BSR set to: 0
  2752  0010E4  0E00               	movlw	0
  2753  0010E6  6E8C               	movwf	3980,c	;volatile
  2754  0010E8  CF8C FF89          	movff	3980,3977	;volatile
  2755                           
  2756                           ;main2.c: 80: int dark = 30;
  2757  0010EC  0E00               	movlw	0
  2758  0010EE  6FB3               	movwf	(mode_tree@dark_285+1)& (0+255),b
  2759  0010F0  0E1E               	movlw	30
  2760  0010F2  6FB2               	movwf	mode_tree@dark_285& (0+255),b
  2761  0010F4                     l2662:
  2762                           
  2763                           ; BSR set to: 0
  2764  0010F4  07B2               	decf	mode_tree@dark_285& (0+255),f,b
  2765  0010F6  A0D8               	btfss	status,0,c
  2766  0010F8  07B3               	decf	(mode_tree@dark_285+1)& (0+255),f,b
  2767  0010FA  29B2               	incf	mode_tree@dark_285& (0+255),w,b
  2768  0010FC  E1FB               	bnz	l2662
  2769  0010FE  29B3               	incf	(mode_tree@dark_285+1)& (0+255),w,b
  2770  001100  A4D8               	btfss	status,2,c
  2771  001102  D7F8               	goto	l64
  2772                           
  2773                           ; BSR set to: 0
  2774                           
  2775                           ; BSR set to: 0
  2776  001104  4BBE               	infsnz	mode_tree@i_283& (0+255),f,b
  2777  001106  2BBF               	incf	(mode_tree@i_283+1)& (0+255),f,b
  2778                           
  2779                           ; BSR set to: 0
  2780  001108  0E02               	movlw	2
  2781  00110A  27BC               	addwf	mode_tree@show_282& (0+255),f,b
  2782  00110C  0E00               	movlw	0
  2783  00110E  23BD               	addwfc	(mode_tree@show_282+1)& (0+255),f,b
  2784  001110  D7C0               	goto	l2650
  2785  001112                     u3140:
  2786  001112                     l2670:
  2787                           
  2788                           ; BSR set to: 0
  2789                           ;main2.c: 82: }
  2790                           ;main2.c: 83: int delay = 10640;
  2791  001112  0E29               	movlw	41
  2792  001114  6FB5               	movwf	(mode_tree@delay_286+1)& (0+255),b
  2793  001116  0E90               	movlw	144
  2794  001118  6FB4               	movwf	mode_tree@delay_286& (0+255),b
  2795                           
  2796                           ; BSR set to: 0
  2797                           ;main2.c: 84: if(cycle & 1)
  2798  00111A  A1C0               	btfss	mode_tree@cycle& (0+255),0,b
  2799  00111C  D005               	goto	l66
  2800                           
  2801                           ; BSR set to: 0
  2802                           ;main2.c: 85: delay += move;
  2803  00111E  51BA               	movf	mode_tree@move& (0+255),w,b
  2804  001120  27B4               	addwf	mode_tree@delay_286& (0+255),f,b
  2805  001122  51BB               	movf	(mode_tree@move+1)& (0+255),w,b
  2806  001124  23B5               	addwfc	(mode_tree@delay_286+1)& (0+255),f,b
  2807  001126  D004               	goto	l67
  2808  001128                     l66:
  2809                           
  2810                           ; BSR set to: 0
  2811                           ;main2.c: 86: else
  2812                           ;main2.c: 87: delay -= move;
  2813                           
  2814                           ; BSR set to: 0
  2815  001128  51BA               	movf	mode_tree@move& (0+255),w,b
  2816  00112A  5FB4               	subwf	mode_tree@delay_286& (0+255),f,b
  2817  00112C  51BB               	movf	(mode_tree@move+1)& (0+255),w,b
  2818  00112E  5BB5               	subwfb	(mode_tree@delay_286+1)& (0+255),f,b
  2819  001130                     l67:
  2820                           
  2821                           ; BSR set to: 0
  2822                           ;main2.c: 88: move += 25;
  2823  001130  0E19               	movlw	25
  2824  001132  27BA               	addwf	mode_tree@move& (0+255),f,b
  2825  001134  0E00               	movlw	0
  2826  001136  23BB               	addwfc	(mode_tree@move+1)& (0+255),f,b
  2827  001138                     l2678:
  2828                           
  2829                           ; BSR set to: 0
  2830  001138  07B4               	decf	mode_tree@delay_286& (0+255),f,b
  2831  00113A  A0D8               	btfss	status,0,c
  2832  00113C  07B5               	decf	(mode_tree@delay_286+1)& (0+255),f,b
  2833  00113E  29B4               	incf	mode_tree@delay_286& (0+255),w,b
  2834  001140  E1FB               	bnz	l2678
  2835  001142  29B5               	incf	(mode_tree@delay_286+1)& (0+255),w,b
  2836  001144  A4D8               	btfss	status,2,c
  2837  001146  D7F8               	goto	l69
  2838  001148                     u3160:
  2839                           
  2840                           ; BSR set to: 0
  2841                           
  2842                           ; BSR set to: 0
  2843                           
  2844                           ; BSR set to: 0
  2845  001148  07C0               	decf	mode_tree@cycle& (0+255),f,b
  2846  00114A  A0D8               	btfss	status,0,c
  2847  00114C  07C1               	decf	(mode_tree@cycle+1)& (0+255),f,b
  2848  00114E  29C0               	incf	mode_tree@cycle& (0+255),w,b
  2849  001150  E198               	bnz	l2646
  2850  001152  29C1               	incf	(mode_tree@cycle+1)& (0+255),w,b
  2851  001154  B4D8               	btfsc	status,2,c
  2852  001156  D72A               	goto	l41
  2853  001158  D794               	goto	l57
  2854  00115A                     __end_of_mode_tree:
  2855                           	opt stack 0
  2856                           tblptru	equ	0xFF8
  2857                           tblptrh	equ	0xFF7
  2858                           tblptrl	equ	0xFF6
  2859                           tablat	equ	0xFF5
  2860                           intcon	equ	0xFF2
  2861                           postinc0	equ	0xFEE
  2862                           wreg	equ	0xFE8
  2863                           postdec1	equ	0xFE5
  2864                           plusw1	equ	0xFE3
  2865                           fsr1l	equ	0xFE1
  2866                           indf2	equ	0xFDF
  2867                           postinc2	equ	0xFDE
  2868                           postdec2	equ	0xFDD
  2869                           plusw2	equ	0xFDB
  2870                           fsr2h	equ	0xFDA
  2871                           fsr2l	equ	0xFD9
  2872                           status	equ	0xFD8
  2873                           
  2874 ;; *************** function _mode_clock *****************
  2875 ;; Defined at:
  2876 ;;		line 621 in file "main2.c"
  2877 ;; Parameters:    Size  Location     Type
  2878 ;;		None
  2879 ;; Auto vars:     Size  Location     Type
  2880 ;;  dark            2  150[BANK1 ] int 
  2881 ;;  bright          2  148[BANK1 ] int 
  2882 ;;  j               2  160[BANK1 ] int 
  2883 ;;  dark            2  154[BANK1 ] int 
  2884 ;;  bright          2  152[BANK1 ] int 
  2885 ;;  dark            2  146[BANK1 ] int 
  2886 ;;  bright          2  144[BANK1 ] int 
  2887 ;;  i               2  164[BANK1 ] int 
  2888 ;;  i               2  166[BANK1 ] int 
  2889 ;;  i               2  158[BANK1 ] int 
  2890 ;;  delay           2  170[BANK1 ] int 
  2891 ;;  show            2  168[BANK1 ] PTR int 
  2892 ;;		 -> mode_clock@MAS(80), mode_clock@X(28), 
  2893 ;;  face_i          2  162[BANK1 ] PTR int 
  2894 ;;		 -> mode_clock@face(26), 
  2895 ;;  secL            2  142[BANK1 ] int 
  2896 ;;  secH            2  140[BANK1 ] int 
  2897 ;;  minL            2  138[BANK1 ] int 
  2898 ;;  minH            2  136[BANK1 ] int 
  2899 ;;  MAS            80    0[BANK1 ] int [10][4]
  2900 ;;  X              28  106[BANK1 ] int [14]
  2901 ;;  face           26   80[BANK1 ] int [13]
  2902 ;;  state           2  156[BANK1 ] int 
  2903 ;;  display_cycl    2  134[BANK1 ] int 
  2904 ;; Return value:  Size  Location     Type
  2905 ;;                  1    wreg      void 
  2906 ;; Registers used:
  2907 ;;		wreg, fsr1l, fsr1h, fsr2l, fsr2h, status,2, status,0, prodl, prodh, cstack
  2908 ;; Tracked objects:
  2909 ;;		On entry : 0/0
  2910 ;;		On exit  : 0/0
  2911 ;;		Unchanged: 0/0
  2912 ;; Data sizes:     COMRAM   BANK0   BANK1   BANK2   BANK3   BANK4   BANK5
  2913 ;;      Params:         0       0       0       0       0       0       0
  2914 ;;      Locals:         0       0     172       0       0       0       0
  2915 ;;      Temps:          2       0       0       0       0       0       0
  2916 ;;      Totals:         2       0     172       0       0       0       0
  2917 ;;Total ram usage:      174 bytes
  2918 ;; Hardware stack levels used:    1
  2919 ;; Hardware stack levels required when called:    4
  2920 ;; This function calls:
  2921 ;;		___awdiv
  2922 ;;		___awmod
  2923 ;;		___wmul
  2924 ;;		_display_num
  2925 ;; This function is called by:
  2926 ;;		_main
  2927 ;; This function uses a non-reentrant model
  2928 ;;
  2929                           
  2930                           	psect	text3
  2931  000B82                     __ptext3:
  2932                           	opt stack 0
  2933  000B82                     _mode_clock:
  2934                           	opt stack 26
  2935                           
  2936                           ;main2.c: 622: int state = 0;
  2937                           
  2938                           ; BSR set to: 0
  2939                           ;incstack = 0
  2940  000B82  0E00               	movlw	0
  2941  000B84  0101               	movlb	1	; () banked
  2942  000B86  6F9D               	movwf	(mode_clock@state+1)& (0+255),b
  2943  000B88  0E00               	movlw	0
  2944  000B8A  6F9C               	movwf	mode_clock@state& (0+255),b
  2945                           
  2946                           ; BSR set to: 1
  2947                           ;main2.c: 623: int X[14] = {
  2948                           ;main2.c: 624: 0b1000000000,
  2949                           ;main2.c: 625: 0b1000000000,
  2950                           ;main2.c: 626: 0b1100000011,
  2951                           ;main2.c: 627: 0b0100000001,
  2952                           ;main2.c: 628: 0b0111001111,
  2953                           ;main2.c: 629: 0b0011011100,
  2954                           ;main2.c: 630: 0b0001110000,
  2955                           ;main2.c: 631: 0b0000111000,
  2956                           ;main2.c: 632: 0b0011101100,
  2957                           ;main2.c: 633: 0b0111001111,
  2958                           ;main2.c: 634: 0b1100000001,
  2959                           ;main2.c: 635: 0b1000000011,
  2960                           ;main2.c: 636: 0b1000000000,
  2961                           ;main2.c: 637: 0b1000000000,
  2962                           ;main2.c: 638: };
  2963  000B8C  EE21  F0AC         	lfsr	2,mode_clock@F3093
  2964  000B90  EE11  F06A         	lfsr	1,mode_clock@X
  2965  000B94  0E1B               	movlw	27
  2966  000B96                     u3571:
  2967  000B96  CFDB FFE3          	movff	plusw2,plusw1
  2968  000B9A  06E8               	decf	wreg,f,c
  2969  000B9C  E2FC               	bc	u3571
  2970                           
  2971                           ; BSR set to: 1
  2972                           ;main2.c: 640: int MAS[4][10] =
  2973                           ;main2.c: 641: {
  2974                           ;main2.c: 642: {
  2975                           ;main2.c: 643: 0b0000000000,
  2976                           ;main2.c: 644: 0b0000000000,
  2977                           ;main2.c: 645: 0b0000000000,
  2978                           ;main2.c: 646: 0b0000000011,
  2979                           ;main2.c: 647: 0b0000001011,
  2980                           ;main2.c: 648: 0b0000000111,
  2981                           ;main2.c: 649: 0b0000000000,
  2982                           ;main2.c: 650: 0b0000000000,
  2983                           ;main2.c: 651: 0b0000000000,
  2984                           ;main2.c: 652: 0b0000000000
  2985                           ;main2.c: 653: },
  2986                           ;main2.c: 654: {
  2987                           ;main2.c: 655: 0b1100000011,
  2988                           ;main2.c: 656: 0b1111111111,
  2989                           ;main2.c: 657: 0b0000001110,
  2990                           ;main2.c: 658: 0b0000011000,
  2991                           ;main2.c: 659: 0b0000110000,
  2992  000B9E  EE22  F000         	lfsr	2,mode_clock@F3096
  2993  000BA2  EE11  F000         	lfsr	1,mode_clock@MAS
  2994  000BA6  0E4F               	movlw	79
  2995  000BA8                     u3581:
  2996  000BA8  CFDB FFE3          	movff	plusw2,plusw1
  2997  000BAC  06E8               	decf	wreg,f,c
  2998  000BAE  E2FC               	bc	u3581
  2999                           
  3000                           ; BSR set to: 1
  3001                           ;main2.c: 691: int face[13] = {
  3002                           ;main2.c: 692: 0b0011111110,
  3003                           ;main2.c: 693: 0b0100000111,
  3004                           ;main2.c: 694: 0b1000110111,
  3005                           ;main2.c: 695: 0b1000110110,
  3006                           ;main2.c: 696: 0b1000110111,
  3007                           ;main2.c: 697: 0b1010000110,
  3008                           ;main2.c: 698: 0b1010000110,
  3009                           ;main2.c: 699: 0b1010000111,
  3010                           ;main2.c: 700: 0b1000110110,
  3011                           ;main2.c: 701: 0b1000110111,
  3012                           ;main2.c: 702: 0b1000110111,
  3013                           ;main2.c: 703: 0b0100000111,
  3014                           ;main2.c: 704: 0b0011111110
  3015                           ;main2.c: 705: };
  3016  000BB0  EE21  F0C8         	lfsr	2,mode_clock@F3098
  3017  000BB4  EE11  F050         	lfsr	1,mode_clock@face
  3018  000BB8  0E19               	movlw	25
  3019  000BBA                     u3591:
  3020  000BBA  CFDB FFE3          	movff	plusw2,plusw1
  3021  000BBE  06E8               	decf	wreg,f,c
  3022  000BC0  E2FC               	bc	u3591
  3023                           
  3024                           ; BSR set to: 1
  3025                           ;main2.c: 707: int display_cycle = 1000;
  3026  000BC2  0E03               	movlw	3
  3027  000BC4  6F87               	movwf	(mode_clock@display_cycle+1)& (0+255),b
  3028  000BC6  0EE8               	movlw	232
  3029  000BC8  6F86               	movwf	mode_clock@display_cycle& (0+255),b
  3030                           
  3031                           ;main2.c: 709: while(--display_cycle){
  3032  000BCA  D1DF               	goto	u3830
  3033  000BCC                     
  3034                           ; BSR set to: 1
  3035                           ;main2.c: 712: display_num(hours/10);
  3036                           
  3037                           ; BSR set to: 1
  3038  000BCC  C1EE  F013         	movff	_hours,___awdiv@dividend
  3039  000BD0  C1EF  F014         	movff	_hours+1,___awdiv@dividend+1
  3040  000BD4  0E00               	movlw	0
  3041  000BD6  6E16               	movwf	___awdiv@divisor+1,c
  3042  000BD8  0E0A               	movlw	10
  3043  000BDA  6E15               	movwf	___awdiv@divisor,c
  3044  000BDC  EC1D  F00A         	call	___awdiv	;wreg free
  3045  000BE0  C013  F01B         	movff	?___awdiv,display_num@n
  3046  000BE4  C014  F01C         	movff	?___awdiv+1,display_num@n+1
  3047  000BE8  ECD1  F009         	call	_display_num	;wreg free
  3048                           
  3049                           ;main2.c: 713: display_num(hours%10);
  3050  000BEC  C1EE  F013         	movff	_hours,___awmod@dividend
  3051  000BF0  C1EF  F014         	movff	_hours+1,___awmod@dividend+1
  3052  000BF4  0E00               	movlw	0
  3053  000BF6  6E16               	movwf	___awmod@divisor+1,c
  3054  000BF8  0E0A               	movlw	10
  3055  000BFA  6E15               	movwf	___awmod@divisor,c
  3056  000BFC  EC5F  F00A         	call	___awmod	;wreg free
  3057  000C00  C013  F01B         	movff	?___awmod,display_num@n
  3058  000C04  C014  F01C         	movff	?___awmod+1,display_num@n+1
  3059  000C08  ECD1  F009         	call	_display_num	;wreg free
  3060                           
  3061                           ;main2.c: 716: int delay = 80;
  3062  000C0C  0E00               	movlw	0
  3063  000C0E  0101               	movlb	1	; () banked
  3064  000C10  6FAB               	movwf	(mode_clock@delay+1)& (0+255),b
  3065  000C12  0E50               	movlw	80
  3066  000C14  6FAA               	movwf	mode_clock@delay& (0+255),b
  3067  000C16                     l2888:
  3068                           
  3069                           ; BSR set to: 1
  3070  000C16  07AA               	decf	mode_clock@delay& (0+255),f,b
  3071  000C18  A0D8               	btfss	status,0,c
  3072  000C1A  07AB               	decf	(mode_clock@delay+1)& (0+255),f,b
  3073  000C1C  29AA               	incf	mode_clock@delay& (0+255),w,b
  3074  000C1E  E1FB               	bnz	l2888
  3075  000C20  29AB               	incf	(mode_clock@delay+1)& (0+255),w,b
  3076  000C22  A4D8               	btfss	status,2,c
  3077  000C24  D7F8               	goto	l256
  3078                           
  3079                           ; BSR set to: 1
  3080                           ;main2.c: 718: if(++state & 0b1000)
  3081                           
  3082                           ; BSR set to: 1
  3083  000C26  4B9C               	infsnz	mode_clock@state& (0+255),f,b
  3084  000C28  2B9D               	incf	(mode_clock@state+1)& (0+255),f,b
  3085  000C2A  A79C               	btfss	mode_clock@state& (0+255),3,b
  3086  000C2C  D002               	goto	l258
  3087                           
  3088                           ; BSR set to: 1
  3089                           ;main2.c: 719: LATA = 0b00001010;
  3090  000C2E  0E0A               	movlw	10
  3091  000C30  D001               	goto	L5
  3092  000C32                     l258:
  3093                           
  3094                           ; BSR set to: 1
  3095                           ;main2.c: 720: else
  3096                           ;main2.c: 721: LATA = 0;
  3097                           
  3098                           ; BSR set to: 1
  3099  000C32  0E00               	movlw	0
  3100  000C34                     L5:
  3101  000C34  6E89               	movwf	3977,c	;volatile
  3102                           
  3103                           ; BSR set to: 1
  3104                           ;main2.c: 722: int minH = minutes / 10;
  3105                           
  3106                           ; BSR set to: 1
  3107  000C36  C1EA  F013         	movff	_minutes,___awdiv@dividend
  3108  000C3A  C1EB  F014         	movff	_minutes+1,___awdiv@dividend+1
  3109  000C3E  0E00               	movlw	0
  3110  000C40  6E16               	movwf	___awdiv@divisor+1,c
  3111  000C42  0E0A               	movlw	10
  3112  000C44  6E15               	movwf	___awdiv@divisor,c
  3113  000C46  EC1D  F00A         	call	___awdiv	;wreg free
  3114  000C4A  C013  F188         	movff	?___awdiv,mode_clock@minH
  3115  000C4E  C014  F189         	movff	?___awdiv+1,mode_clock@minH+1
  3116                           
  3117                           ;main2.c: 723: LATA = 0;
  3118  000C52  0E00               	movlw	0
  3119  000C54  6E89               	movwf	3977,c	;volatile
  3120                           
  3121                           ;main2.c: 724: int minL = minutes % 10;
  3122  000C56  C1EA  F013         	movff	_minutes,___awmod@dividend
  3123  000C5A  C1EB  F014         	movff	_minutes+1,___awmod@dividend+1
  3124  000C5E  0E00               	movlw	0
  3125  000C60  6E16               	movwf	___awmod@divisor+1,c
  3126  000C62  0E0A               	movlw	10
  3127  000C64  6E15               	movwf	___awmod@divisor,c
  3128  000C66  EC5F  F00A         	call	___awmod	;wreg free
  3129  000C6A  C013  F18A         	movff	?___awmod,mode_clock@minL
  3130  000C6E  C014  F18B         	movff	?___awmod+1,mode_clock@minL+1
  3131                           
  3132                           ;main2.c: 725: delay = 80;
  3133  000C72  0E00               	movlw	0
  3134  000C74  0101               	movlb	1	; () banked
  3135  000C76  6FAB               	movwf	(mode_clock@delay+1)& (0+255),b
  3136  000C78  0E50               	movlw	80
  3137  000C7A  6FAA               	movwf	mode_clock@delay& (0+255),b
  3138  000C7C                     l2902:
  3139                           
  3140                           ; BSR set to: 1
  3141  000C7C  07AA               	decf	mode_clock@delay& (0+255),f,b
  3142  000C7E  A0D8               	btfss	status,0,c
  3143  000C80  07AB               	decf	(mode_clock@delay+1)& (0+255),f,b
  3144  000C82  29AA               	incf	mode_clock@delay& (0+255),w,b
  3145  000C84  E1FB               	bnz	l2902
  3146  000C86  29AB               	incf	(mode_clock@delay+1)& (0+255),w,b
  3147  000C88  A4D8               	btfss	status,2,c
  3148  000C8A  D7F8               	goto	l261
  3149                           
  3150                           ; BSR set to: 1
  3151                           ;main2.c: 729: display_num(minH);
  3152                           
  3153                           ; BSR set to: 1
  3154  000C8C  C188  F01B         	movff	mode_clock@minH,display_num@n
  3155  000C90  C189  F01C         	movff	mode_clock@minH+1,display_num@n+1
  3156  000C94  ECD1  F009         	call	_display_num	;wreg free
  3157                           
  3158                           ;main2.c: 730: display_num(minL);
  3159  000C98  C18A  F01B         	movff	mode_clock@minL,display_num@n
  3160  000C9C  C18B  F01C         	movff	mode_clock@minL+1,display_num@n+1
  3161  000CA0  ECD1  F009         	call	_display_num	;wreg free
  3162                           
  3163                           ;main2.c: 733: delay = 80;
  3164  000CA4  0E00               	movlw	0
  3165  000CA6  0101               	movlb	1	; () banked
  3166  000CA8  6FAB               	movwf	(mode_clock@delay+1)& (0+255),b
  3167  000CAA  0E50               	movlw	80
  3168  000CAC  6FAA               	movwf	mode_clock@delay& (0+255),b
  3169  000CAE                     l2908:
  3170                           
  3171                           ; BSR set to: 1
  3172  000CAE  07AA               	decf	mode_clock@delay& (0+255),f,b
  3173  000CB0  A0D8               	btfss	status,0,c
  3174  000CB2  07AB               	decf	(mode_clock@delay+1)& (0+255),f,b
  3175  000CB4  29AA               	incf	mode_clock@delay& (0+255),w,b
  3176  000CB6  E1FB               	bnz	l2908
  3177  000CB8  29AB               	incf	(mode_clock@delay+1)& (0+255),w,b
  3178  000CBA  A4D8               	btfss	status,2,c
  3179  000CBC  D7F8               	goto	l264
  3180                           
  3181                           ; BSR set to: 1
  3182                           ;main2.c: 735: if(state & 0b1000)
  3183  000CBE  A79C               	btfss	mode_clock@state& (0+255),3,b
  3184  000CC0  D002               	goto	l266
  3185                           
  3186                           ; BSR set to: 1
  3187                           ;main2.c: 736: LATA = 0b00001010;
  3188  000CC2  0E0A               	movlw	10
  3189  000CC4  D001               	goto	L6
  3190  000CC6                     l266:
  3191                           
  3192                           ; BSR set to: 1
  3193                           ;main2.c: 737: else
  3194                           ;main2.c: 738: LATA = 0;
  3195                           
  3196                           ; BSR set to: 1
  3197  000CC6  0E00               	movlw	0
  3198  000CC8                     L6:
  3199  000CC8  6E89               	movwf	3977,c	;volatile
  3200                           
  3201                           ; BSR set to: 1
  3202                           ;main2.c: 739: int secH = seconds / 10;
  3203                           
  3204                           ; BSR set to: 1
  3205  000CCA  C1EC  F013         	movff	_seconds,___awdiv@dividend
  3206  000CCE  C1ED  F014         	movff	_seconds+1,___awdiv@dividend+1
  3207  000CD2  0E00               	movlw	0
  3208  000CD4  6E16               	movwf	___awdiv@divisor+1,c
  3209  000CD6  0E0A               	movlw	10
  3210  000CD8  6E15               	movwf	___awdiv@divisor,c
  3211  000CDA  EC1D  F00A         	call	___awdiv	;wreg free
  3212  000CDE  C013  F18C         	movff	?___awdiv,mode_clock@secH
  3213  000CE2  C014  F18D         	movff	?___awdiv+1,mode_clock@secH+1
  3214                           
  3215                           ;main2.c: 740: LATA = 0;
  3216  000CE6  0E00               	movlw	0
  3217  000CE8  6E89               	movwf	3977,c	;volatile
  3218                           
  3219                           ;main2.c: 741: int secL = seconds % 10;
  3220  000CEA  C1EC  F013         	movff	_seconds,___awmod@dividend
  3221  000CEE  C1ED  F014         	movff	_seconds+1,___awmod@dividend+1
  3222  000CF2  0E00               	movlw	0
  3223  000CF4  6E16               	movwf	___awmod@divisor+1,c
  3224  000CF6  0E0A               	movlw	10
  3225  000CF8  6E15               	movwf	___awmod@divisor,c
  3226  000CFA  EC5F  F00A         	call	___awmod	;wreg free
  3227  000CFE  C013  F18E         	movff	?___awmod,mode_clock@secL
  3228  000D02  C014  F18F         	movff	?___awmod+1,mode_clock@secL+1
  3229                           
  3230                           ;main2.c: 742: delay = 80;
  3231  000D06  0E00               	movlw	0
  3232  000D08  0101               	movlb	1	; () banked
  3233  000D0A  6FAB               	movwf	(mode_clock@delay+1)& (0+255),b
  3234  000D0C  0E50               	movlw	80
  3235  000D0E  6FAA               	movwf	mode_clock@delay& (0+255),b
  3236  000D10                     l2920:
  3237                           
  3238                           ; BSR set to: 1
  3239  000D10  07AA               	decf	mode_clock@delay& (0+255),f,b
  3240  000D12  A0D8               	btfss	status,0,c
  3241  000D14  07AB               	decf	(mode_clock@delay+1)& (0+255),f,b
  3242  000D16  29AA               	incf	mode_clock@delay& (0+255),w,b
  3243  000D18  E1FB               	bnz	l2920
  3244  000D1A  29AB               	incf	(mode_clock@delay+1)& (0+255),w,b
  3245  000D1C  A4D8               	btfss	status,2,c
  3246  000D1E  D7F8               	goto	l269
  3247                           
  3248                           ; BSR set to: 1
  3249                           ;main2.c: 746: display_num(secH);
  3250                           
  3251                           ; BSR set to: 1
  3252  000D20  C18C  F01B         	movff	mode_clock@secH,display_num@n
  3253  000D24  C18D  F01C         	movff	mode_clock@secH+1,display_num@n+1
  3254  000D28  ECD1  F009         	call	_display_num	;wreg free
  3255                           
  3256                           ;main2.c: 747: display_num(secL);
  3257  000D2C  C18E  F01B         	movff	mode_clock@secL,display_num@n
  3258  000D30  C18F  F01C         	movff	mode_clock@secL+1,display_num@n+1
  3259  000D34  ECD1  F009         	call	_display_num	;wreg free
  3260                           
  3261                           ;main2.c: 750: delay = 860;
  3262  000D38  0E03               	movlw	3
  3263  000D3A  0101               	movlb	1	; () banked
  3264  000D3C  6FAB               	movwf	(mode_clock@delay+1)& (0+255),b
  3265  000D3E  0E5C               	movlw	92
  3266  000D40  6FAA               	movwf	mode_clock@delay& (0+255),b
  3267  000D42                     l2926:
  3268                           
  3269                           ; BSR set to: 1
  3270  000D42  07AA               	decf	mode_clock@delay& (0+255),f,b
  3271  000D44  A0D8               	btfss	status,0,c
  3272  000D46  07AB               	decf	(mode_clock@delay+1)& (0+255),f,b
  3273  000D48  29AA               	incf	mode_clock@delay& (0+255),w,b
  3274  000D4A  E1FB               	bnz	l2926
  3275  000D4C  29AB               	incf	(mode_clock@delay+1)& (0+255),w,b
  3276  000D4E  A4D8               	btfss	status,2,c
  3277  000D50  D7F8               	goto	l272
  3278                           
  3279                           ; BSR set to: 1
  3280                           ;main2.c: 754: int *show = (int*) X;
  3281                           
  3282                           ; BSR set to: 1
  3283  000D52  0E6A               	movlw	low mode_clock@X
  3284  000D54  6FA8               	movwf	mode_clock@show& (0+255),b
  3285  000D56  0E01               	movlw	high mode_clock@X
  3286  000D58  6FA9               	movwf	(mode_clock@show+1)& (0+255),b
  3287                           
  3288                           ; BSR set to: 1
  3289                           ;main2.c: 755: for(int i = 0; i < 14; ++i, ++show){
  3290  000D5A  0E00               	movlw	0
  3291  000D5C  6F9F               	movwf	(mode_clock@i+1)& (0+255),b
  3292  000D5E  0E00               	movlw	0
  3293  000D60  6F9E               	movwf	mode_clock@i& (0+255),b
  3294  000D62                     l2932:
  3295                           
  3296                           ; BSR set to: 1
  3297  000D62  BF9F               	btfsc	(mode_clock@i+1)& (0+255),7,b
  3298  000D64  D006               	goto	l274
  3299  000D66  519F               	movf	(mode_clock@i+1)& (0+255),w,b
  3300  000D68  E13C               	bnz	l2952
  3301  000D6A  0E0E               	movlw	14
  3302  000D6C  5D9E               	subwf	mode_clock@i& (0+255),w,b
  3303  000D6E  B0D8               	btfsc	status,0,c
  3304  000D70  D038               	goto	u3700
  3305  000D72                     l274:
  3306                           
  3307                           ; BSR set to: 1
  3308                           ;main2.c: 756: LATA = *show;
  3309                           
  3310                           ; BSR set to: 1
  3311  000D72  C1A8  FFD9         	movff	mode_clock@show,fsr2l
  3312  000D76  C1A9  FFDA         	movff	mode_clock@show+1,fsr2h
  3313  000D7A  50DF               	movf	indf2,w,c
  3314  000D7C  6E89               	movwf	3977,c	;volatile
  3315                           
  3316                           ;main2.c: 757: LATD = *show >> 8;
  3317  000D7E  C1A8  FFD9         	movff	mode_clock@show,fsr2l
  3318  000D82  C1A9  FFDA         	movff	mode_clock@show+1,fsr2h
  3319  000D86  CFDE F01D          	movff	postinc2,??_mode_clock
  3320  000D8A  CFDD F01E          	movff	postdec2,??_mode_clock+1
  3321  000D8E  C01E  F01D         	movff	??_mode_clock+1,??_mode_clock
  3322  000D92  6A1E               	clrf	??_mode_clock+1,c
  3323  000D94  BE1D               	btfsc	??_mode_clock,7,c
  3324  000D96  681E               	setf	??_mode_clock+1,c
  3325  000D98  501D               	movf	??_mode_clock,w,c
  3326  000D9A  6E8C               	movwf	3980,c	;volatile
  3327                           
  3328                           ; BSR set to: 1
  3329                           ;main2.c: 758: int bright = 40;
  3330  000D9C  0E00               	movlw	0
  3331  000D9E  6F91               	movwf	(mode_clock@bright+1)& (0+255),b
  3332  000DA0  0E28               	movlw	40
  3333  000DA2  6F90               	movwf	mode_clock@bright& (0+255),b
  3334  000DA4                     l2940:
  3335                           
  3336                           ; BSR set to: 1
  3337  000DA4  0790               	decf	mode_clock@bright& (0+255),f,b
  3338  000DA6  A0D8               	btfss	status,0,c
  3339  000DA8  0791               	decf	(mode_clock@bright+1)& (0+255),f,b
  3340  000DAA  2990               	incf	mode_clock@bright& (0+255),w,b
  3341  000DAC  E1FB               	bnz	l2940
  3342  000DAE  2991               	incf	(mode_clock@bright+1)& (0+255),w,b
  3343  000DB0  A4D8               	btfss	status,2,c
  3344  000DB2  D7F8               	goto	l277
  3345                           
  3346                           ; BSR set to: 1
  3347                           ;main2.c: 760: LATA = 0;
  3348                           
  3349                           ; BSR set to: 1
  3350  000DB4  0E00               	movlw	0
  3351  000DB6  6E89               	movwf	3977,c	;volatile
  3352                           
  3353                           ;main2.c: 761: LATD = 0;
  3354  000DB8  0E00               	movlw	0
  3355  000DBA  6E8C               	movwf	3980,c	;volatile
  3356                           
  3357                           ;main2.c: 762: int dark = 40;
  3358  000DBC  0E00               	movlw	0
  3359  000DBE  6F93               	movwf	(mode_clock@dark+1)& (0+255),b
  3360  000DC0  0E28               	movlw	40
  3361  000DC2  6F92               	movwf	mode_clock@dark& (0+255),b
  3362  000DC4                     l2944:
  3363                           
  3364                           ; BSR set to: 1
  3365  000DC4  0792               	decf	mode_clock@dark& (0+255),f,b
  3366  000DC6  A0D8               	btfss	status,0,c
  3367  000DC8  0793               	decf	(mode_clock@dark+1)& (0+255),f,b
  3368  000DCA  2992               	incf	mode_clock@dark& (0+255),w,b
  3369  000DCC  E1FB               	bnz	l2944
  3370  000DCE  2993               	incf	(mode_clock@dark+1)& (0+255),w,b
  3371  000DD0  A4D8               	btfss	status,2,c
  3372  000DD2  D7F8               	goto	l280
  3373                           
  3374                           ; BSR set to: 1
  3375                           
  3376                           ; BSR set to: 1
  3377  000DD4  4B9E               	infsnz	mode_clock@i& (0+255),f,b
  3378  000DD6  2B9F               	incf	(mode_clock@i+1)& (0+255),f,b
  3379                           
  3380                           ; BSR set to: 1
  3381  000DD8  0E02               	movlw	2
  3382  000DDA  27A8               	addwf	mode_clock@show& (0+255),f,b
  3383  000DDC  0E00               	movlw	0
  3384  000DDE  23A9               	addwfc	(mode_clock@show+1)& (0+255),f,b
  3385  000DE0  D7C0               	goto	l2932
  3386  000DE2                     u3700:
  3387  000DE2                     l2952:
  3388                           
  3389                           ; BSR set to: 1
  3390                           ;main2.c: 764: }
  3391                           ;main2.c: 767: for(int i = 0; i < 4; ++i){
  3392  000DE2  0E00               	movlw	0
  3393  000DE4  6FA7               	movwf	(mode_clock@i_370+1)& (0+255),b
  3394  000DE6  0E00               	movlw	0
  3395  000DE8  6FA6               	movwf	mode_clock@i_370& (0+255),b
  3396                           
  3397                           ; BSR set to: 1
  3398  000DEA  BFA7               	btfsc	(mode_clock@i_370+1)& (0+255),7,b
  3399  000DEC  D006               	goto	l282
  3400  000DEE  51A7               	movf	(mode_clock@i_370+1)& (0+255),w,b
  3401  000DF0  E16C               	bnz	l283
  3402  000DF2  0E04               	movlw	4
  3403  000DF4  5DA6               	subwf	mode_clock@i_370& (0+255),w,b
  3404  000DF6  B0D8               	btfsc	status,0,c
  3405  000DF8  D068               	goto	u3770
  3406  000DFA                     l282:
  3407                           
  3408                           ; BSR set to: 1
  3409                           ;main2.c: 768: show = (int*)MAS[i];
  3410                           
  3411                           ; BSR set to: 1
  3412  000DFA  C1A6  F013         	movff	mode_clock@i_370,___wmul@multiplier
  3413  000DFE  C1A7  F014         	movff	mode_clock@i_370+1,___wmul@multiplier+1
  3414  000E02  0E00               	movlw	0
  3415  000E04  6E16               	movwf	___wmul@multiplicand+1,c
  3416  000E06  0E14               	movlw	20
  3417  000E08  6E15               	movwf	___wmul@multiplicand,c
  3418  000E0A  EC38  F00B         	call	___wmul	;wreg free
  3419  000E0E  0E00               	movlw	low mode_clock@MAS
  3420  000E10  2413               	addwf	?___wmul,w,c
  3421  000E12  0101               	movlb	1	; () banked
  3422  000E14  6FA8               	movwf	mode_clock@show& (0+255),b
  3423  000E16  0E01               	movlw	high mode_clock@MAS
  3424  000E18  2014               	addwfc	?___wmul+1,w,c
  3425  000E1A  6FA9               	movwf	(mode_clock@show+1)& (0+255),b
  3426                           
  3427                           ; BSR set to: 1
  3428                           ;main2.c: 769: for(int j = 0; j < 10; ++j, ++show){
  3429  000E1C  0E00               	movlw	0
  3430  000E1E  6FA1               	movwf	(mode_clock@j+1)& (0+255),b
  3431  000E20  0E00               	movlw	0
  3432  000E22  6FA0               	movwf	mode_clock@j& (0+255),b
  3433  000E24                     l2962:
  3434                           
  3435                           ; BSR set to: 1
  3436  000E24  BFA1               	btfsc	(mode_clock@j+1)& (0+255),7,b
  3437  000E26  D006               	goto	l284
  3438  000E28  51A1               	movf	(mode_clock@j+1)& (0+255),w,b
  3439  000E2A  E13C               	bnz	l2982
  3440  000E2C  0E0A               	movlw	10
  3441  000E2E  5DA0               	subwf	mode_clock@j& (0+255),w,b
  3442  000E30  B0D8               	btfsc	status,0,c
  3443  000E32  D038               	goto	u3750
  3444  000E34                     l284:
  3445                           
  3446                           ; BSR set to: 1
  3447                           ;main2.c: 770: LATA = *show;
  3448                           
  3449                           ; BSR set to: 1
  3450  000E34  C1A8  FFD9         	movff	mode_clock@show,fsr2l
  3451  000E38  C1A9  FFDA         	movff	mode_clock@show+1,fsr2h
  3452  000E3C  50DF               	movf	indf2,w,c
  3453  000E3E  6E89               	movwf	3977,c	;volatile
  3454                           
  3455                           ;main2.c: 771: LATD = *show >> 8;
  3456  000E40  C1A8  FFD9         	movff	mode_clock@show,fsr2l
  3457  000E44  C1A9  FFDA         	movff	mode_clock@show+1,fsr2h
  3458  000E48  CFDE F01D          	movff	postinc2,??_mode_clock
  3459  000E4C  CFDD F01E          	movff	postdec2,??_mode_clock+1
  3460  000E50  C01E  F01D         	movff	??_mode_clock+1,??_mode_clock
  3461  000E54  6A1E               	clrf	??_mode_clock+1,c
  3462  000E56  BE1D               	btfsc	??_mode_clock,7,c
  3463  000E58  681E               	setf	??_mode_clock+1,c
  3464  000E5A  501D               	movf	??_mode_clock,w,c
  3465  000E5C  6E8C               	movwf	3980,c	;volatile
  3466                           
  3467                           ; BSR set to: 1
  3468                           ;main2.c: 772: int bright = 40;
  3469  000E5E  0E00               	movlw	0
  3470  000E60  6F95               	movwf	(mode_clock@bright_372+1)& (0+255),b
  3471  000E62  0E28               	movlw	40
  3472  000E64  6F94               	movwf	mode_clock@bright_372& (0+255),b
  3473  000E66                     l2970:
  3474                           
  3475                           ; BSR set to: 1
  3476  000E66  0794               	decf	mode_clock@bright_372& (0+255),f,b
  3477  000E68  A0D8               	btfss	status,0,c
  3478  000E6A  0795               	decf	(mode_clock@bright_372+1)& (0+255),f,b
  3479  000E6C  2994               	incf	mode_clock@bright_372& (0+255),w,b
  3480  000E6E  E1FB               	bnz	l2970
  3481  000E70  2995               	incf	(mode_clock@bright_372+1)& (0+255),w,b
  3482  000E72  A4D8               	btfss	status,2,c
  3483  000E74  D7F8               	goto	l287
  3484                           
  3485                           ; BSR set to: 1
  3486                           ;main2.c: 774: LATA = 0;
  3487                           
  3488                           ; BSR set to: 1
  3489  000E76  0E00               	movlw	0
  3490  000E78  6E89               	movwf	3977,c	;volatile
  3491                           
  3492                           ;main2.c: 775: LATD = 0;
  3493  000E7A  0E00               	movlw	0
  3494  000E7C  6E8C               	movwf	3980,c	;volatile
  3495                           
  3496                           ;main2.c: 776: int dark = 40;
  3497  000E7E  0E00               	movlw	0
  3498  000E80  6F97               	movwf	(mode_clock@dark_373+1)& (0+255),b
  3499  000E82  0E28               	movlw	40
  3500  000E84  6F96               	movwf	mode_clock@dark_373& (0+255),b
  3501  000E86                     l2974:
  3502                           
  3503                           ; BSR set to: 1
  3504  000E86  0796               	decf	mode_clock@dark_373& (0+255),f,b
  3505  000E88  A0D8               	btfss	status,0,c
  3506  000E8A  0797               	decf	(mode_clock@dark_373+1)& (0+255),f,b
  3507  000E8C  2996               	incf	mode_clock@dark_373& (0+255),w,b
  3508  000E8E  E1FB               	bnz	l2974
  3509  000E90  2997               	incf	(mode_clock@dark_373+1)& (0+255),w,b
  3510  000E92  A4D8               	btfss	status,2,c
  3511  000E94  D7F8               	goto	l290
  3512                           
  3513                           ; BSR set to: 1
  3514                           
  3515                           ; BSR set to: 1
  3516  000E96  4BA0               	infsnz	mode_clock@j& (0+255),f,b
  3517  000E98  2BA1               	incf	(mode_clock@j+1)& (0+255),f,b
  3518                           
  3519                           ; BSR set to: 1
  3520  000E9A  0E02               	movlw	2
  3521  000E9C  27A8               	addwf	mode_clock@show& (0+255),f,b
  3522  000E9E  0E00               	movlw	0
  3523  000EA0  23A9               	addwfc	(mode_clock@show+1)& (0+255),f,b
  3524  000EA2  D7C0               	goto	l2962
  3525  000EA4                     u3750:
  3526  000EA4                     l2982:
  3527                           
  3528                           ; BSR set to: 1
  3529                           ;main2.c: 778: }
  3530                           ;main2.c: 779: delay = 100;
  3531  000EA4  0E00               	movlw	0
  3532  000EA6  6FAB               	movwf	(mode_clock@delay+1)& (0+255),b
  3533  000EA8  0E64               	movlw	100
  3534  000EAA  6FAA               	movwf	mode_clock@delay& (0+255),b
  3535  000EAC                     l2984:
  3536                           
  3537                           ; BSR set to: 1
  3538  000EAC  07AA               	decf	mode_clock@delay& (0+255),f,b
  3539  000EAE  A0D8               	btfss	status,0,c
  3540  000EB0  07AB               	decf	(mode_clock@delay+1)& (0+255),f,b
  3541  000EB2  29AA               	incf	mode_clock@delay& (0+255),w,b
  3542  000EB4  E1FB               	bnz	l2984
  3543  000EB6  29AB               	incf	(mode_clock@delay+1)& (0+255),w,b
  3544  000EB8  A4D8               	btfss	status,2,c
  3545  000EBA  D7F8               	goto	l293
  3546                           
  3547                           ; BSR set to: 1
  3548                           
  3549                           ; BSR set to: 1
  3550  000EBC  4BA6               	infsnz	mode_clock@i_370& (0+255),f,b
  3551  000EBE  2BA7               	incf	(mode_clock@i_370+1)& (0+255),f,b
  3552                           
  3553                           ; BSR set to: 1
  3554  000EC0  BFA7               	btfsc	(mode_clock@i_370+1)& (0+255),7,b
  3555  000EC2  D79B               	goto	l282
  3556  000EC4  51A7               	movf	(mode_clock@i_370+1)& (0+255),w,b
  3557  000EC6  E101               	bnz	l2990
  3558  000EC8  D794               	goto	L7
  3559  000ECA                     u3770:
  3560  000ECA                     l283:
  3561  000ECA                     l2990:
  3562                           
  3563                           ; BSR set to: 1
  3564                           ;main2.c: 781: }
  3565                           ;main2.c: 782: delay = 300;
  3566  000ECA  0E01               	movlw	1
  3567  000ECC  6FAB               	movwf	(mode_clock@delay+1)& (0+255),b
  3568  000ECE  0E2C               	movlw	44
  3569  000ED0  6FAA               	movwf	mode_clock@delay& (0+255),b
  3570  000ED2                     l2992:
  3571                           
  3572                           ; BSR set to: 1
  3573  000ED2  07AA               	decf	mode_clock@delay& (0+255),f,b
  3574  000ED4  A0D8               	btfss	status,0,c
  3575  000ED6  07AB               	decf	(mode_clock@delay+1)& (0+255),f,b
  3576  000ED8  29AA               	incf	mode_clock@delay& (0+255),w,b
  3577  000EDA  E1FB               	bnz	l2992
  3578  000EDC  29AB               	incf	(mode_clock@delay+1)& (0+255),w,b
  3579  000EDE  A4D8               	btfss	status,2,c
  3580  000EE0  D7F8               	goto	l296
  3581                           
  3582                           ; BSR set to: 1
  3583                           ;main2.c: 784: int *face_i = (int*)face;
  3584                           
  3585                           ; BSR set to: 1
  3586  000EE2  0E50               	movlw	low mode_clock@face
  3587  000EE4  6FA2               	movwf	mode_clock@face_i& (0+255),b
  3588  000EE6  0E01               	movlw	high mode_clock@face
  3589  000EE8  6FA3               	movwf	(mode_clock@face_i+1)& (0+255),b
  3590                           
  3591                           ; BSR set to: 1
  3592                           ;main2.c: 785: for(int i = 0; i < 13; ++i, ++face_i){
  3593  000EEA  0E00               	movlw	0
  3594  000EEC  6FA5               	movwf	(mode_clock@i_375+1)& (0+255),b
  3595  000EEE  0E00               	movlw	0
  3596  000EF0  6FA4               	movwf	mode_clock@i_375& (0+255),b
  3597  000EF2                     l2998:
  3598                           
  3599                           ; BSR set to: 1
  3600  000EF2  BFA5               	btfsc	(mode_clock@i_375+1)& (0+255),7,b
  3601  000EF4  D006               	goto	l298
  3602  000EF6  51A5               	movf	(mode_clock@i_375+1)& (0+255),w,b
  3603  000EF8  E13C               	bnz	l3018
  3604  000EFA  0E0D               	movlw	13
  3605  000EFC  5DA4               	subwf	mode_clock@i_375& (0+255),w,b
  3606  000EFE  B0D8               	btfsc	status,0,c
  3607  000F00  D038               	goto	u3820
  3608  000F02                     l298:
  3609                           
  3610                           ; BSR set to: 1
  3611                           ;main2.c: 786: LATA = *face_i;
  3612                           
  3613                           ; BSR set to: 1
  3614  000F02  C1A2  FFD9         	movff	mode_clock@face_i,fsr2l
  3615  000F06  C1A3  FFDA         	movff	mode_clock@face_i+1,fsr2h
  3616  000F0A  50DF               	movf	indf2,w,c
  3617  000F0C  6E89               	movwf	3977,c	;volatile
  3618                           
  3619                           ;main2.c: 787: LATD = *face_i >> 8;
  3620  000F0E  C1A2  FFD9         	movff	mode_clock@face_i,fsr2l
  3621  000F12  C1A3  FFDA         	movff	mode_clock@face_i+1,fsr2h
  3622  000F16  CFDE F01D          	movff	postinc2,??_mode_clock
  3623  000F1A  CFDD F01E          	movff	postdec2,??_mode_clock+1
  3624  000F1E  C01E  F01D         	movff	??_mode_clock+1,??_mode_clock
  3625  000F22  6A1E               	clrf	??_mode_clock+1,c
  3626  000F24  BE1D               	btfsc	??_mode_clock,7,c
  3627  000F26  681E               	setf	??_mode_clock+1,c
  3628  000F28  501D               	movf	??_mode_clock,w,c
  3629  000F2A  6E8C               	movwf	3980,c	;volatile
  3630                           
  3631                           ; BSR set to: 1
  3632                           ;main2.c: 788: int bright = 40;
  3633  000F2C  0E00               	movlw	0
  3634  000F2E  6F99               	movwf	(mode_clock@bright_376+1)& (0+255),b
  3635  000F30  0E28               	movlw	40
  3636  000F32  6F98               	movwf	mode_clock@bright_376& (0+255),b
  3637  000F34                     l3006:
  3638                           
  3639                           ; BSR set to: 1
  3640  000F34  0798               	decf	mode_clock@bright_376& (0+255),f,b
  3641  000F36  A0D8               	btfss	status,0,c
  3642  000F38  0799               	decf	(mode_clock@bright_376+1)& (0+255),f,b
  3643  000F3A  2998               	incf	mode_clock@bright_376& (0+255),w,b
  3644  000F3C  E1FB               	bnz	l3006
  3645  000F3E  2999               	incf	(mode_clock@bright_376+1)& (0+255),w,b
  3646  000F40  A4D8               	btfss	status,2,c
  3647  000F42  D7F8               	goto	l301
  3648                           
  3649                           ; BSR set to: 1
  3650                           ;main2.c: 790: LATA = 0;
  3651                           
  3652                           ; BSR set to: 1
  3653  000F44  0E00               	movlw	0
  3654  000F46  6E89               	movwf	3977,c	;volatile
  3655                           
  3656                           ;main2.c: 791: LATD = 0;
  3657  000F48  0E00               	movlw	0
  3658  000F4A  6E8C               	movwf	3980,c	;volatile
  3659                           
  3660                           ;main2.c: 792: int dark = 40;
  3661  000F4C  0E00               	movlw	0
  3662  000F4E  6F9B               	movwf	(mode_clock@dark_377+1)& (0+255),b
  3663  000F50  0E28               	movlw	40
  3664  000F52  6F9A               	movwf	mode_clock@dark_377& (0+255),b
  3665  000F54                     l3010:
  3666                           
  3667                           ; BSR set to: 1
  3668  000F54  079A               	decf	mode_clock@dark_377& (0+255),f,b
  3669  000F56  A0D8               	btfss	status,0,c
  3670  000F58  079B               	decf	(mode_clock@dark_377+1)& (0+255),f,b
  3671  000F5A  299A               	incf	mode_clock@dark_377& (0+255),w,b
  3672  000F5C  E1FB               	bnz	l3010
  3673  000F5E  299B               	incf	(mode_clock@dark_377+1)& (0+255),w,b
  3674  000F60  A4D8               	btfss	status,2,c
  3675  000F62  D7F8               	goto	l304
  3676                           
  3677                           ; BSR set to: 1
  3678                           
  3679                           ; BSR set to: 1
  3680  000F64  4BA4               	infsnz	mode_clock@i_375& (0+255),f,b
  3681  000F66  2BA5               	incf	(mode_clock@i_375+1)& (0+255),f,b
  3682                           
  3683                           ; BSR set to: 1
  3684  000F68  0E02               	movlw	2
  3685  000F6A  27A2               	addwf	mode_clock@face_i& (0+255),f,b
  3686  000F6C  0E00               	movlw	0
  3687  000F6E  23A3               	addwfc	(mode_clock@face_i+1)& (0+255),f,b
  3688  000F70  D7C0               	goto	l2998
  3689  000F72                     u3820:
  3690  000F72                     l3018:
  3691                           
  3692                           ; BSR set to: 1
  3693                           ;main2.c: 794: }
  3694                           ;main2.c: 796: delay = 860;
  3695  000F72  0E03               	movlw	3
  3696  000F74  6FAB               	movwf	(mode_clock@delay+1)& (0+255),b
  3697  000F76  0E5C               	movlw	92
  3698  000F78  6FAA               	movwf	mode_clock@delay& (0+255),b
  3699  000F7A                     l3020:
  3700                           
  3701                           ; BSR set to: 1
  3702  000F7A  07AA               	decf	mode_clock@delay& (0+255),f,b
  3703  000F7C  A0D8               	btfss	status,0,c
  3704  000F7E  07AB               	decf	(mode_clock@delay+1)& (0+255),f,b
  3705  000F80  29AA               	incf	mode_clock@delay& (0+255),w,b
  3706  000F82  E1FB               	bnz	l3020
  3707  000F84  29AB               	incf	(mode_clock@delay+1)& (0+255),w,b
  3708  000F86  A4D8               	btfss	status,2,c
  3709  000F88  D7F8               	goto	l307
  3710  000F8A                     u3830:
  3711                           
  3712                           ; BSR set to: 1
  3713                           
  3714                           ; BSR set to: 1
  3715                           
  3716                           ; BSR set to: 1
  3717  000F8A  0786               	decf	mode_clock@display_cycle& (0+255),f,b
  3718  000F8C  A0D8               	btfss	status,0,c
  3719  000F8E  0787               	decf	(mode_clock@display_cycle+1)& (0+255),f,b
  3720  000F90  5186               	movf	mode_clock@display_cycle& (0+255),w,b
  3721  000F92  1187               	iorwf	(mode_clock@display_cycle+1)& (0+255),w,b
  3722  000F94  B4D8               	btfsc	status,2,c
  3723  000F96  0012               	return	
  3724  000F98  D619               	goto	l254
  3725  000F9A                     __end_of_mode_clock:
  3726                           	opt stack 0
  3727                           tblptru	equ	0xFF8
  3728                           tblptrh	equ	0xFF7
  3729                           tblptrl	equ	0xFF6
  3730                           tablat	equ	0xFF5
  3731                           intcon	equ	0xFF2
  3732                           postinc0	equ	0xFEE
  3733                           wreg	equ	0xFE8
  3734                           postdec1	equ	0xFE5
  3735                           plusw1	equ	0xFE3
  3736                           fsr1l	equ	0xFE1
  3737                           indf2	equ	0xFDF
  3738                           postinc2	equ	0xFDE
  3739                           postdec2	equ	0xFDD
  3740                           plusw2	equ	0xFDB
  3741                           fsr2h	equ	0xFDA
  3742                           fsr2l	equ	0xFD9
  3743                           status	equ	0xFD8
  3744                           
  3745 ;; *************** function _display_num *****************
  3746 ;; Defined at:
  3747 ;;		line 537 in file "main2.c"
  3748 ;; Parameters:    Size  Location     Type
  3749 ;;  n               2   26[COMRAM] int 
  3750 ;; Auto vars:     Size  Location     Type
  3751 ;;  dark_i          2   52[BANK0 ] int 
  3752 ;;  bright_i        2   50[BANK0 ] int 
  3753 ;;  i               2   56[BANK0 ] int 
  3754 ;;  num            50    0[BANK0 ] unsigned char [5][10]
  3755 ;;  iter            2   54[BANK0 ] PTR unsigned char 
  3756 ;;		 -> display_num@num(50), 
  3757 ;; Return value:  Size  Location     Type
  3758 ;;                  1    wreg      void 
  3759 ;; Registers used:
  3760 ;;		wreg, fsr1l, fsr1h, fsr2l, fsr2h, status,2, status,0, prodl, prodh, cstack
  3761 ;; Tracked objects:
  3762 ;;		On entry : 0/0
  3763 ;;		On exit  : 0/0
  3764 ;;		Unchanged: 0/0
  3765 ;; Data sizes:     COMRAM   BANK0   BANK1   BANK2   BANK3   BANK4   BANK5
  3766 ;;      Params:         2       0       0       0       0       0       0
  3767 ;;      Locals:         0      58       0       0       0       0       0
  3768 ;;      Temps:          0       0       0       0       0       0       0
  3769 ;;      Totals:         2      58       0       0       0       0       0
  3770 ;;Total ram usage:       60 bytes
  3771 ;; Hardware stack levels used:    1
  3772 ;; Hardware stack levels required when called:    3
  3773 ;; This function calls:
  3774 ;;		___wmul
  3775 ;; This function is called by:
  3776 ;;		_mode_clock
  3777 ;; This function uses a non-reentrant model
  3778 ;;
  3779                           
  3780                           	psect	text4
  3781  0013A2                     __ptext4:
  3782                           	opt stack 0
  3783  0013A2                     _display_num:
  3784                           	opt stack 26
  3785                           
  3786                           ;main2.c: 538: unsigned char num[10][5] = {
  3787                           ;main2.c: 539: {
  3788                           ;main2.c: 540: 0b00011111,
  3789                           ;main2.c: 541: 0b00010001,
  3790                           ;main2.c: 542: 0b00010001,
  3791                           ;main2.c: 543: 0b00010001,
  3792                           ;main2.c: 544: 0b00011111
  3793                           ;main2.c: 545: },
  3794                           ;main2.c: 546: {
  3795                           ;main2.c: 547: 0b00000000,
  3796                           ;main2.c: 548: 0b00000000,
  3797                           ;main2.c: 549: 0b00011111,
  3798                           ;main2.c: 550: 0b00000000,
  3799                           ;main2.c: 551: 0b00000000
  3800                           ;main2.c: 552: },
  3801                           ;main2.c: 553: {
  3802                           ;main2.c: 554: 0b00011100,
  3803                           ;main2.c: 555: 0b00010101,
  3804                           ;main2.c: 556: 0b00010101,
  3805                           ;main2.c: 557: 0b00010101,
  3806                           ;main2.c: 558: 0b00010111
  3807                           
  3808                           ; BSR set to: 1
  3809                           ;incstack = 0
  3810  0013A2  EE22  F050         	lfsr	2,display_num@F3084
  3811  0013A6  EE10  F080         	lfsr	1,display_num@num
  3812  0013AA  0E31               	movlw	49
  3813  0013AC                     u2991:
  3814  0013AC  CFDB FFE3          	movff	plusw2,plusw1
  3815  0013B0  06E8               	decf	wreg,f,c
  3816  0013B2  E2FC               	bc	u2991
  3817                           
  3818                           ;main2.c: 610: unsigned char *iter = (unsigned char*)num[n];
  3819  0013B4  C01B  F013         	movff	display_num@n,___wmul@multiplier
  3820  0013B8  C01C  F014         	movff	display_num@n+1,___wmul@multiplier+1
  3821  0013BC  0E00               	movlw	0
  3822  0013BE  6E16               	movwf	___wmul@multiplicand+1,c
  3823  0013C0  0E05               	movlw	5
  3824  0013C2  6E15               	movwf	___wmul@multiplicand,c
  3825  0013C4  EC38  F00B         	call	___wmul	;wreg free
  3826  0013C8  0E80               	movlw	low display_num@num
  3827  0013CA  2413               	addwf	?___wmul,w,c
  3828  0013CC  0100               	movlb	0	; () banked
  3829  0013CE  6FB6               	movwf	display_num@iter& (0+255),b
  3830  0013D0  0E00               	movlw	high display_num@num
  3831  0013D2  2014               	addwfc	?___wmul+1,w,c
  3832  0013D4  6FB7               	movwf	(display_num@iter+1)& (0+255),b
  3833                           
  3834                           ; BSR set to: 0
  3835                           ;main2.c: 611: for(int i = 0; i < 5; ++i, ++iter){
  3836  0013D6  0E00               	movlw	0
  3837  0013D8  6FB9               	movwf	(display_num@i+1)& (0+255),b
  3838  0013DA  0E00               	movlw	0
  3839  0013DC  6FB8               	movwf	display_num@i& (0+255),b
  3840  0013DE                     l2592:
  3841                           
  3842                           ; BSR set to: 0
  3843  0013DE  BFB9               	btfsc	(display_num@i+1)& (0+255),7,b
  3844  0013E0  D006               	goto	l236
  3845  0013E2  51B9               	movf	(display_num@i+1)& (0+255),w,b
  3846  0013E4  E129               	bnz	l244
  3847  0013E6  0E05               	movlw	5
  3848  0013E8  5DB8               	subwf	display_num@i& (0+255),w,b
  3849  0013EA  B0D8               	btfsc	status,0,c
  3850  0013EC  0012               	return	
  3851  0013EE                     l236:
  3852                           
  3853                           ; BSR set to: 0
  3854                           ;main2.c: 612: LATA = *iter;
  3855                           
  3856                           ; BSR set to: 0
  3857  0013EE  C0B6  FFD9         	movff	display_num@iter,fsr2l
  3858  0013F2  C0B7  FFDA         	movff	display_num@iter+1,fsr2h
  3859  0013F6  50DF               	movf	indf2,w,c
  3860  0013F8  6E89               	movwf	3977,c	;volatile
  3861                           
  3862                           ; BSR set to: 0
  3863                           ;main2.c: 613: int bright_i = 40;
  3864  0013FA  0E00               	movlw	0
  3865  0013FC  6FB3               	movwf	(display_num@bright_i+1)& (0+255),b
  3866  0013FE  0E28               	movlw	40
  3867  001400  6FB2               	movwf	display_num@bright_i& (0+255),b
  3868  001402                     l2600:
  3869                           
  3870                           ; BSR set to: 0
  3871  001402  07B2               	decf	display_num@bright_i& (0+255),f,b
  3872  001404  A0D8               	btfss	status,0,c
  3873  001406  07B3               	decf	(display_num@bright_i+1)& (0+255),f,b
  3874  001408  29B2               	incf	display_num@bright_i& (0+255),w,b
  3875  00140A  E1FB               	bnz	l2600
  3876  00140C  29B3               	incf	(display_num@bright_i+1)& (0+255),w,b
  3877  00140E  A4D8               	btfss	status,2,c
  3878  001410  D7F8               	goto	l239
  3879                           
  3880                           ; BSR set to: 0
  3881                           ;main2.c: 615: LATA = 0;
  3882                           
  3883                           ; BSR set to: 0
  3884  001412  0E00               	movlw	0
  3885  001414  6E89               	movwf	3977,c	;volatile
  3886                           
  3887                           ;main2.c: 616: int dark_i = 40;
  3888  001416  0E00               	movlw	0
  3889  001418  6FB5               	movwf	(display_num@dark_i+1)& (0+255),b
  3890  00141A  0E28               	movlw	40
  3891  00141C  6FB4               	movwf	display_num@dark_i& (0+255),b
  3892  00141E                     l2604:
  3893                           
  3894                           ; BSR set to: 0
  3895  00141E  07B4               	decf	display_num@dark_i& (0+255),f,b
  3896  001420  A0D8               	btfss	status,0,c
  3897  001422  07B5               	decf	(display_num@dark_i+1)& (0+255),f,b
  3898  001424  29B4               	incf	display_num@dark_i& (0+255),w,b
  3899  001426  E1FB               	bnz	l2604
  3900  001428  29B5               	incf	(display_num@dark_i+1)& (0+255),w,b
  3901  00142A  A4D8               	btfss	status,2,c
  3902  00142C  D7F8               	goto	l242
  3903                           
  3904                           ; BSR set to: 0
  3905                           
  3906                           ; BSR set to: 0
  3907  00142E  4BB8               	infsnz	display_num@i& (0+255),f,b
  3908  001430  2BB9               	incf	(display_num@i+1)& (0+255),f,b
  3909  001432  4BB6               	infsnz	display_num@iter& (0+255),f,b
  3910  001434  2BB7               	incf	(display_num@iter+1)& (0+255),f,b
  3911  001436  D7D3               	goto	l2592
  3912  001438                     l244:
  3913                           
  3914                           ; BSR set to: 0
  3915  001438  0012               	return		;funcret
  3916  00143A                     __end_of_display_num:
  3917                           	opt stack 0
  3918                           tblptru	equ	0xFF8
  3919                           tblptrh	equ	0xFF7
  3920                           tblptrl	equ	0xFF6
  3921                           tablat	equ	0xFF5
  3922                           intcon	equ	0xFF2
  3923                           postinc0	equ	0xFEE
  3924                           wreg	equ	0xFE8
  3925                           postdec1	equ	0xFE5
  3926                           plusw1	equ	0xFE3
  3927                           fsr1l	equ	0xFE1
  3928                           indf2	equ	0xFDF
  3929                           postinc2	equ	0xFDE
  3930                           postdec2	equ	0xFDD
  3931                           plusw2	equ	0xFDB
  3932                           fsr2h	equ	0xFDA
  3933                           fsr2l	equ	0xFD9
  3934                           status	equ	0xFD8
  3935                           
  3936 ;; *************** function ___wmul *****************
  3937 ;; Defined at:
  3938 ;;		line 15 in file "C:\Program Files (x86)\Microchip\xc8\v1.44\sources\common\Umul16.c"
  3939 ;; Parameters:    Size  Location     Type
  3940 ;;  multiplier      2   18[COMRAM] unsigned int 
  3941 ;;  multiplicand    2   20[COMRAM] unsigned int 
  3942 ;; Auto vars:     Size  Location     Type
  3943 ;;  product         2   22[COMRAM] unsigned int 
  3944 ;; Return value:  Size  Location     Type
  3945 ;;                  2   18[COMRAM] unsigned int 
  3946 ;; Registers used:
  3947 ;;		wreg, status,2, status,0, prodl, prodh
  3948 ;; Tracked objects:
  3949 ;;		On entry : 0/0
  3950 ;;		On exit  : 0/0
  3951 ;;		Unchanged: 0/0
  3952 ;; Data sizes:     COMRAM   BANK0   BANK1   BANK2   BANK3   BANK4   BANK5
  3953 ;;      Params:         4       0       0       0       0       0       0
  3954 ;;      Locals:         2       0       0       0       0       0       0
  3955 ;;      Temps:          0       0       0       0       0       0       0
  3956 ;;      Totals:         6       0       0       0       0       0       0
  3957 ;;Total ram usage:        6 bytes
  3958 ;; Hardware stack levels used:    1
  3959 ;; Hardware stack levels required when called:    2
  3960 ;; This function calls:
  3961 ;;		Nothing
  3962 ;; This function is called by:
  3963 ;;		_mode_walker
  3964 ;;		_display_num
  3965 ;;		_mode_clock
  3966 ;; This function uses a non-reentrant model
  3967 ;;
  3968                           
  3969                           	psect	text5
  3970  001670                     __ptext5:
  3971                           	opt stack 0
  3972  001670                     ___wmul:
  3973                           	opt stack 27
  3974                           
  3975                           ; BSR set to: 0
  3976                           ;incstack = 0
  3977  001670  5013               	movf	___wmul@multiplier,w,c
  3978  001672  0215               	mulwf	___wmul@multiplicand,c
  3979  001674  CFF3 F017          	movff	prodl,___wmul@product
  3980  001678  CFF4 F018          	movff	prodh,___wmul@product+1
  3981  00167C  5013               	movf	___wmul@multiplier,w,c
  3982  00167E  0216               	mulwf	___wmul@multiplicand+1,c
  3983  001680  50F3               	movf	prodl,w,c
  3984  001682  2618               	addwf	___wmul@product+1,f,c
  3985  001684  5014               	movf	___wmul@multiplier+1,w,c
  3986  001686  0215               	mulwf	___wmul@multiplicand,c
  3987  001688  50F3               	movf	prodl,w,c
  3988  00168A  2618               	addwf	___wmul@product+1,f,c
  3989  00168C  C017  F013         	movff	___wmul@product,?___wmul
  3990  001690  C018  F014         	movff	___wmul@product+1,?___wmul+1
  3991  001694  0012               	return	
  3992  001696                     __end_of___wmul:
  3993                           	opt stack 0
  3994                           tblptru	equ	0xFF8
  3995                           tblptrh	equ	0xFF7
  3996                           tblptrl	equ	0xFF6
  3997                           tablat	equ	0xFF5
  3998                           prodh	equ	0xFF4
  3999                           prodl	equ	0xFF3
  4000                           intcon	equ	0xFF2
  4001                           postinc0	equ	0xFEE
  4002                           wreg	equ	0xFE8
  4003                           postdec1	equ	0xFE5
  4004                           plusw1	equ	0xFE3
  4005                           fsr1l	equ	0xFE1
  4006                           indf2	equ	0xFDF
  4007                           postinc2	equ	0xFDE
  4008                           postdec2	equ	0xFDD
  4009                           plusw2	equ	0xFDB
  4010                           fsr2h	equ	0xFDA
  4011                           fsr2l	equ	0xFD9
  4012                           status	equ	0xFD8
  4013                           
  4014 ;; *************** function ___awmod *****************
  4015 ;; Defined at:
  4016 ;;		line 8 in file "C:\Program Files (x86)\Microchip\xc8\v1.44\sources\common\awmod.c"
  4017 ;; Parameters:    Size  Location     Type
  4018 ;;  dividend        2   18[COMRAM] int 
  4019 ;;  divisor         2   20[COMRAM] int 
  4020 ;; Auto vars:     Size  Location     Type
  4021 ;;  sign            1   23[COMRAM] unsigned char 
  4022 ;;  counter         1   22[COMRAM] unsigned char 
  4023 ;; Return value:  Size  Location     Type
  4024 ;;                  2   18[COMRAM] int 
  4025 ;; Registers used:
  4026 ;;		wreg, status,2, status,0
  4027 ;; Tracked objects:
  4028 ;;		On entry : 0/0
  4029 ;;		On exit  : 0/0
  4030 ;;		Unchanged: 0/0
  4031 ;; Data sizes:     COMRAM   BANK0   BANK1   BANK2   BANK3   BANK4   BANK5
  4032 ;;      Params:         4       0       0       0       0       0       0
  4033 ;;      Locals:         2       0       0       0       0       0       0
  4034 ;;      Temps:          0       0       0       0       0       0       0
  4035 ;;      Totals:         6       0       0       0       0       0       0
  4036 ;;Total ram usage:        6 bytes
  4037 ;; Hardware stack levels used:    1
  4038 ;; Hardware stack levels required when called:    2
  4039 ;; This function calls:
  4040 ;;		Nothing
  4041 ;; This function is called by:
  4042 ;;		_mode_walker
  4043 ;;		_mode_clock
  4044 ;; This function uses a non-reentrant model
  4045 ;;
  4046                           
  4047                           	psect	text6
  4048  0014BE                     __ptext6:
  4049                           	opt stack 0
  4050  0014BE                     ___awmod:
  4051                           	opt stack 27
  4052                           
  4053                           ;incstack = 0
  4054  0014BE  0E00               	movlw	0
  4055  0014C0  6E18               	movwf	___awmod@sign,c
  4056  0014C2  AE14               	btfss	___awmod@dividend+1,7,c
  4057  0014C4  D006               	goto	l515
  4058  0014C6  6C13               	negf	___awmod@dividend,c
  4059  0014C8  1E14               	comf	___awmod@dividend+1,f,c
  4060  0014CA  B0D8               	btfsc	status,0,c
  4061  0014CC  2A14               	incf	___awmod@dividend+1,f,c
  4062  0014CE  0E01               	movlw	1
  4063  0014D0  6E18               	movwf	___awmod@sign,c
  4064  0014D2                     l515:
  4065  0014D2  AE16               	btfss	___awmod@divisor+1,7,c
  4066  0014D4  D004               	goto	l516
  4067  0014D6  6C15               	negf	___awmod@divisor,c
  4068  0014D8  1E16               	comf	___awmod@divisor+1,f,c
  4069  0014DA  B0D8               	btfsc	status,0,c
  4070  0014DC  2A16               	incf	___awmod@divisor+1,f,c
  4071  0014DE                     l516:
  4072  0014DE  5015               	movf	___awmod@divisor,w,c
  4073  0014E0  1016               	iorwf	___awmod@divisor+1,w,c
  4074  0014E2  B4D8               	btfsc	status,2,c
  4075  0014E4  D018               	goto	l523
  4076  0014E6  0E01               	movlw	1
  4077  0014E8  6E17               	movwf	___awmod@counter,c
  4078  0014EA  D004               	goto	l518
  4079  0014EC  90D8               	bcf	status,0,c
  4080  0014EE  3615               	rlcf	___awmod@divisor,f,c
  4081  0014F0  3616               	rlcf	___awmod@divisor+1,f,c
  4082  0014F2  2A17               	incf	___awmod@counter,f,c
  4083  0014F4                     l518:
  4084  0014F4  AE16               	btfss	___awmod@divisor+1,7,c
  4085  0014F6  D7FA               	goto	l519
  4086  0014F8                     u1640:
  4087  0014F8  5015               	movf	___awmod@divisor,w,c
  4088  0014FA  5C13               	subwf	___awmod@dividend,w,c
  4089  0014FC  5016               	movf	___awmod@divisor+1,w,c
  4090  0014FE  5814               	subwfb	___awmod@dividend+1,w,c
  4091  001500  A0D8               	btfss	status,0,c
  4092  001502  D004               	goto	l522
  4093  001504  5015               	movf	___awmod@divisor,w,c
  4094  001506  5E13               	subwf	___awmod@dividend,f,c
  4095  001508  5016               	movf	___awmod@divisor+1,w,c
  4096  00150A  5A14               	subwfb	___awmod@dividend+1,f,c
  4097  00150C                     l522:
  4098  00150C  90D8               	bcf	status,0,c
  4099  00150E  3216               	rrcf	___awmod@divisor+1,f,c
  4100  001510  3215               	rrcf	___awmod@divisor,f,c
  4101  001512  2E17               	decfsz	___awmod@counter,f,c
  4102  001514  D7F1               	goto	u1640
  4103  001516                     l523:
  4104  001516  5018               	movf	___awmod@sign,w,c
  4105  001518  B4D8               	btfsc	status,2,c
  4106  00151A  D004               	goto	l524
  4107  00151C  6C13               	negf	___awmod@dividend,c
  4108  00151E  1E14               	comf	___awmod@dividend+1,f,c
  4109  001520  B0D8               	btfsc	status,0,c
  4110  001522  2A14               	incf	___awmod@dividend+1,f,c
  4111  001524                     l524:
  4112  001524  C013  F013         	movff	___awmod@dividend,?___awmod
  4113  001528  C014  F014         	movff	___awmod@dividend+1,?___awmod+1
  4114  00152C  0012               	return	
  4115  00152E                     __end_of___awmod:
  4116                           	opt stack 0
  4117                           tblptru	equ	0xFF8
  4118                           tblptrh	equ	0xFF7
  4119                           tblptrl	equ	0xFF6
  4120                           tablat	equ	0xFF5
  4121                           prodh	equ	0xFF4
  4122                           prodl	equ	0xFF3
  4123                           intcon	equ	0xFF2
  4124                           postinc0	equ	0xFEE
  4125                           wreg	equ	0xFE8
  4126                           postdec1	equ	0xFE5
  4127                           plusw1	equ	0xFE3
  4128                           fsr1l	equ	0xFE1
  4129                           indf2	equ	0xFDF
  4130                           postinc2	equ	0xFDE
  4131                           postdec2	equ	0xFDD
  4132                           plusw2	equ	0xFDB
  4133                           fsr2h	equ	0xFDA
  4134                           fsr2l	equ	0xFD9
  4135                           status	equ	0xFD8
  4136                           
  4137 ;; *************** function ___awdiv *****************
  4138 ;; Defined at:
  4139 ;;		line 8 in file "C:\Program Files (x86)\Microchip\xc8\v1.44\sources\common\awdiv.c"
  4140 ;; Parameters:    Size  Location     Type
  4141 ;;  dividend        2   18[COMRAM] int 
  4142 ;;  divisor         2   20[COMRAM] int 
  4143 ;; Auto vars:     Size  Location     Type
  4144 ;;  quotient        2   24[COMRAM] int 
  4145 ;;  sign            1   23[COMRAM] unsigned char 
  4146 ;;  counter         1   22[COMRAM] unsigned char 
  4147 ;; Return value:  Size  Location     Type
  4148 ;;                  2   18[COMRAM] int 
  4149 ;; Registers used:
  4150 ;;		wreg, status,2, status,0
  4151 ;; Tracked objects:
  4152 ;;		On entry : 0/0
  4153 ;;		On exit  : 0/0
  4154 ;;		Unchanged: 0/0
  4155 ;; Data sizes:     COMRAM   BANK0   BANK1   BANK2   BANK3   BANK4   BANK5
  4156 ;;      Params:         4       0       0       0       0       0       0
  4157 ;;      Locals:         4       0       0       0       0       0       0
  4158 ;;      Temps:          0       0       0       0       0       0       0
  4159 ;;      Totals:         8       0       0       0       0       0       0
  4160 ;;Total ram usage:        8 bytes
  4161 ;; Hardware stack levels used:    1
  4162 ;; Hardware stack levels required when called:    2
  4163 ;; This function calls:
  4164 ;;		Nothing
  4165 ;; This function is called by:
  4166 ;;		_mode_clock
  4167 ;; This function uses a non-reentrant model
  4168 ;;
  4169                           
  4170                           	psect	text7
  4171  00143A                     __ptext7:
  4172                           	opt stack 0
  4173  00143A                     ___awdiv:
  4174                           	opt stack 27
  4175                           
  4176                           ;incstack = 0
  4177  00143A  0E00               	movlw	0
  4178  00143C  6E18               	movwf	___awdiv@sign,c
  4179  00143E  AE16               	btfss	___awdiv@divisor+1,7,c
  4180  001440  D006               	goto	l502
  4181  001442  6C15               	negf	___awdiv@divisor,c
  4182  001444  1E16               	comf	___awdiv@divisor+1,f,c
  4183  001446  B0D8               	btfsc	status,0,c
  4184  001448  2A16               	incf	___awdiv@divisor+1,f,c
  4185  00144A  0E01               	movlw	1
  4186  00144C  6E18               	movwf	___awdiv@sign,c
  4187  00144E                     l502:
  4188  00144E  AE14               	btfss	___awdiv@dividend+1,7,c
  4189  001450  D006               	goto	l503
  4190  001452  6C13               	negf	___awdiv@dividend,c
  4191  001454  1E14               	comf	___awdiv@dividend+1,f,c
  4192  001456  B0D8               	btfsc	status,0,c
  4193  001458  2A14               	incf	___awdiv@dividend+1,f,c
  4194  00145A  0E01               	movlw	1
  4195  00145C  1A18               	xorwf	___awdiv@sign,f,c
  4196  00145E                     l503:
  4197  00145E  0E00               	movlw	0
  4198  001460  6E1A               	movwf	___awdiv@quotient+1,c
  4199  001462  0E00               	movlw	0
  4200  001464  6E19               	movwf	___awdiv@quotient,c
  4201  001466  5015               	movf	___awdiv@divisor,w,c
  4202  001468  1016               	iorwf	___awdiv@divisor+1,w,c
  4203  00146A  B4D8               	btfsc	status,2,c
  4204  00146C  D01C               	goto	l510
  4205  00146E  0E01               	movlw	1
  4206  001470  6E17               	movwf	___awdiv@counter,c
  4207  001472  D004               	goto	l505
  4208  001474  90D8               	bcf	status,0,c
  4209  001476  3615               	rlcf	___awdiv@divisor,f,c
  4210  001478  3616               	rlcf	___awdiv@divisor+1,f,c
  4211  00147A  2A17               	incf	___awdiv@counter,f,c
  4212  00147C                     l505:
  4213  00147C  AE16               	btfss	___awdiv@divisor+1,7,c
  4214  00147E  D7FA               	goto	l506
  4215  001480                     u1580:
  4216  001480  90D8               	bcf	status,0,c
  4217  001482  3619               	rlcf	___awdiv@quotient,f,c
  4218  001484  361A               	rlcf	___awdiv@quotient+1,f,c
  4219  001486  5015               	movf	___awdiv@divisor,w,c
  4220  001488  5C13               	subwf	___awdiv@dividend,w,c
  4221  00148A  5016               	movf	___awdiv@divisor+1,w,c
  4222  00148C  5814               	subwfb	___awdiv@dividend+1,w,c
  4223  00148E  A0D8               	btfss	status,0,c
  4224  001490  D005               	goto	l509
  4225  001492  5015               	movf	___awdiv@divisor,w,c
  4226  001494  5E13               	subwf	___awdiv@dividend,f,c
  4227  001496  5016               	movf	___awdiv@divisor+1,w,c
  4228  001498  5A14               	subwfb	___awdiv@dividend+1,f,c
  4229  00149A  8019               	bsf	___awdiv@quotient,0,c
  4230  00149C                     l509:
  4231  00149C  90D8               	bcf	status,0,c
  4232  00149E  3216               	rrcf	___awdiv@divisor+1,f,c
  4233  0014A0  3215               	rrcf	___awdiv@divisor,f,c
  4234  0014A2  2E17               	decfsz	___awdiv@counter,f,c
  4235  0014A4  D7ED               	goto	u1580
  4236  0014A6                     l510:
  4237  0014A6  5018               	movf	___awdiv@sign,w,c
  4238  0014A8  B4D8               	btfsc	status,2,c
  4239  0014AA  D004               	goto	l511
  4240  0014AC  6C19               	negf	___awdiv@quotient,c
  4241  0014AE  1E1A               	comf	___awdiv@quotient+1,f,c
  4242  0014B0  B0D8               	btfsc	status,0,c
  4243  0014B2  2A1A               	incf	___awdiv@quotient+1,f,c
  4244  0014B4                     l511:
  4245  0014B4  C019  F013         	movff	___awdiv@quotient,?___awdiv
  4246  0014B8  C01A  F014         	movff	___awdiv@quotient+1,?___awdiv+1
  4247  0014BC  0012               	return	
  4248  0014BE                     __end_of___awdiv:
  4249                           	opt stack 0
  4250                           tblptru	equ	0xFF8
  4251                           tblptrh	equ	0xFF7
  4252                           tblptrl	equ	0xFF6
  4253                           tablat	equ	0xFF5
  4254                           prodh	equ	0xFF4
  4255                           prodl	equ	0xFF3
  4256                           intcon	equ	0xFF2
  4257                           postinc0	equ	0xFEE
  4258                           wreg	equ	0xFE8
  4259                           postdec1	equ	0xFE5
  4260                           plusw1	equ	0xFE3
  4261                           fsr1l	equ	0xFE1
  4262                           indf2	equ	0xFDF
  4263                           postinc2	equ	0xFDE
  4264                           postdec2	equ	0xFDD
  4265                           plusw2	equ	0xFDB
  4266                           fsr2h	equ	0xFDA
  4267                           fsr2l	equ	0xFD9
  4268                           status	equ	0xFD8
  4269                           
  4270 ;; *************** function _mode_TransLove *****************
  4271 ;; Defined at:
  4272 ;;		line 303 in file "main2.c"
  4273 ;; Parameters:    Size  Location     Type
  4274 ;;		None
  4275 ;; Auto vars:     Size  Location     Type
  4276 ;;  delay           2   97[BANK0 ] int 
  4277 ;;  dark            2   91[BANK0 ] int 
  4278 ;;  bright          2   89[BANK0 ] int 
  4279 ;;  i               2  101[BANK0 ] int 
  4280 ;;  arrow          32    0[BANK0 ] unsigned int [16]
  4281 ;;  love           10   32[BANK0 ] unsigned char [10]
  4282 ;;  E               5   82[BANK0 ] unsigned char [5]
  4283 ;;  V               5   77[BANK0 ] unsigned char [5]
  4284 ;;  O               5   72[BANK0 ] unsigned char [5]
  4285 ;;  L               5   67[BANK0 ] unsigned char [5]
  4286 ;;  S               5   62[BANK0 ] unsigned char [5]
  4287 ;;  N               5   57[BANK0 ] unsigned char [5]
  4288 ;;  A               5   52[BANK0 ] unsigned char [5]
  4289 ;;  R               5   47[BANK0 ] unsigned char [5]
  4290 ;;  T               5   42[BANK0 ] unsigned char [5]
  4291 ;;  arrow_i         2   99[BANK0 ] int 
  4292 ;;  arrow_speed     2   95[BANK0 ] int 
  4293 ;;  stop_arrow      2   93[BANK0 ] int 
  4294 ;;  cycle           2   87[BANK0 ] int 
  4295 ;; Return value:  Size  Location     Type
  4296 ;;                  1    wreg      void 
  4297 ;; Registers used:
  4298 ;;		wreg, fsr1l, fsr1h, fsr2l, fsr2h, status,2, status,0
  4299 ;; Tracked objects:
  4300 ;;		On entry : 0/0
  4301 ;;		On exit  : 0/0
  4302 ;;		Unchanged: 0/0
  4303 ;; Data sizes:     COMRAM   BANK0   BANK1   BANK2   BANK3   BANK4   BANK5
  4304 ;;      Params:         0       0       0       0       0       0       0
  4305 ;;      Locals:         0     103       0       0       0       0       0
  4306 ;;      Temps:          4       0       0       0       0       0       0
  4307 ;;      Totals:         4     103       0       0       0       0       0
  4308 ;;Total ram usage:      107 bytes
  4309 ;; Hardware stack levels used:    1
  4310 ;; Hardware stack levels required when called:    2
  4311 ;; This function calls:
  4312 ;;		Nothing
  4313 ;; This function is called by:
  4314 ;;		_main
  4315 ;; This function uses a non-reentrant model
  4316 ;;
  4317                           
  4318                           	psect	text8
  4319  000012                     __ptext8:
  4320                           	opt stack 0
  4321  000012                     _mode_TransLove:
  4322                           	opt stack 28
  4323                           
  4324                           ;main2.c: 305: unsigned char love[10] = {
  4325                           ;main2.c: 306: 0b00000000,
  4326                           ;main2.c: 307: 0b00001100,
  4327                           ;main2.c: 308: 0b00011110,
  4328                           ;main2.c: 309: 0b00111110,
  4329                           ;main2.c: 310: 0b01111100,
  4330                           ;main2.c: 311: 0b00111110,
  4331                           ;main2.c: 312: 0b00011110,
  4332                           ;main2.c: 313: 0b00001100,
  4333                           ;main2.c: 314: 0b00000000
  4334                           ;main2.c: 315: };
  4335                           
  4336                           ;incstack = 0
  4337  000012  EE20  F021         	lfsr	2,mode_TransLove@F3051
  4338  000016  EE10  F0A0         	lfsr	1,mode_TransLove@love
  4339  00001A  0E09               	movlw	9
  4340  00001C                     u2201:
  4341  00001C  CFDB FFE3          	movff	plusw2,plusw1
  4342  000020  06E8               	decf	wreg,f,c
  4343  000022  E2FC               	bc	u2201
  4344                           
  4345                           ;main2.c: 316: unsigned int arrow[16] = {
  4346                           ;main2.c: 317: 0b00110010,
  4347                           ;main2.c: 318: 0b00110110,
  4348                           ;main2.c: 319: 0b00011100,
  4349                           ;main2.c: 320: 0b00001000,
  4350                           ;main2.c: 321: 0b00001000,
  4351                           ;main2.c: 322: 0b00001000,
  4352                           ;main2.c: 323: 0b00001000,
  4353                           ;main2.c: 324: 0b00001000,
  4354                           ;main2.c: 325: 0b00001000,
  4355                           ;main2.c: 326: 0b00001000,
  4356                           ;main2.c: 327: 0b00001000,
  4357                           ;main2.c: 328: 0b00001000,
  4358                           ;main2.c: 329: 0b00001000,
  4359                           ;main2.c: 330: 0b00101010,
  4360                           ;main2.c: 331: 0b00011100,
  4361                           ;main2.c: 332: 0b00001000
  4362                           ;main2.c: 333: };
  4363  000024  EE22  F0AC         	lfsr	2,mode_TransLove@F3053
  4364  000028  EE10  F080         	lfsr	1,mode_TransLove@arrow
  4365  00002C  0E1F               	movlw	31
  4366  00002E                     u2211:
  4367  00002E  CFDB FFE3          	movff	plusw2,plusw1
  4368  000032  06E8               	decf	wreg,f,c
  4369  000034  E2FC               	bc	u2211
  4370                           
  4371                           ;main2.c: 335: unsigned char T[5] = {
  4372                           ;main2.c: 336: 0b00011,
  4373                           ;main2.c: 337: 0b00001,
  4374                           ;main2.c: 338: 0b11111,
  4375                           ;main2.c: 339: 0b00001,
  4376                           ;main2.c: 340: 0b00011
  4377                           ;main2.c: 341: };
  4378  000036  EE20  F0FB         	lfsr	2,mode_TransLove@F3055
  4379  00003A  EE10  F0AA         	lfsr	1,mode_TransLove@T
  4380  00003E  0E04               	movlw	4
  4381  000040                     u2221:
  4382  000040  CFDB FFE3          	movff	plusw2,plusw1
  4383  000044  06E8               	decf	wreg,f,c
  4384  000046  E2FC               	bc	u2221
  4385                           
  4386                           ;main2.c: 342: unsigned char R[5] = {
  4387                           ;main2.c: 343: 0b11111,
  4388                           ;main2.c: 344: 0b00101,
  4389                           ;main2.c: 345: 0b00101,
  4390                           ;main2.c: 346: 0b01101,
  4391                           ;main2.c: 347: 0b10010
  4392                           ;main2.c: 348: };
  4393  000048  EE20  F0F6         	lfsr	2,mode_TransLove@F3057
  4394  00004C  EE10  F0AF         	lfsr	1,mode_TransLove@R
  4395  000050  0E04               	movlw	4
  4396  000052                     u2231:
  4397  000052  CFDB FFE3          	movff	plusw2,plusw1
  4398  000056  06E8               	decf	wreg,f,c
  4399  000058  E2FC               	bc	u2231
  4400                           
  4401                           ;main2.c: 349: unsigned char A[5] = {
  4402                           ;main2.c: 350: 0b11100,
  4403                           ;main2.c: 351: 0b01010,
  4404                           ;main2.c: 352: 0b01001,
  4405                           ;main2.c: 353: 0b01010,
  4406                           ;main2.c: 354: 0b11100
  4407                           ;main2.c: 355: };
  4408  00005A  EE20  F0F1         	lfsr	2,mode_TransLove@F3059
  4409  00005E  EE10  F0B4         	lfsr	1,mode_TransLove@A
  4410  000062  0E04               	movlw	4
  4411  000064                     u2241:
  4412  000064  CFDB FFE3          	movff	plusw2,plusw1
  4413  000068  06E8               	decf	wreg,f,c
  4414  00006A  E2FC               	bc	u2241
  4415                           
  4416                           ;main2.c: 356: unsigned char N[5] = {
  4417                           ;main2.c: 357: 0b11111,
  4418                           ;main2.c: 358: 0b00010,
  4419                           ;main2.c: 359: 0b00100,
  4420                           ;main2.c: 360: 0b01000,
  4421                           ;main2.c: 361: 0b11111
  4422                           ;main2.c: 362: };
  4423  00006C  EE20  F0EC         	lfsr	2,mode_TransLove@F3061
  4424  000070  EE10  F0B9         	lfsr	1,mode_TransLove@N
  4425  000074  0E04               	movlw	4
  4426  000076                     u2251:
  4427  000076  CFDB FFE3          	movff	plusw2,plusw1
  4428  00007A  06E8               	decf	wreg,f,c
  4429  00007C  E2FC               	bc	u2251
  4430                           
  4431                           ;main2.c: 363: unsigned char S[5] = {
  4432                           ;main2.c: 364: 0b10010,
  4433                           ;main2.c: 365: 0b10101,
  4434                           ;main2.c: 366: 0b10101,
  4435                           ;main2.c: 367: 0b10101,
  4436                           ;main2.c: 368: 0b01001
  4437                           ;main2.c: 369: };
  4438  00007E  EE20  F0E7         	lfsr	2,mode_TransLove@F3063
  4439  000082  EE10  F0BE         	lfsr	1,mode_TransLove@S
  4440  000086  0E04               	movlw	4
  4441  000088                     u2261:
  4442  000088  CFDB FFE3          	movff	plusw2,plusw1
  4443  00008C  06E8               	decf	wreg,f,c
  4444  00008E  E2FC               	bc	u2261
  4445                           
  4446                           ;main2.c: 370: unsigned char L[5] = {
  4447                           ;main2.c: 371: 0b11111,
  4448                           ;main2.c: 372: 0b10000,
  4449                           ;main2.c: 373: 0b10000,
  4450                           ;main2.c: 374: 0b10000,
  4451                           ;main2.c: 375: 0b10000
  4452                           ;main2.c: 376: };
  4453  000090  EE20  F03A         	lfsr	2,mode_TransLove@F3065
  4454  000094  EE10  F0C3         	lfsr	1,mode_TransLove@L
  4455  000098  0E04               	movlw	4
  4456  00009A                     u2271:
  4457  00009A  CFDB FFE3          	movff	plusw2,plusw1
  4458  00009E  06E8               	decf	wreg,f,c
  4459  0000A0  E2FC               	bc	u2271
  4460                           
  4461                           ;main2.c: 377: unsigned char O[5] = {
  4462                           ;main2.c: 378: 0b01110,
  4463                           ;main2.c: 379: 0b10001,
  4464                           ;main2.c: 380: 0b10001,
  4465                           ;main2.c: 381: 0b10001,
  4466                           ;main2.c: 382: 0b01110
  4467                           ;main2.c: 383: };
  4468  0000A2  EE20  F035         	lfsr	2,mode_TransLove@F3067
  4469  0000A6  EE10  F0C8         	lfsr	1,mode_TransLove@O
  4470  0000AA  0E04               	movlw	4
  4471  0000AC                     u2281:
  4472  0000AC  CFDB FFE3          	movff	plusw2,plusw1
  4473  0000B0  06E8               	decf	wreg,f,c
  4474  0000B2  E2FC               	bc	u2281
  4475                           
  4476                           ;main2.c: 384: unsigned char V[5] = {
  4477                           ;main2.c: 385: 0b00111,
  4478                           ;main2.c: 386: 0b01100,
  4479                           ;main2.c: 387: 0b10000,
  4480                           ;main2.c: 388: 0b01100,
  4481                           ;main2.c: 389: 0b00111
  4482                           ;main2.c: 390: };
  4483  0000B4  EE20  F030         	lfsr	2,mode_TransLove@F3069
  4484  0000B8  EE10  F0CD         	lfsr	1,mode_TransLove@V
  4485  0000BC  0E04               	movlw	4
  4486  0000BE                     u2291:
  4487  0000BE  CFDB FFE3          	movff	plusw2,plusw1
  4488  0000C2  06E8               	decf	wreg,f,c
  4489  0000C4  E2FC               	bc	u2291
  4490                           
  4491                           ;main2.c: 391: unsigned char E[5] = {
  4492                           ;main2.c: 392: 0b11111,
  4493                           ;main2.c: 393: 0b10101,
  4494                           ;main2.c: 394: 0b10101,
  4495                           ;main2.c: 395: 0b10101,
  4496                           ;main2.c: 396: 0b10101
  4497                           ;main2.c: 397: };
  4498  0000C6  EE20  F02B         	lfsr	2,mode_TransLove@F3071
  4499  0000CA  EE10  F0D2         	lfsr	1,mode_TransLove@E
  4500  0000CE  0E04               	movlw	4
  4501  0000D0                     u2301:
  4502  0000D0  CFDB FFE3          	movff	plusw2,plusw1
  4503  0000D4  06E8               	decf	wreg,f,c
  4504  0000D6  E2FC               	bc	u2301
  4505                           
  4506                           ;main2.c: 405: int arrow_speed = 3;
  4507  0000D8  0E00               	movlw	0
  4508  0000DA  0100               	movlb	0	; () banked
  4509  0000DC  6FE0               	movwf	(mode_TransLove@arrow_speed+1)& (0+255),b
  4510  0000DE  0E03               	movlw	3
  4511  0000E0  6FDF               	movwf	mode_TransLove@arrow_speed& (0+255),b
  4512                           
  4513                           ; BSR set to: 0
  4514                           ;main2.c: 406: int stop_arrow = 120;
  4515  0000E2  0E00               	movlw	0
  4516  0000E4  6FDE               	movwf	(mode_TransLove@stop_arrow+1)& (0+255),b
  4517  0000E6  0E78               	movlw	120
  4518  0000E8  6FDD               	movwf	mode_TransLove@stop_arrow& (0+255),b
  4519                           
  4520                           ; BSR set to: 0
  4521                           ;main2.c: 407: int arrow_i = -15;
  4522  0000EA  0EFF               	movlw	255
  4523  0000EC  6FE4               	movwf	(mode_TransLove@arrow_i+1)& (0+255),b
  4524  0000EE  0EF1               	movlw	241
  4525  0000F0  6FE3               	movwf	mode_TransLove@arrow_i& (0+255),b
  4526                           
  4527                           ; BSR set to: 0
  4528                           ;main2.c: 408: int cycle = 666;
  4529  0000F2  0E02               	movlw	2
  4530  0000F4  6FD8               	movwf	(mode_TransLove@cycle+1)& (0+255),b
  4531  0000F6  0E9A               	movlw	154
  4532  0000F8  6FD7               	movwf	mode_TransLove@cycle& (0+255),b
  4533                           
  4534                           ;main2.c: 409: while(cycle--){
  4535  0000FA  D287               	goto	l229
  4536  0000FC                     
  4537                           ; BSR set to: 0
  4538                           ;main2.c: 410: for(int i = 0; i < 99; ++i){
  4539                           
  4540                           ; BSR set to: 0
  4541  0000FC  0E00               	movlw	0
  4542  0000FE  6FE6               	movwf	(mode_TransLove@i+1)& (0+255),b
  4543  000100  0E00               	movlw	0
  4544  000102  6FE5               	movwf	mode_TransLove@i& (0+255),b
  4545                           
  4546                           ; BSR set to: 0
  4547  000104  BFE6               	btfsc	(mode_TransLove@i+1)& (0+255),7,b
  4548  000106  D008               	goto	l192
  4549  000108  51E6               	movf	(mode_TransLove@i+1)& (0+255),w,b
  4550  00010A  E105               	bnz	u2310
  4551  00010C  0E63               	movlw	99
  4552  00010E  5DE5               	subwf	mode_TransLove@i& (0+255),w,b
  4553  000110  B0D8               	btfsc	status,0,c
  4554  000112  D24B               	goto	u2590
  4555  000114  D001               	goto	l192
  4556  000116                     u2310:
  4557                           
  4558                           ; BSR set to: 0
  4559  000116  D249               	goto	u2590
  4560  000118                     l192:
  4561                           
  4562                           ; BSR set to: 0
  4563                           ;main2.c: 411: int delay = 0;
  4564                           
  4565                           ; BSR set to: 0
  4566  000118  0E00               	movlw	0
  4567  00011A  6FE2               	movwf	(mode_TransLove@delay+1)& (0+255),b
  4568  00011C  0E00               	movlw	0
  4569  00011E  6FE1               	movwf	mode_TransLove@delay& (0+255),b
  4570                           
  4571                           ;main2.c: 412: switch(i){
  4572  000120  D02D               	goto	l194
  4573  000122                     
  4574                           ; BSR set to: 0
  4575                           
  4576                           ; BSR set to: 0
  4577  000122  0E04               	movlw	4
  4578  000124  27E1               	addwf	mode_TransLove@delay& (0+255),f,b
  4579  000126  0E00               	movlw	0
  4580  000128  23E2               	addwfc	(mode_TransLove@delay+1)& (0+255),f,b
  4581  00012A                     l196:
  4582                           
  4583                           ; BSR set to: 0
  4584  00012A  0E04               	movlw	4
  4585  00012C  27E1               	addwf	mode_TransLove@delay& (0+255),f,b
  4586  00012E  0E00               	movlw	0
  4587  000130  23E2               	addwfc	(mode_TransLove@delay+1)& (0+255),f,b
  4588  000132                     l197:
  4589                           
  4590                           ; BSR set to: 0
  4591  000132  0E04               	movlw	4
  4592  000134  27E1               	addwf	mode_TransLove@delay& (0+255),f,b
  4593  000136  0E00               	movlw	0
  4594  000138  23E2               	addwfc	(mode_TransLove@delay+1)& (0+255),f,b
  4595  00013A                     l198:
  4596                           
  4597                           ; BSR set to: 0
  4598  00013A  0E04               	movlw	4
  4599  00013C  27E1               	addwf	mode_TransLove@delay& (0+255),f,b
  4600  00013E  0E00               	movlw	0
  4601  000140  23E2               	addwfc	(mode_TransLove@delay+1)& (0+255),f,b
  4602  000142                     l199:
  4603                           
  4604                           ; BSR set to: 0
  4605  000142  0E04               	movlw	4
  4606  000144  27E1               	addwf	mode_TransLove@delay& (0+255),f,b
  4607  000146  0E00               	movlw	0
  4608  000148  23E2               	addwfc	(mode_TransLove@delay+1)& (0+255),f,b
  4609  00014A                     l200:
  4610                           
  4611                           ; BSR set to: 0
  4612  00014A  0E04               	movlw	4
  4613  00014C  27E1               	addwf	mode_TransLove@delay& (0+255),f,b
  4614  00014E  0E00               	movlw	0
  4615  000150  23E2               	addwfc	(mode_TransLove@delay+1)& (0+255),f,b
  4616  000152                     l201:
  4617                           
  4618                           ; BSR set to: 0
  4619  000152  0E04               	movlw	4
  4620  000154  27E1               	addwf	mode_TransLove@delay& (0+255),f,b
  4621  000156  0E00               	movlw	0
  4622  000158  23E2               	addwfc	(mode_TransLove@delay+1)& (0+255),f,b
  4623  00015A                     l202:
  4624                           
  4625                           ; BSR set to: 0
  4626  00015A  0E04               	movlw	4
  4627  00015C  27E1               	addwf	mode_TransLove@delay& (0+255),f,b
  4628  00015E  0E00               	movlw	0
  4629  000160  23E2               	addwfc	(mode_TransLove@delay+1)& (0+255),f,b
  4630  000162                     l203:
  4631                           
  4632                           ; BSR set to: 0
  4633  000162  0E04               	movlw	4
  4634  000164  27E1               	addwf	mode_TransLove@delay& (0+255),f,b
  4635  000166  0E00               	movlw	0
  4636  000168  23E2               	addwfc	(mode_TransLove@delay+1)& (0+255),f,b
  4637  00016A                     l2162:
  4638                           
  4639                           ; BSR set to: 0
  4640  00016A  07E1               	decf	mode_TransLove@delay& (0+255),f,b
  4641  00016C  A0D8               	btfss	status,0,c
  4642  00016E  07E2               	decf	(mode_TransLove@delay+1)& (0+255),f,b
  4643  000170  29E1               	incf	mode_TransLove@delay& (0+255),w,b
  4644  000172  E1FB               	bnz	l2162
  4645  000174  29E2               	incf	(mode_TransLove@delay+1)& (0+255),w,b
  4646  000176  B4D8               	btfsc	status,2,c
  4647  000178  D025               	goto	l207
  4648  00017A  D7F7               	goto	l205
  4649  00017C                     l194:
  4650                           
  4651                           ; BSR set to: 0
  4652                           
  4653                           ; BSR set to: 0
  4654  00017C  C0E5  F013         	movff	mode_TransLove@i,??_mode_TransLove
  4655  000180  C0E6  F014         	movff	mode_TransLove@i+1,??_mode_TransLove+1
  4656                           
  4657                           ; Switch on 2 bytes has been partitioned into a top level switch of size 1, and 1 sub-sw
      +                          itches
  4658                           ; Switch size 1, requested type "space"
  4659                           ; Number of cases is 1, Range of values is 0 to 0
  4660                           ; switch strategies available:
  4661                           ; Name         Instructions Cycles
  4662                           ; simple_byte            4     3 (average)
  4663                           ;	Chosen strategy is simple_byte
  4664  000184  5014               	movf	??_mode_TransLove+1,w,c
  4665  000186  0A00               	xorlw	0	; case 0
  4666  000188  A4D8               	btfss	status,2,c
  4667  00018A  D01C               	goto	l207
  4668                           
  4669                           ; BSR set to: 0
  4670                           ; Switch size 1, requested type "space"
  4671                           ; Number of cases is 9, Range of values is 10 to 58
  4672                           ; switch strategies available:
  4673                           ; Name         Instructions Cycles
  4674                           ; simple_byte           28    15 (average)
  4675                           ;	Chosen strategy is simple_byte
  4676  00018C  5013               	movf	??_mode_TransLove,w,c
  4677  00018E  0A0A               	xorlw	10	; case 10
  4678  000190  B4D8               	btfsc	status,2,c
  4679  000192  D7C7               	goto	l195
  4680  000194  0A1A               	xorlw	26	; case 16
  4681  000196  B4D8               	btfsc	status,2,c
  4682  000198  D7C8               	goto	l196
  4683  00019A  0A06               	xorlw	6	; case 22
  4684  00019C  B4D8               	btfsc	status,2,c
  4685  00019E  D7C9               	goto	l197
  4686  0001A0  0A0A               	xorlw	10	; case 28
  4687  0001A2  B4D8               	btfsc	status,2,c
  4688  0001A4  D7CA               	goto	l198
  4689  0001A6  0A3E               	xorlw	62	; case 34
  4690  0001A8  B4D8               	btfsc	status,2,c
  4691  0001AA  D7CB               	goto	l199
  4692  0001AC  0A0A               	xorlw	10	; case 40
  4693  0001AE  B4D8               	btfsc	status,2,c
  4694  0001B0  D7CC               	goto	l200
  4695  0001B2  0A06               	xorlw	6	; case 46
  4696  0001B4  B4D8               	btfsc	status,2,c
  4697  0001B6  D7CD               	goto	l201
  4698  0001B8  0A1A               	xorlw	26	; case 52
  4699  0001BA  B4D8               	btfsc	status,2,c
  4700  0001BC  D7CE               	goto	l202
  4701  0001BE  0A0E               	xorlw	14	; case 58
  4702  0001C0  B4D8               	btfsc	status,2,c
  4703  0001C2  D7CF               	goto	l203
  4704  0001C4                     l207:
  4705                           
  4706                           ; BSR set to: 0
  4707                           ;main2.c: 424: if(i < 20 && i >= 15)
  4708                           
  4709                           ; BSR set to: 0
  4710  0001C4  BFE6               	btfsc	(mode_TransLove@i+1)& (0+255),7,b
  4711  0001C6  D006               	goto	u2330
  4712  0001C8  51E6               	movf	(mode_TransLove@i+1)& (0+255),w,b
  4713  0001CA  E120               	bnz	l2172
  4714  0001CC  0E14               	movlw	20
  4715  0001CE  5DE5               	subwf	mode_TransLove@i& (0+255),w,b
  4716  0001D0  B0D8               	btfsc	status,0,c
  4717  0001D2  D01C               	goto	l208
  4718  0001D4                     u2330:
  4719                           
  4720                           ; BSR set to: 0
  4721  0001D4  BFE6               	btfsc	(mode_TransLove@i+1)& (0+255),7,b
  4722  0001D6  D01A               	goto	l208
  4723  0001D8  51E6               	movf	(mode_TransLove@i+1)& (0+255),w,b
  4724  0001DA  E104               	bnz	u2340
  4725  0001DC  0E0F               	movlw	15
  4726  0001DE  5DE5               	subwf	mode_TransLove@i& (0+255),w,b
  4727  0001E0  A0D8               	btfss	status,0,c
  4728  0001E2  D014               	goto	l208
  4729  0001E4                     u2340:
  4730                           
  4731                           ; BSR set to: 0
  4732                           ;main2.c: 425: LATA |= T[i - 15];
  4733  0001E4  0EF1               	movlw	241
  4734  0001E6  6E13               	movwf	??_mode_TransLove& (0+255),c
  4735  0001E8  0EFF               	movlw	255
  4736  0001EA  6E14               	movwf	(??_mode_TransLove+1)& (0+255),c
  4737  0001EC  C0E5  F015         	movff	mode_TransLove@i,??_mode_TransLove+2
  4738  0001F0  C0E6  F016         	movff	mode_TransLove@i+1,??_mode_TransLove+3
  4739  0001F4  5013               	movf	??_mode_TransLove,w,c
  4740  0001F6  2615               	addwf	??_mode_TransLove+2,f,c
  4741  0001F8  5014               	movf	??_mode_TransLove+1,w,c
  4742  0001FA  2216               	addwfc	??_mode_TransLove+3,f,c
  4743  0001FC  0EAA               	movlw	low mode_TransLove@T
  4744  0001FE  2415               	addwf	??_mode_TransLove+2,w,c
  4745  000200  6ED9               	movwf	fsr2l,c
  4746  000202  0E00               	movlw	high mode_TransLove@T
  4747  000204  2016               	addwfc	??_mode_TransLove+3,w,c
  4748  000206  6EDA               	movwf	fsr2h,c
  4749  000208  50DF               	movf	indf2,w,c
  4750  00020A  1289               	iorwf	3977,f,c	;volatile
  4751  00020C                     l208:
  4752  00020C                     l2172:
  4753                           
  4754                           ; BSR set to: 0
  4755                           ;main2.c: 426: if(i < 26 && i >= 21)
  4756  00020C  BFE6               	btfsc	(mode_TransLove@i+1)& (0+255),7,b
  4757  00020E  D006               	goto	u2350
  4758  000210  51E6               	movf	(mode_TransLove@i+1)& (0+255),w,b
  4759  000212  E120               	bnz	l2178
  4760  000214  0E1A               	movlw	26
  4761  000216  5DE5               	subwf	mode_TransLove@i& (0+255),w,b
  4762  000218  B0D8               	btfsc	status,0,c
  4763  00021A  D01C               	goto	l209
  4764  00021C                     u2350:
  4765                           
  4766                           ; BSR set to: 0
  4767  00021C  BFE6               	btfsc	(mode_TransLove@i+1)& (0+255),7,b
  4768  00021E  D01A               	goto	l209
  4769  000220  51E6               	movf	(mode_TransLove@i+1)& (0+255),w,b
  4770  000222  E104               	bnz	u2360
  4771  000224  0E15               	movlw	21
  4772  000226  5DE5               	subwf	mode_TransLove@i& (0+255),w,b
  4773  000228  A0D8               	btfss	status,0,c
  4774  00022A  D014               	goto	l209
  4775  00022C                     u2360:
  4776                           
  4777                           ; BSR set to: 0
  4778                           ;main2.c: 427: LATA |= R[i - 21];
  4779  00022C  0EEB               	movlw	235
  4780  00022E  6E13               	movwf	??_mode_TransLove& (0+255),c
  4781  000230  0EFF               	movlw	255
  4782  000232  6E14               	movwf	(??_mode_TransLove+1)& (0+255),c
  4783  000234  C0E5  F015         	movff	mode_TransLove@i,??_mode_TransLove+2
  4784  000238  C0E6  F016         	movff	mode_TransLove@i+1,??_mode_TransLove+3
  4785  00023C  5013               	movf	??_mode_TransLove,w,c
  4786  00023E  2615               	addwf	??_mode_TransLove+2,f,c
  4787  000240  5014               	movf	??_mode_TransLove+1,w,c
  4788  000242  2216               	addwfc	??_mode_TransLove+3,f,c
  4789  000244  0EAF               	movlw	low mode_TransLove@R
  4790  000246  2415               	addwf	??_mode_TransLove+2,w,c
  4791  000248  6ED9               	movwf	fsr2l,c
  4792  00024A  0E00               	movlw	high mode_TransLove@R
  4793  00024C  2016               	addwfc	??_mode_TransLove+3,w,c
  4794  00024E  6EDA               	movwf	fsr2h,c
  4795  000250  50DF               	movf	indf2,w,c
  4796  000252  1289               	iorwf	3977,f,c	;volatile
  4797  000254                     l209:
  4798  000254                     l2178:
  4799                           
  4800                           ; BSR set to: 0
  4801                           ;main2.c: 428: if(i < 32 && i >= 27)
  4802  000254  BFE6               	btfsc	(mode_TransLove@i+1)& (0+255),7,b
  4803  000256  D006               	goto	u2370
  4804  000258  51E6               	movf	(mode_TransLove@i+1)& (0+255),w,b
  4805  00025A  E120               	bnz	l2184
  4806  00025C  0E20               	movlw	32
  4807  00025E  5DE5               	subwf	mode_TransLove@i& (0+255),w,b
  4808  000260  B0D8               	btfsc	status,0,c
  4809  000262  D01C               	goto	l210
  4810  000264                     u2370:
  4811                           
  4812                           ; BSR set to: 0
  4813  000264  BFE6               	btfsc	(mode_TransLove@i+1)& (0+255),7,b
  4814  000266  D01A               	goto	l210
  4815  000268  51E6               	movf	(mode_TransLove@i+1)& (0+255),w,b
  4816  00026A  E104               	bnz	u2380
  4817  00026C  0E1B               	movlw	27
  4818  00026E  5DE5               	subwf	mode_TransLove@i& (0+255),w,b
  4819  000270  A0D8               	btfss	status,0,c
  4820  000272  D014               	goto	l210
  4821  000274                     u2380:
  4822                           
  4823                           ; BSR set to: 0
  4824                           ;main2.c: 429: LATA |= A[i - 27];
  4825  000274  0EE5               	movlw	229
  4826  000276  6E13               	movwf	??_mode_TransLove& (0+255),c
  4827  000278  0EFF               	movlw	255
  4828  00027A  6E14               	movwf	(??_mode_TransLove+1)& (0+255),c
  4829  00027C  C0E5  F015         	movff	mode_TransLove@i,??_mode_TransLove+2
  4830  000280  C0E6  F016         	movff	mode_TransLove@i+1,??_mode_TransLove+3
  4831  000284  5013               	movf	??_mode_TransLove,w,c
  4832  000286  2615               	addwf	??_mode_TransLove+2,f,c
  4833  000288  5014               	movf	??_mode_TransLove+1,w,c
  4834  00028A  2216               	addwfc	??_mode_TransLove+3,f,c
  4835  00028C  0EB4               	movlw	low mode_TransLove@A
  4836  00028E  2415               	addwf	??_mode_TransLove+2,w,c
  4837  000290  6ED9               	movwf	fsr2l,c
  4838  000292  0E00               	movlw	high mode_TransLove@A
  4839  000294  2016               	addwfc	??_mode_TransLove+3,w,c
  4840  000296  6EDA               	movwf	fsr2h,c
  4841  000298  50DF               	movf	indf2,w,c
  4842  00029A  1289               	iorwf	3977,f,c	;volatile
  4843  00029C                     l210:
  4844  00029C                     l2184:
  4845                           
  4846                           ; BSR set to: 0
  4847                           ;main2.c: 430: if(i >= 33 && i < 38)
  4848  00029C  BFE6               	btfsc	(mode_TransLove@i+1)& (0+255),7,b
  4849  00029E  D022               	goto	l211
  4850  0002A0  51E6               	movf	(mode_TransLove@i+1)& (0+255),w,b
  4851  0002A2  E104               	bnz	u2390
  4852  0002A4  0E21               	movlw	33
  4853  0002A6  5DE5               	subwf	mode_TransLove@i& (0+255),w,b
  4854  0002A8  A0D8               	btfss	status,0,c
  4855  0002AA  D01C               	goto	l211
  4856  0002AC                     u2390:
  4857                           
  4858                           ; BSR set to: 0
  4859  0002AC  BFE6               	btfsc	(mode_TransLove@i+1)& (0+255),7,b
  4860  0002AE  D006               	goto	u2400
  4861  0002B0  51E6               	movf	(mode_TransLove@i+1)& (0+255),w,b
  4862  0002B2  E118               	bnz	l2190
  4863  0002B4  0E26               	movlw	38
  4864  0002B6  5DE5               	subwf	mode_TransLove@i& (0+255),w,b
  4865  0002B8  B0D8               	btfsc	status,0,c
  4866  0002BA  D014               	goto	l211
  4867  0002BC                     u2400:
  4868                           
  4869                           ; BSR set to: 0
  4870                           ;main2.c: 431: LATA |= N[i - 33];
  4871  0002BC  0EDF               	movlw	223
  4872  0002BE  6E13               	movwf	??_mode_TransLove& (0+255),c
  4873  0002C0  0EFF               	movlw	255
  4874  0002C2  6E14               	movwf	(??_mode_TransLove+1)& (0+255),c
  4875  0002C4  C0E5  F015         	movff	mode_TransLove@i,??_mode_TransLove+2
  4876  0002C8  C0E6  F016         	movff	mode_TransLove@i+1,??_mode_TransLove+3
  4877  0002CC  5013               	movf	??_mode_TransLove,w,c
  4878  0002CE  2615               	addwf	??_mode_TransLove+2,f,c
  4879  0002D0  5014               	movf	??_mode_TransLove+1,w,c
  4880  0002D2  2216               	addwfc	??_mode_TransLove+3,f,c
  4881  0002D4  0EB9               	movlw	low mode_TransLove@N
  4882  0002D6  2415               	addwf	??_mode_TransLove+2,w,c
  4883  0002D8  6ED9               	movwf	fsr2l,c
  4884  0002DA  0E00               	movlw	high mode_TransLove@N
  4885  0002DC  2016               	addwfc	??_mode_TransLove+3,w,c
  4886  0002DE  6EDA               	movwf	fsr2h,c
  4887  0002E0  50DF               	movf	indf2,w,c
  4888  0002E2  1289               	iorwf	3977,f,c	;volatile
  4889  0002E4                     l211:
  4890  0002E4                     l2190:
  4891                           
  4892                           ; BSR set to: 0
  4893                           ;main2.c: 432: if(i < 44 && i >= 39)
  4894  0002E4  BFE6               	btfsc	(mode_TransLove@i+1)& (0+255),7,b
  4895  0002E6  D006               	goto	u2410
  4896  0002E8  51E6               	movf	(mode_TransLove@i+1)& (0+255),w,b
  4897  0002EA  E120               	bnz	l2196
  4898  0002EC  0E2C               	movlw	44
  4899  0002EE  5DE5               	subwf	mode_TransLove@i& (0+255),w,b
  4900  0002F0  B0D8               	btfsc	status,0,c
  4901  0002F2  D01C               	goto	l212
  4902  0002F4                     u2410:
  4903                           
  4904                           ; BSR set to: 0
  4905  0002F4  BFE6               	btfsc	(mode_TransLove@i+1)& (0+255),7,b
  4906  0002F6  D01A               	goto	l212
  4907  0002F8  51E6               	movf	(mode_TransLove@i+1)& (0+255),w,b
  4908  0002FA  E104               	bnz	u2420
  4909  0002FC  0E27               	movlw	39
  4910  0002FE  5DE5               	subwf	mode_TransLove@i& (0+255),w,b
  4911  000300  A0D8               	btfss	status,0,c
  4912  000302  D014               	goto	l212
  4913  000304                     u2420:
  4914                           
  4915                           ; BSR set to: 0
  4916                           ;main2.c: 433: LATA |= S[i - 39];
  4917  000304  0ED9               	movlw	217
  4918  000306  6E13               	movwf	??_mode_TransLove& (0+255),c
  4919  000308  0EFF               	movlw	255
  4920  00030A  6E14               	movwf	(??_mode_TransLove+1)& (0+255),c
  4921  00030C  C0E5  F015         	movff	mode_TransLove@i,??_mode_TransLove+2
  4922  000310  C0E6  F016         	movff	mode_TransLove@i+1,??_mode_TransLove+3
  4923  000314  5013               	movf	??_mode_TransLove,w,c
  4924  000316  2615               	addwf	??_mode_TransLove+2,f,c
  4925  000318  5014               	movf	??_mode_TransLove+1,w,c
  4926  00031A  2216               	addwfc	??_mode_TransLove+3,f,c
  4927  00031C  0EBE               	movlw	low mode_TransLove@S
  4928  00031E  2415               	addwf	??_mode_TransLove+2,w,c
  4929  000320  6ED9               	movwf	fsr2l,c
  4930  000322  0E00               	movlw	high mode_TransLove@S
  4931  000324  2016               	addwfc	??_mode_TransLove+3,w,c
  4932  000326  6EDA               	movwf	fsr2h,c
  4933  000328  50DF               	movf	indf2,w,c
  4934  00032A  1289               	iorwf	3977,f,c	;volatile
  4935  00032C                     l212:
  4936  00032C                     l2196:
  4937                           
  4938                           ; BSR set to: 0
  4939                           ;main2.c: 434: if(i >= 45 && i < 50)
  4940  00032C  BFE6               	btfsc	(mode_TransLove@i+1)& (0+255),7,b
  4941  00032E  D022               	goto	l213
  4942  000330  51E6               	movf	(mode_TransLove@i+1)& (0+255),w,b
  4943  000332  E104               	bnz	u2430
  4944  000334  0E2D               	movlw	45
  4945  000336  5DE5               	subwf	mode_TransLove@i& (0+255),w,b
  4946  000338  A0D8               	btfss	status,0,c
  4947  00033A  D01C               	goto	l213
  4948  00033C                     u2430:
  4949                           
  4950                           ; BSR set to: 0
  4951  00033C  BFE6               	btfsc	(mode_TransLove@i+1)& (0+255),7,b
  4952  00033E  D006               	goto	u2440
  4953  000340  51E6               	movf	(mode_TransLove@i+1)& (0+255),w,b
  4954  000342  E118               	bnz	l2202
  4955  000344  0E32               	movlw	50
  4956  000346  5DE5               	subwf	mode_TransLove@i& (0+255),w,b
  4957  000348  B0D8               	btfsc	status,0,c
  4958  00034A  D014               	goto	l213
  4959  00034C                     u2440:
  4960                           
  4961                           ; BSR set to: 0
  4962                           ;main2.c: 435: LATA |= L[i - 45];
  4963  00034C  0ED3               	movlw	211
  4964  00034E  6E13               	movwf	??_mode_TransLove& (0+255),c
  4965  000350  0EFF               	movlw	255
  4966  000352  6E14               	movwf	(??_mode_TransLove+1)& (0+255),c
  4967  000354  C0E5  F015         	movff	mode_TransLove@i,??_mode_TransLove+2
  4968  000358  C0E6  F016         	movff	mode_TransLove@i+1,??_mode_TransLove+3
  4969  00035C  5013               	movf	??_mode_TransLove,w,c
  4970  00035E  2615               	addwf	??_mode_TransLove+2,f,c
  4971  000360  5014               	movf	??_mode_TransLove+1,w,c
  4972  000362  2216               	addwfc	??_mode_TransLove+3,f,c
  4973  000364  0EC3               	movlw	low mode_TransLove@L
  4974  000366  2415               	addwf	??_mode_TransLove+2,w,c
  4975  000368  6ED9               	movwf	fsr2l,c
  4976  00036A  0E00               	movlw	high mode_TransLove@L
  4977  00036C  2016               	addwfc	??_mode_TransLove+3,w,c
  4978  00036E  6EDA               	movwf	fsr2h,c
  4979  000370  50DF               	movf	indf2,w,c
  4980  000372  1289               	iorwf	3977,f,c	;volatile
  4981  000374                     l213:
  4982  000374                     l2202:
  4983                           
  4984                           ; BSR set to: 0
  4985                           ;main2.c: 436: if(i >= 51 && i < 56)
  4986  000374  BFE6               	btfsc	(mode_TransLove@i+1)& (0+255),7,b
  4987  000376  D022               	goto	l214
  4988  000378  51E6               	movf	(mode_TransLove@i+1)& (0+255),w,b
  4989  00037A  E104               	bnz	u2450
  4990  00037C  0E33               	movlw	51
  4991  00037E  5DE5               	subwf	mode_TransLove@i& (0+255),w,b
  4992  000380  A0D8               	btfss	status,0,c
  4993  000382  D01C               	goto	l214
  4994  000384                     u2450:
  4995                           
  4996                           ; BSR set to: 0
  4997  000384  BFE6               	btfsc	(mode_TransLove@i+1)& (0+255),7,b
  4998  000386  D006               	goto	u2460
  4999  000388  51E6               	movf	(mode_TransLove@i+1)& (0+255),w,b
  5000  00038A  E118               	bnz	l2208
  5001  00038C  0E38               	movlw	56
  5002  00038E  5DE5               	subwf	mode_TransLove@i& (0+255),w,b
  5003  000390  B0D8               	btfsc	status,0,c
  5004  000392  D014               	goto	l214
  5005  000394                     u2460:
  5006                           
  5007                           ; BSR set to: 0
  5008                           ;main2.c: 437: LATA |= O[i - 51];
  5009  000394  0ECD               	movlw	205
  5010  000396  6E13               	movwf	??_mode_TransLove& (0+255),c
  5011  000398  0EFF               	movlw	255
  5012  00039A  6E14               	movwf	(??_mode_TransLove+1)& (0+255),c
  5013  00039C  C0E5  F015         	movff	mode_TransLove@i,??_mode_TransLove+2
  5014  0003A0  C0E6  F016         	movff	mode_TransLove@i+1,??_mode_TransLove+3
  5015  0003A4  5013               	movf	??_mode_TransLove,w,c
  5016  0003A6  2615               	addwf	??_mode_TransLove+2,f,c
  5017  0003A8  5014               	movf	??_mode_TransLove+1,w,c
  5018  0003AA  2216               	addwfc	??_mode_TransLove+3,f,c
  5019  0003AC  0EC8               	movlw	low mode_TransLove@O
  5020  0003AE  2415               	addwf	??_mode_TransLove+2,w,c
  5021  0003B0  6ED9               	movwf	fsr2l,c
  5022  0003B2  0E00               	movlw	high mode_TransLove@O
  5023  0003B4  2016               	addwfc	??_mode_TransLove+3,w,c
  5024  0003B6  6EDA               	movwf	fsr2h,c
  5025  0003B8  50DF               	movf	indf2,w,c
  5026  0003BA  1289               	iorwf	3977,f,c	;volatile
  5027  0003BC                     l214:
  5028  0003BC                     l2208:
  5029                           
  5030                           ; BSR set to: 0
  5031                           ;main2.c: 438: if(i >= 57 && i < 62)
  5032  0003BC  BFE6               	btfsc	(mode_TransLove@i+1)& (0+255),7,b
  5033  0003BE  D022               	goto	l215
  5034  0003C0  51E6               	movf	(mode_TransLove@i+1)& (0+255),w,b
  5035  0003C2  E104               	bnz	u2470
  5036  0003C4  0E39               	movlw	57
  5037  0003C6  5DE5               	subwf	mode_TransLove@i& (0+255),w,b
  5038  0003C8  A0D8               	btfss	status,0,c
  5039  0003CA  D01C               	goto	l215
  5040  0003CC                     u2470:
  5041                           
  5042                           ; BSR set to: 0
  5043  0003CC  BFE6               	btfsc	(mode_TransLove@i+1)& (0+255),7,b
  5044  0003CE  D006               	goto	u2480
  5045  0003D0  51E6               	movf	(mode_TransLove@i+1)& (0+255),w,b
  5046  0003D2  E118               	bnz	l2214
  5047  0003D4  0E3E               	movlw	62
  5048  0003D6  5DE5               	subwf	mode_TransLove@i& (0+255),w,b
  5049  0003D8  B0D8               	btfsc	status,0,c
  5050  0003DA  D014               	goto	l215
  5051  0003DC                     u2480:
  5052                           
  5053                           ; BSR set to: 0
  5054                           ;main2.c: 439: LATA |= V[i - 57];
  5055  0003DC  0EC7               	movlw	199
  5056  0003DE  6E13               	movwf	??_mode_TransLove& (0+255),c
  5057  0003E0  0EFF               	movlw	255
  5058  0003E2  6E14               	movwf	(??_mode_TransLove+1)& (0+255),c
  5059  0003E4  C0E5  F015         	movff	mode_TransLove@i,??_mode_TransLove+2
  5060  0003E8  C0E6  F016         	movff	mode_TransLove@i+1,??_mode_TransLove+3
  5061  0003EC  5013               	movf	??_mode_TransLove,w,c
  5062  0003EE  2615               	addwf	??_mode_TransLove+2,f,c
  5063  0003F0  5014               	movf	??_mode_TransLove+1,w,c
  5064  0003F2  2216               	addwfc	??_mode_TransLove+3,f,c
  5065  0003F4  0ECD               	movlw	low mode_TransLove@V
  5066  0003F6  2415               	addwf	??_mode_TransLove+2,w,c
  5067  0003F8  6ED9               	movwf	fsr2l,c
  5068  0003FA  0E00               	movlw	high mode_TransLove@V
  5069  0003FC  2016               	addwfc	??_mode_TransLove+3,w,c
  5070  0003FE  6EDA               	movwf	fsr2h,c
  5071  000400  50DF               	movf	indf2,w,c
  5072  000402  1289               	iorwf	3977,f,c	;volatile
  5073  000404                     l215:
  5074  000404                     l2214:
  5075                           
  5076                           ; BSR set to: 0
  5077                           ;main2.c: 440: if(i >= 63 && i < 68)
  5078  000404  BFE6               	btfsc	(mode_TransLove@i+1)& (0+255),7,b
  5079  000406  D022               	goto	l216
  5080  000408  51E6               	movf	(mode_TransLove@i+1)& (0+255),w,b
  5081  00040A  E104               	bnz	u2490
  5082  00040C  0E3F               	movlw	63
  5083  00040E  5DE5               	subwf	mode_TransLove@i& (0+255),w,b
  5084  000410  A0D8               	btfss	status,0,c
  5085  000412  D01C               	goto	l216
  5086  000414                     u2490:
  5087                           
  5088                           ; BSR set to: 0
  5089  000414  BFE6               	btfsc	(mode_TransLove@i+1)& (0+255),7,b
  5090  000416  D006               	goto	u2500
  5091  000418  51E6               	movf	(mode_TransLove@i+1)& (0+255),w,b
  5092  00041A  E118               	bnz	l2220
  5093  00041C  0E44               	movlw	68
  5094  00041E  5DE5               	subwf	mode_TransLove@i& (0+255),w,b
  5095  000420  B0D8               	btfsc	status,0,c
  5096  000422  D014               	goto	l216
  5097  000424                     u2500:
  5098                           
  5099                           ; BSR set to: 0
  5100                           ;main2.c: 441: LATA |= E[i - 63];
  5101  000424  0EC1               	movlw	193
  5102  000426  6E13               	movwf	??_mode_TransLove& (0+255),c
  5103  000428  0EFF               	movlw	255
  5104  00042A  6E14               	movwf	(??_mode_TransLove+1)& (0+255),c
  5105  00042C  C0E5  F015         	movff	mode_TransLove@i,??_mode_TransLove+2
  5106  000430  C0E6  F016         	movff	mode_TransLove@i+1,??_mode_TransLove+3
  5107  000434  5013               	movf	??_mode_TransLove,w,c
  5108  000436  2615               	addwf	??_mode_TransLove+2,f,c
  5109  000438  5014               	movf	??_mode_TransLove+1,w,c
  5110  00043A  2216               	addwfc	??_mode_TransLove+3,f,c
  5111  00043C  0ED2               	movlw	low mode_TransLove@E
  5112  00043E  2415               	addwf	??_mode_TransLove+2,w,c
  5113  000440  6ED9               	movwf	fsr2l,c
  5114  000442  0E00               	movlw	high mode_TransLove@E
  5115  000444  2016               	addwfc	??_mode_TransLove+3,w,c
  5116  000446  6EDA               	movwf	fsr2h,c
  5117  000448  50DF               	movf	indf2,w,c
  5118  00044A  1289               	iorwf	3977,f,c	;volatile
  5119  00044C                     l216:
  5120  00044C                     l2220:
  5121                           
  5122                           ; BSR set to: 0
  5123                           ;main2.c: 442: if(i >= 87 && i < 97)
  5124  00044C  BFE6               	btfsc	(mode_TransLove@i+1)& (0+255),7,b
  5125  00044E  D022               	goto	l217
  5126  000450  51E6               	movf	(mode_TransLove@i+1)& (0+255),w,b
  5127  000452  E104               	bnz	u2510
  5128  000454  0E57               	movlw	87
  5129  000456  5DE5               	subwf	mode_TransLove@i& (0+255),w,b
  5130  000458  A0D8               	btfss	status,0,c
  5131  00045A  D01C               	goto	l217
  5132  00045C                     u2510:
  5133                           
  5134                           ; BSR set to: 0
  5135  00045C  BFE6               	btfsc	(mode_TransLove@i+1)& (0+255),7,b
  5136  00045E  D006               	goto	u2520
  5137  000460  51E6               	movf	(mode_TransLove@i+1)& (0+255),w,b
  5138  000462  E118               	bnz	l2226
  5139  000464  0E61               	movlw	97
  5140  000466  5DE5               	subwf	mode_TransLove@i& (0+255),w,b
  5141  000468  B0D8               	btfsc	status,0,c
  5142  00046A  D014               	goto	l217
  5143  00046C                     u2520:
  5144                           
  5145                           ; BSR set to: 0
  5146                           ;main2.c: 443: LATA |= love[i-87];
  5147  00046C  0EA9               	movlw	169
  5148  00046E  6E13               	movwf	??_mode_TransLove& (0+255),c
  5149  000470  0EFF               	movlw	255
  5150  000472  6E14               	movwf	(??_mode_TransLove+1)& (0+255),c
  5151  000474  C0E5  F015         	movff	mode_TransLove@i,??_mode_TransLove+2
  5152  000478  C0E6  F016         	movff	mode_TransLove@i+1,??_mode_TransLove+3
  5153  00047C  5013               	movf	??_mode_TransLove,w,c
  5154  00047E  2615               	addwf	??_mode_TransLove+2,f,c
  5155  000480  5014               	movf	??_mode_TransLove+1,w,c
  5156  000482  2216               	addwfc	??_mode_TransLove+3,f,c
  5157  000484  0EA0               	movlw	low mode_TransLove@love
  5158  000486  2415               	addwf	??_mode_TransLove+2,w,c
  5159  000488  6ED9               	movwf	fsr2l,c
  5160  00048A  0E00               	movlw	high mode_TransLove@love
  5161  00048C  2016               	addwfc	??_mode_TransLove+3,w,c
  5162  00048E  6EDA               	movwf	fsr2h,c
  5163  000490  50DF               	movf	indf2,w,c
  5164  000492  1289               	iorwf	3977,f,c	;volatile
  5165  000494                     l217:
  5166  000494                     l2226:
  5167                           
  5168                           ; BSR set to: 0
  5169                           ;main2.c: 444: if(i >= arrow_i && i < arrow_i + 16)
  5170  000494  51E3               	movf	mode_TransLove@arrow_i& (0+255),w,b
  5171  000496  5DE5               	subwf	mode_TransLove@i& (0+255),w,b
  5172  000498  51E6               	movf	(mode_TransLove@i+1)& (0+255),w,b
  5173  00049A  0A80               	xorlw	128
  5174  00049C  6E13               	movwf	??_mode_TransLove& (0+255),c
  5175  00049E  51E4               	movf	(mode_TransLove@arrow_i+1)& (0+255),w,b
  5176  0004A0  0A80               	xorlw	128
  5177  0004A2  5813               	subwfb	??_mode_TransLove& (0+255),w,c
  5178  0004A4  A0D8               	btfss	status,0,c
  5179  0004A6  D027               	goto	l218
  5180                           
  5181                           ; BSR set to: 0
  5182  0004A8  0E10               	movlw	16
  5183  0004AA  25E3               	addwf	mode_TransLove@arrow_i& (0+255),w,b
  5184  0004AC  6E13               	movwf	??_mode_TransLove& (0+255),c
  5185  0004AE  0E00               	movlw	0
  5186  0004B0  21E4               	addwfc	(mode_TransLove@arrow_i+1)& (0+255),w,b
  5187  0004B2  6E14               	movwf	(??_mode_TransLove+1)& (0+255),c
  5188  0004B4  5013               	movf	??_mode_TransLove,w,c
  5189  0004B6  5DE5               	subwf	mode_TransLove@i& (0+255),w,b
  5190  0004B8  51E6               	movf	(mode_TransLove@i+1)& (0+255),w,b
  5191  0004BA  0A80               	xorlw	128
  5192  0004BC  6E15               	movwf	(??_mode_TransLove+2)& (0+255),c
  5193  0004BE  5014               	movf	??_mode_TransLove+1,w,c
  5194  0004C0  0A80               	xorlw	128
  5195  0004C2  5815               	subwfb	(??_mode_TransLove+2)& (0+255),w,c
  5196  0004C4  B0D8               	btfsc	status,0,c
  5197  0004C6  D017               	goto	l218
  5198                           
  5199                           ; BSR set to: 0
  5200                           ;main2.c: 445: LATA |= arrow[i-arrow_i];
  5201  0004C8  C0E3  F013         	movff	mode_TransLove@arrow_i,??_mode_TransLove
  5202  0004CC  C0E4  F014         	movff	mode_TransLove@arrow_i+1,??_mode_TransLove+1
  5203  0004D0  1E13               	comf	??_mode_TransLove,f,c
  5204  0004D2  1E14               	comf	??_mode_TransLove+1,f,c
  5205  0004D4  4A13               	infsnz	??_mode_TransLove,f,c
  5206  0004D6  2A14               	incf	??_mode_TransLove+1,f,c
  5207  0004D8  51E5               	movf	mode_TransLove@i& (0+255),w,b
  5208  0004DA  2613               	addwf	??_mode_TransLove,f,c
  5209  0004DC  51E6               	movf	(mode_TransLove@i+1)& (0+255),w,b
  5210  0004DE  2214               	addwfc	??_mode_TransLove+1,f,c
  5211  0004E0  90D8               	bcf	status,0,c
  5212  0004E2  3613               	rlcf	??_mode_TransLove,f,c
  5213  0004E4  3614               	rlcf	??_mode_TransLove+1,f,c
  5214  0004E6  0E80               	movlw	low mode_TransLove@arrow
  5215  0004E8  2413               	addwf	??_mode_TransLove,w,c
  5216  0004EA  6ED9               	movwf	fsr2l,c
  5217  0004EC  0E00               	movlw	high mode_TransLove@arrow
  5218  0004EE  2014               	addwfc	??_mode_TransLove+1,w,c
  5219  0004F0  6EDA               	movwf	fsr2h,c
  5220  0004F2  50DF               	movf	indf2,w,c
  5221  0004F4  1289               	iorwf	3977,f,c	;volatile
  5222  0004F6                     l218:
  5223                           
  5224                           ; BSR set to: 0
  5225                           ;main2.c: 446: if(i >= arrow_i + 99 && i < arrow_i + 99 + 16)
  5226                           
  5227                           ; BSR set to: 0
  5228  0004F6  0E63               	movlw	99
  5229  0004F8  25E3               	addwf	mode_TransLove@arrow_i& (0+255),w,b
  5230  0004FA  6E13               	movwf	??_mode_TransLove& (0+255),c
  5231  0004FC  0E00               	movlw	0
  5232  0004FE  21E4               	addwfc	(mode_TransLove@arrow_i+1)& (0+255),w,b
  5233  000500  6E14               	movwf	(??_mode_TransLove+1)& (0+255),c
  5234  000502  5013               	movf	??_mode_TransLove,w,c
  5235  000504  5DE5               	subwf	mode_TransLove@i& (0+255),w,b
  5236  000506  51E6               	movf	(mode_TransLove@i+1)& (0+255),w,b
  5237  000508  0A80               	xorlw	128
  5238  00050A  6E15               	movwf	(??_mode_TransLove+2)& (0+255),c
  5239  00050C  5014               	movf	??_mode_TransLove+1,w,c
  5240  00050E  0A80               	xorlw	128
  5241  000510  5815               	subwfb	(??_mode_TransLove+2)& (0+255),w,c
  5242  000512  A0D8               	btfss	status,0,c
  5243  000514  D029               	goto	l219
  5244                           
  5245                           ; BSR set to: 0
  5246  000516  0E73               	movlw	115
  5247  000518  25E3               	addwf	mode_TransLove@arrow_i& (0+255),w,b
  5248  00051A  6E13               	movwf	??_mode_TransLove& (0+255),c
  5249  00051C  0E00               	movlw	0
  5250  00051E  21E4               	addwfc	(mode_TransLove@arrow_i+1)& (0+255),w,b
  5251  000520  6E14               	movwf	(??_mode_TransLove+1)& (0+255),c
  5252  000522  5013               	movf	??_mode_TransLove,w,c
  5253  000524  5DE5               	subwf	mode_TransLove@i& (0+255),w,b
  5254  000526  51E6               	movf	(mode_TransLove@i+1)& (0+255),w,b
  5255  000528  0A80               	xorlw	128
  5256  00052A  6E15               	movwf	(??_mode_TransLove+2)& (0+255),c
  5257  00052C  5014               	movf	??_mode_TransLove+1,w,c
  5258  00052E  0A80               	xorlw	128
  5259  000530  5815               	subwfb	(??_mode_TransLove+2)& (0+255),w,c
  5260  000532  B0D8               	btfsc	status,0,c
  5261  000534  D019               	goto	l219
  5262                           
  5263                           ; BSR set to: 0
  5264                           ;main2.c: 447: LATA |= arrow[i-arrow_i-99];
  5265  000536  0E63               	movlw	99
  5266  000538  25E3               	addwf	mode_TransLove@arrow_i& (0+255),w,b
  5267  00053A  6E13               	movwf	??_mode_TransLove& (0+255),c
  5268  00053C  0E00               	movlw	0
  5269  00053E  21E4               	addwfc	(mode_TransLove@arrow_i+1)& (0+255),w,b
  5270  000540  6E14               	movwf	(??_mode_TransLove+1)& (0+255),c
  5271  000542  1E13               	comf	??_mode_TransLove,f,c
  5272  000544  1E14               	comf	??_mode_TransLove+1,f,c
  5273  000546  4A13               	infsnz	??_mode_TransLove,f,c
  5274  000548  2A14               	incf	??_mode_TransLove+1,f,c
  5275  00054A  51E5               	movf	mode_TransLove@i& (0+255),w,b
  5276  00054C  2613               	addwf	??_mode_TransLove,f,c
  5277  00054E  51E6               	movf	(mode_TransLove@i+1)& (0+255),w,b
  5278  000550  2214               	addwfc	??_mode_TransLove+1,f,c
  5279  000552  90D8               	bcf	status,0,c
  5280  000554  3613               	rlcf	??_mode_TransLove,f,c
  5281  000556  3614               	rlcf	??_mode_TransLove+1,f,c
  5282  000558  0E80               	movlw	low mode_TransLove@arrow
  5283  00055A  2413               	addwf	??_mode_TransLove,w,c
  5284  00055C  6ED9               	movwf	fsr2l,c
  5285  00055E  0E00               	movlw	high mode_TransLove@arrow
  5286  000560  2014               	addwfc	??_mode_TransLove+1,w,c
  5287  000562  6EDA               	movwf	fsr2h,c
  5288  000564  50DF               	movf	indf2,w,c
  5289  000566  1289               	iorwf	3977,f,c	;volatile
  5290  000568                     l219:
  5291                           
  5292                           ; BSR set to: 0
  5293                           ;main2.c: 448: int bright = 40;
  5294                           
  5295                           ; BSR set to: 0
  5296  000568  0E00               	movlw	0
  5297  00056A  6FDA               	movwf	(mode_TransLove@bright+1)& (0+255),b
  5298  00056C  0E28               	movlw	40
  5299  00056E  6FD9               	movwf	mode_TransLove@bright& (0+255),b
  5300  000570                     l2240:
  5301                           
  5302                           ; BSR set to: 0
  5303  000570  07D9               	decf	mode_TransLove@bright& (0+255),f,b
  5304  000572  A0D8               	btfss	status,0,c
  5305  000574  07DA               	decf	(mode_TransLove@bright+1)& (0+255),f,b
  5306  000576  29D9               	incf	mode_TransLove@bright& (0+255),w,b
  5307  000578  E1FB               	bnz	l2240
  5308  00057A  29DA               	incf	(mode_TransLove@bright+1)& (0+255),w,b
  5309  00057C  A4D8               	btfss	status,2,c
  5310  00057E  D7F8               	goto	l221
  5311                           
  5312                           ; BSR set to: 0
  5313                           ;main2.c: 450: LATA = 0;
  5314                           
  5315                           ; BSR set to: 0
  5316  000580  0E00               	movlw	0
  5317  000582  6E89               	movwf	3977,c	;volatile
  5318                           
  5319                           ;main2.c: 451: int dark = 40;
  5320  000584  0E00               	movlw	0
  5321  000586  6FDC               	movwf	(mode_TransLove@dark+1)& (0+255),b
  5322  000588  0E28               	movlw	40
  5323  00058A  6FDB               	movwf	mode_TransLove@dark& (0+255),b
  5324  00058C                     l2244:
  5325                           
  5326                           ; BSR set to: 0
  5327  00058C  07DB               	decf	mode_TransLove@dark& (0+255),f,b
  5328  00058E  A0D8               	btfss	status,0,c
  5329  000590  07DC               	decf	(mode_TransLove@dark+1)& (0+255),f,b
  5330  000592  29DB               	incf	mode_TransLove@dark& (0+255),w,b
  5331  000594  E1FB               	bnz	l2244
  5332  000596  29DC               	incf	(mode_TransLove@dark+1)& (0+255),w,b
  5333  000598  A4D8               	btfss	status,2,c
  5334  00059A  D7F8               	goto	l224
  5335                           
  5336                           ; BSR set to: 0
  5337                           
  5338                           ; BSR set to: 0
  5339  00059C  4BE5               	infsnz	mode_TransLove@i& (0+255),f,b
  5340  00059E  2BE6               	incf	(mode_TransLove@i+1)& (0+255),f,b
  5341                           
  5342                           ; BSR set to: 0
  5343  0005A0  BFE6               	btfsc	(mode_TransLove@i+1)& (0+255),7,b
  5344  0005A2  D5BA               	goto	l192
  5345  0005A4  51E6               	movf	(mode_TransLove@i+1)& (0+255),w,b
  5346  0005A6  E101               	bnz	l2250
  5347  0005A8  D5B1               	goto	L8
  5348  0005AA                     u2590:
  5349  0005AA                     l2250:
  5350                           
  5351                           ; BSR set to: 0
  5352                           ;main2.c: 453: }
  5353                           ;main2.c: 455: if(arrow_i == 48)
  5354  0005AA  0E30               	movlw	48
  5355  0005AC  19E3               	xorwf	mode_TransLove@arrow_i& (0+255),w,b
  5356  0005AE  11E4               	iorwf	(mode_TransLove@arrow_i+1)& (0+255),w,b
  5357  0005B0  A4D8               	btfss	status,2,c
  5358  0005B2  D004               	goto	l226
  5359                           
  5360                           ; BSR set to: 0
  5361                           ;main2.c: 456: arrow_speed = 1;
  5362  0005B4  0E00               	movlw	0
  5363  0005B6  6FE0               	movwf	(mode_TransLove@arrow_speed+1)& (0+255),b
  5364  0005B8  0E01               	movlw	1
  5365  0005BA  6FDF               	movwf	mode_TransLove@arrow_speed& (0+255),b
  5366  0005BC                     l226:
  5367                           
  5368                           ; BSR set to: 0
  5369                           ;main2.c: 458: if(arrow_i == 87-4)
  5370                           
  5371                           ; BSR set to: 0
  5372  0005BC  0E53               	movlw	83
  5373  0005BE  19E3               	xorwf	mode_TransLove@arrow_i& (0+255),w,b
  5374  0005C0  11E4               	iorwf	(mode_TransLove@arrow_i+1)& (0+255),w,b
  5375  0005C2  A4D8               	btfss	status,2,c
  5376  0005C4  D00A               	goto	l228
  5377                           
  5378                           ; BSR set to: 0
  5379                           ;main2.c: 459: if(--stop_arrow)
  5380  0005C6  07DD               	decf	mode_TransLove@stop_arrow& (0+255),f,b
  5381  0005C8  A0D8               	btfss	status,0,c
  5382  0005CA  07DE               	decf	(mode_TransLove@stop_arrow+1)& (0+255),f,b
  5383  0005CC  51DD               	movf	mode_TransLove@stop_arrow& (0+255),w,b
  5384  0005CE  11DE               	iorwf	(mode_TransLove@stop_arrow+1)& (0+255),w,b
  5385  0005D0  B4D8               	btfsc	status,2,c
  5386  0005D2  D003               	goto	l228
  5387                           
  5388                           ; BSR set to: 0
  5389                           ;main2.c: 460: --arrow_i;
  5390  0005D4  07E3               	decf	mode_TransLove@arrow_i& (0+255),f,b
  5391  0005D6  A0D8               	btfss	status,0,c
  5392  0005D8  07E4               	decf	(mode_TransLove@arrow_i+1)& (0+255),f,b
  5393  0005DA                     l228:
  5394                           
  5395                           ; BSR set to: 0
  5396                           ;main2.c: 462: arrow_i += arrow_speed;
  5397                           
  5398                           ; BSR set to: 0
  5399                           
  5400                           ; BSR set to: 0
  5401  0005DA  51DF               	movf	mode_TransLove@arrow_speed& (0+255),w,b
  5402  0005DC  27E3               	addwf	mode_TransLove@arrow_i& (0+255),f,b
  5403  0005DE  51E0               	movf	(mode_TransLove@arrow_speed+1)& (0+255),w,b
  5404  0005E0  23E4               	addwfc	(mode_TransLove@arrow_i+1)& (0+255),f,b
  5405                           
  5406                           ; BSR set to: 0
  5407                           ;main2.c: 464: if(arrow_i > 99-15){
  5408  0005E2  BFE4               	btfsc	(mode_TransLove@arrow_i+1)& (0+255),7,b
  5409  0005E4  D012               	goto	l229
  5410  0005E6  51E4               	movf	(mode_TransLove@arrow_i+1)& (0+255),w,b
  5411  0005E8  E104               	bnz	u2630
  5412  0005EA  0E55               	movlw	85
  5413  0005EC  5DE3               	subwf	mode_TransLove@arrow_i& (0+255),w,b
  5414  0005EE  A0D8               	btfss	status,0,c
  5415  0005F0  D00C               	goto	l229
  5416  0005F2                     u2630:
  5417                           
  5418                           ; BSR set to: 0
  5419                           ;main2.c: 465: stop_arrow = 120;
  5420  0005F2  0E00               	movlw	0
  5421  0005F4  6FDE               	movwf	(mode_TransLove@stop_arrow+1)& (0+255),b
  5422  0005F6  0E78               	movlw	120
  5423  0005F8  6FDD               	movwf	mode_TransLove@stop_arrow& (0+255),b
  5424                           
  5425                           ;main2.c: 466: arrow_i = -15;
  5426  0005FA  0EFF               	movlw	255
  5427  0005FC  6FE4               	movwf	(mode_TransLove@arrow_i+1)& (0+255),b
  5428  0005FE  0EF1               	movlw	241
  5429  000600  6FE3               	movwf	mode_TransLove@arrow_i& (0+255),b
  5430                           
  5431                           ;main2.c: 467: arrow_speed = 3;
  5432  000602  0E00               	movlw	0
  5433  000604  6FE0               	movwf	(mode_TransLove@arrow_speed+1)& (0+255),b
  5434  000606  0E03               	movlw	3
  5435  000608  6FDF               	movwf	mode_TransLove@arrow_speed& (0+255),b
  5436  00060A                     l229:
  5437                           
  5438                           ; BSR set to: 0
  5439                           
  5440                           ; BSR set to: 0
  5441                           
  5442                           ; BSR set to: 0
  5443  00060A  07D7               	decf	mode_TransLove@cycle& (0+255),f,b
  5444  00060C  A0D8               	btfss	status,0,c
  5445  00060E  07D8               	decf	(mode_TransLove@cycle+1)& (0+255),f,b
  5446  000610  29D7               	incf	mode_TransLove@cycle& (0+255),w,b
  5447  000612  E103               	bnz	u2641
  5448  000614  29D8               	incf	(mode_TransLove@cycle+1)& (0+255),w,b
  5449  000616  B4D8               	btfsc	status,2,c
  5450  000618  0012               	return	
  5451  00061A                     u2641:
  5452  00061A  D570               	goto	l191
  5453  00061C                     __end_of_mode_TransLove:
  5454                           	opt stack 0
  5455                           tblptru	equ	0xFF8
  5456                           tblptrh	equ	0xFF7
  5457                           tblptrl	equ	0xFF6
  5458                           tablat	equ	0xFF5
  5459                           prodh	equ	0xFF4
  5460                           prodl	equ	0xFF3
  5461                           intcon	equ	0xFF2
  5462                           postinc0	equ	0xFEE
  5463                           wreg	equ	0xFE8
  5464                           postdec1	equ	0xFE5
  5465                           plusw1	equ	0xFE3
  5466                           fsr1l	equ	0xFE1
  5467                           indf2	equ	0xFDF
  5468                           postinc2	equ	0xFDE
  5469                           postdec2	equ	0xFDD
  5470                           plusw2	equ	0xFDB
  5471                           fsr2h	equ	0xFDA
  5472                           fsr2l	equ	0xFD9
  5473                           status	equ	0xFD8
  5474                           
  5475 ;; *************** function _tc_int *****************
  5476 ;; Defined at:
  5477 ;;		line 813 in file "main2.c"
  5478 ;; Parameters:    Size  Location     Type
  5479 ;;		None
  5480 ;; Auto vars:     Size  Location     Type
  5481 ;;		None
  5482 ;; Return value:  Size  Location     Type
  5483 ;;                  1    wreg      void 
  5484 ;; Registers used:
  5485 ;;		wreg, status,2, status,0, cstack
  5486 ;; Tracked objects:
  5487 ;;		On entry : 0/0
  5488 ;;		On exit  : 0/0
  5489 ;;		Unchanged: 0/0
  5490 ;; Data sizes:     COMRAM   BANK0   BANK1   BANK2   BANK3   BANK4   BANK5
  5491 ;;      Params:         0       0       0       0       0       0       0
  5492 ;;      Locals:         0       0       0       0       0       0       0
  5493 ;;      Temps:         18       0       0       0       0       0       0
  5494 ;;      Totals:        18       0       0       0       0       0       0
  5495 ;;Total ram usage:       18 bytes
  5496 ;; Hardware stack levels used:    1
  5497 ;; Hardware stack levels required when called:    1
  5498 ;; This function calls:
  5499 ;;		_update_time
  5500 ;; This function is called by:
  5501 ;;		Interrupt level 2
  5502 ;; This function uses a non-reentrant model
  5503 ;;
  5504                           
  5505                           	psect	intcode
  5506  000008                     __pintcode:
  5507                           	opt stack 0
  5508  000008                     _tc_int:
  5509                           	opt stack 26
  5510                           
  5511                           ; BSR set to: 0
  5512                           ;incstack = 0
  5513  000008  8241               	bsf	btemp,1,c	;set compiler interrupt flag (level 2)
  5514  00000A  ED13  F009         	call	int_func,f	;refresh shadow registers
  5515                           tblptru	equ	0xFF8
  5516                           tblptrh	equ	0xFF7
  5517                           tblptrl	equ	0xFF6
  5518                           tablat	equ	0xFF5
  5519                           prodh	equ	0xFF4
  5520                           prodl	equ	0xFF3
  5521                           intcon	equ	0xFF2
  5522                           postinc0	equ	0xFEE
  5523                           wreg	equ	0xFE8
  5524                           postdec1	equ	0xFE5
  5525                           plusw1	equ	0xFE3
  5526                           fsr1l	equ	0xFE1
  5527                           indf2	equ	0xFDF
  5528                           postinc2	equ	0xFDE
  5529                           postdec2	equ	0xFDD
  5530                           plusw2	equ	0xFDB
  5531                           fsr2h	equ	0xFDA
  5532                           fsr2l	equ	0xFD9
  5533                           status	equ	0xFD8
  5534                           
  5535                           	psect	intcode_body
  5536  001226                     __pintcode_body:
  5537                           	opt stack 26
  5538  001226                     int_func:
  5539                           	opt stack 26
  5540  001226  0006               	pop		; remove dummy address from shadow register refresh
  5541  001228  CFFA F001          	movff	pclath,??_tc_int
  5542  00122C  CFFB F002          	movff	pclatu,??_tc_int+1
  5543  001230  CFE9 F003          	movff	fsr0l,??_tc_int+2
  5544  001234  CFEA F004          	movff	fsr0h,??_tc_int+3
  5545  001238  CFE1 F005          	movff	fsr1l,??_tc_int+4
  5546  00123C  CFE2 F006          	movff	fsr1h,??_tc_int+5
  5547  001240  CFD9 F007          	movff	fsr2l,??_tc_int+6
  5548  001244  CFDA F008          	movff	fsr2h,??_tc_int+7
  5549  001248  CFF3 F009          	movff	prodl,??_tc_int+8
  5550  00124C  CFF4 F00A          	movff	prodh,??_tc_int+9
  5551  001250  CFF6 F00B          	movff	tblptrl,??_tc_int+10
  5552  001254  CFF7 F00C          	movff	tblptrh,??_tc_int+11
  5553  001258  CFF8 F00D          	movff	tblptru,??_tc_int+12
  5554  00125C  CFF5 F00E          	movff	tablat,??_tc_int+13
  5555  001260  C041  F00F         	movff	btemp,??_tc_int+14
  5556  001264  C042  F010         	movff	btemp+1,??_tc_int+15
  5557  001268  C043  F011         	movff	btemp+2,??_tc_int+16
  5558  00126C  C044  F012         	movff	btemp+3,??_tc_int+17
  5559                           
  5560                           ;main2.c: 815: if(TMR1IE && TMR1IF){
  5561  001270  B09D               	btfsc	3997,0,c	;volatile
  5562  001272  A09E               	btfss	3998,0,c	;volatile
  5563  001274  D012               	goto	i2l322
  5564                           
  5565                           ;main2.c: 816: TMR1 = 15535;
  5566  001276  0E3C               	movlw	60
  5567  001278  6ECF               	movwf	4047,c	;volatile
  5568  00127A  0EAF               	movlw	175
  5569  00127C  6ECE               	movwf	4046,c	;volatile
  5570                           
  5571                           ;main2.c: 817: TMR1IF=0;
  5572  00127E  909E               	bcf	3998,0,c	;volatile
  5573                           
  5574                           ;main2.c: 818: count++;
  5575  001280  4A3F               	infsnz	_count,f,c
  5576  001282  2A40               	incf	_count+1,f,c
  5577                           
  5578                           ;main2.c: 819: if(count == 5){
  5579  001284  0E05               	movlw	5
  5580  001286  183F               	xorwf	_count,w,c
  5581  001288  1040               	iorwf	_count+1,w,c
  5582  00128A  A4D8               	btfss	status,2,c
  5583  00128C  D006               	goto	i2l322
  5584                           
  5585                           ;main2.c: 820: count = 0;
  5586  00128E  0E00               	movlw	0
  5587  001290  6E40               	movwf	_count+1,c
  5588  001292  0E00               	movlw	0
  5589  001294  6E3F               	movwf	_count,c
  5590                           
  5591                           ;main2.c: 821: update_time();
  5592  001296  ECF6  F00A         	call	_update_time	;wreg free
  5593  00129A                     i2l322:
  5594  00129A  C012  F044         	movff	??_tc_int+17,btemp+3
  5595  00129E  C011  F043         	movff	??_tc_int+16,btemp+2
  5596  0012A2  C010  F042         	movff	??_tc_int+15,btemp+1
  5597  0012A6  C00F  F041         	movff	??_tc_int+14,btemp
  5598  0012AA  C00E  FFF5         	movff	??_tc_int+13,tablat
  5599  0012AE  C00D  FFF8         	movff	??_tc_int+12,tblptru
  5600  0012B2  C00C  FFF7         	movff	??_tc_int+11,tblptrh
  5601  0012B6  C00B  FFF6         	movff	??_tc_int+10,tblptrl
  5602  0012BA  C00A  FFF4         	movff	??_tc_int+9,prodh
  5603  0012BE  C009  FFF3         	movff	??_tc_int+8,prodl
  5604  0012C2  C008  FFDA         	movff	??_tc_int+7,fsr2h
  5605  0012C6  C007  FFD9         	movff	??_tc_int+6,fsr2l
  5606  0012CA  C006  FFE2         	movff	??_tc_int+5,fsr1h
  5607  0012CE  C005  FFE1         	movff	??_tc_int+4,fsr1l
  5608  0012D2  C004  FFEA         	movff	??_tc_int+3,fsr0h
  5609  0012D6  C003  FFE9         	movff	??_tc_int+2,fsr0l
  5610  0012DA  C002  FFFB         	movff	??_tc_int+1,pclatu
  5611  0012DE  C001  FFFA         	movff	??_tc_int,pclath
  5612  0012E2  9241               	bcf	btemp,1,c	;clear compiler interrupt flag (level 2)
  5613  0012E4  0011               	retfie		f
  5614  0012E6                     __end_of_tc_int:
  5615                           	opt stack 0
  5616                           pclatu	equ	0xFFB
  5617                           pclath	equ	0xFFA
  5618                           tblptru	equ	0xFF8
  5619                           tblptrh	equ	0xFF7
  5620                           tblptrl	equ	0xFF6
  5621                           tablat	equ	0xFF5
  5622                           prodh	equ	0xFF4
  5623                           prodl	equ	0xFF3
  5624                           intcon	equ	0xFF2
  5625                           postinc0	equ	0xFEE
  5626                           fsr0h	equ	0xFEA
  5627                           fsr0l	equ	0xFE9
  5628                           wreg	equ	0xFE8
  5629                           postdec1	equ	0xFE5
  5630                           plusw1	equ	0xFE3
  5631                           fsr1h	equ	0xFE2
  5632                           fsr1l	equ	0xFE1
  5633                           indf2	equ	0xFDF
  5634                           postinc2	equ	0xFDE
  5635                           postdec2	equ	0xFDD
  5636                           plusw2	equ	0xFDB
  5637                           fsr2h	equ	0xFDA
  5638                           fsr2l	equ	0xFD9
  5639                           status	equ	0xFD8
  5640                           
  5641 ;; *************** function _update_time *****************
  5642 ;; Defined at:
  5643 ;;		line 802 in file "main2.c"
  5644 ;; Parameters:    Size  Location     Type
  5645 ;;		None
  5646 ;; Auto vars:     Size  Location     Type
  5647 ;;		None
  5648 ;; Return value:  Size  Location     Type
  5649 ;;                  1    wreg      void 
  5650 ;; Registers used:
  5651 ;;		wreg, status,2, status,0
  5652 ;; Tracked objects:
  5653 ;;		On entry : 0/0
  5654 ;;		On exit  : 0/0
  5655 ;;		Unchanged: 0/0
  5656 ;; Data sizes:     COMRAM   BANK0   BANK1   BANK2   BANK3   BANK4   BANK5
  5657 ;;      Params:         0       0       0       0       0       0       0
  5658 ;;      Locals:         0       0       0       0       0       0       0
  5659 ;;      Temps:          0       0       0       0       0       0       0
  5660 ;;      Totals:         0       0       0       0       0       0       0
  5661 ;;Total ram usage:        0 bytes
  5662 ;; Hardware stack levels used:    1
  5663 ;; This function calls:
  5664 ;;		Nothing
  5665 ;; This function is called by:
  5666 ;;		_tc_int
  5667 ;; This function uses a non-reentrant model
  5668 ;;
  5669                           
  5670                           	psect	text10
  5671  0015EC                     __ptext10:
  5672                           	opt stack 0
  5673  0015EC                     _update_time:
  5674                           	opt stack 26
  5675                           
  5676                           ;main2.c: 803: if(++seconds == 60){
  5677                           
  5678                           ;incstack = 0
  5679  0015EC  0101               	movlb	1	; () banked
  5680  0015EE  4BEC               	infsnz	_seconds& (0+255),f,b
  5681  0015F0  2BED               	incf	(_seconds+1)& (0+255),f,b
  5682  0015F2  0E3C               	movlw	60
  5683  0015F4  19EC               	xorwf	_seconds& (0+255),w,b
  5684  0015F6  11ED               	iorwf	(_seconds+1)& (0+255),w,b
  5685  0015F8  A4D8               	btfss	status,2,c
  5686  0015FA  0012               	return	
  5687                           
  5688                           ; BSR set to: 1
  5689                           ;main2.c: 804: seconds = 0;
  5690  0015FC  0E00               	movlw	0
  5691  0015FE  6FED               	movwf	(_seconds+1)& (0+255),b
  5692  001600  0E00               	movlw	0
  5693  001602  6FEC               	movwf	_seconds& (0+255),b
  5694                           
  5695                           ; BSR set to: 1
  5696                           ;main2.c: 805: if(++minutes==60){
  5697  001604  4BEA               	infsnz	_minutes& (0+255),f,b
  5698  001606  2BEB               	incf	(_minutes+1)& (0+255),f,b
  5699  001608  0E3C               	movlw	60
  5700  00160A  19EA               	xorwf	_minutes& (0+255),w,b
  5701  00160C  11EB               	iorwf	(_minutes+1)& (0+255),w,b
  5702  00160E  A4D8               	btfss	status,2,c
  5703  001610  0012               	return	
  5704                           
  5705                           ; BSR set to: 1
  5706                           ;main2.c: 806: minutes = 0;
  5707  001612  0E00               	movlw	0
  5708  001614  6FEB               	movwf	(_minutes+1)& (0+255),b
  5709  001616  0E00               	movlw	0
  5710  001618  6FEA               	movwf	_minutes& (0+255),b
  5711                           
  5712                           ; BSR set to: 1
  5713                           ;main2.c: 807: if(++hours == 24)
  5714  00161A  4BEE               	infsnz	_hours& (0+255),f,b
  5715  00161C  2BEF               	incf	(_hours+1)& (0+255),f,b
  5716  00161E  0E18               	movlw	24
  5717  001620  19EE               	xorwf	_hours& (0+255),w,b
  5718  001622  11EF               	iorwf	(_hours+1)& (0+255),w,b
  5719  001624  A4D8               	btfss	status,2,c
  5720  001626  0012               	return	
  5721                           
  5722                           ; BSR set to: 1
  5723                           ;main2.c: 808: hours = 0;
  5724  001628  0E00               	movlw	0
  5725  00162A  6FEF               	movwf	(_hours+1)& (0+255),b
  5726  00162C  0E00               	movlw	0
  5727  00162E  6FEE               	movwf	_hours& (0+255),b
  5728                           
  5729                           ; BSR set to: 1
  5730                           
  5731                           ; BSR set to: 1
  5732  001630  0012               	return	
  5733  001632                     __end_of_update_time:
  5734                           	opt stack 0
  5735  0000                     pclatu	equ	0xFFB
  5736                           pclath	equ	0xFFA
  5737                           tblptru	equ	0xFF8
  5738                           tblptrh	equ	0xFF7
  5739                           tblptrl	equ	0xFF6
  5740                           tablat	equ	0xFF5
  5741                           prodh	equ	0xFF4
  5742                           prodl	equ	0xFF3
  5743                           intcon	equ	0xFF2
  5744                           postinc0	equ	0xFEE
  5745                           fsr0h	equ	0xFEA
  5746                           fsr0l	equ	0xFE9
  5747                           wreg	equ	0xFE8
  5748                           postdec1	equ	0xFE5
  5749                           plusw1	equ	0xFE3
  5750                           fsr1h	equ	0xFE2
  5751                           fsr1l	equ	0xFE1
  5752                           indf2	equ	0xFDF
  5753                           postinc2	equ	0xFDE
  5754                           postdec2	equ	0xFDD
  5755                           plusw2	equ	0xFDB
  5756                           fsr2h	equ	0xFDA
  5757                           fsr2l	equ	0xFD9
  5758                           status	equ	0xFD8
  5759                           pclatu	equ	0xFFB
  5760                           pclath	equ	0xFFA
  5761                           tblptru	equ	0xFF8
  5762                           tblptrh	equ	0xFF7
  5763                           tblptrl	equ	0xFF6
  5764                           tablat	equ	0xFF5
  5765                           prodh	equ	0xFF4
  5766                           prodl	equ	0xFF3
  5767                           intcon	equ	0xFF2
  5768                           postinc0	equ	0xFEE
  5769                           fsr0h	equ	0xFEA
  5770                           fsr0l	equ	0xFE9
  5771                           wreg	equ	0xFE8
  5772                           postdec1	equ	0xFE5
  5773                           plusw1	equ	0xFE3
  5774                           fsr1h	equ	0xFE2
  5775                           fsr1l	equ	0xFE1
  5776                           indf2	equ	0xFDF
  5777                           postinc2	equ	0xFDE
  5778                           postdec2	equ	0xFDD
  5779                           plusw2	equ	0xFDB
  5780                           fsr2h	equ	0xFDA
  5781                           fsr2l	equ	0xFD9
  5782                           status	equ	0xFD8
  5783                           
  5784                           	psect	rparam
  5785  0000                     pclatu	equ	0xFFB
  5786                           pclath	equ	0xFFA
  5787                           tblptru	equ	0xFF8
  5788                           tblptrh	equ	0xFF7
  5789                           tblptrl	equ	0xFF6
  5790                           tablat	equ	0xFF5
  5791                           prodh	equ	0xFF4
  5792                           prodl	equ	0xFF3
  5793                           intcon	equ	0xFF2
  5794                           postinc0	equ	0xFEE
  5795                           fsr0h	equ	0xFEA
  5796                           fsr0l	equ	0xFE9
  5797                           wreg	equ	0xFE8
  5798                           postdec1	equ	0xFE5
  5799                           plusw1	equ	0xFE3
  5800                           fsr1h	equ	0xFE2
  5801                           fsr1l	equ	0xFE1
  5802                           indf2	equ	0xFDF
  5803                           postinc2	equ	0xFDE
  5804                           postdec2	equ	0xFDD
  5805                           plusw2	equ	0xFDB
  5806                           fsr2h	equ	0xFDA
  5807                           fsr2l	equ	0xFD9
  5808                           status	equ	0xFD8
  5809                           
  5810                           	psect	temp
  5811  000041                     btemp:
  5812                           	opt stack 0
  5813  000041                     	ds	1
  5814  0000                     int$flags	set	btemp
  5815  0000                     wtemp6	set	btemp+1
  5816                           pclatu	equ	0xFFB
  5817                           pclath	equ	0xFFA
  5818                           tblptru	equ	0xFF8
  5819                           tblptrh	equ	0xFF7
  5820                           tblptrl	equ	0xFF6
  5821                           tablat	equ	0xFF5
  5822                           prodh	equ	0xFF4
  5823                           prodl	equ	0xFF3
  5824                           intcon	equ	0xFF2
  5825                           postinc0	equ	0xFEE
  5826                           fsr0h	equ	0xFEA
  5827                           fsr0l	equ	0xFE9
  5828                           wreg	equ	0xFE8
  5829                           postdec1	equ	0xFE5
  5830                           plusw1	equ	0xFE3
  5831                           fsr1h	equ	0xFE2
  5832                           fsr1l	equ	0xFE1
  5833                           indf2	equ	0xFDF
  5834                           postinc2	equ	0xFDE
  5835                           postdec2	equ	0xFDD
  5836                           plusw2	equ	0xFDB
  5837                           fsr2h	equ	0xFDA
  5838                           fsr2l	equ	0xFD9
  5839                           status	equ	0xFD8


Data Sizes:
    Strings     0
    Constant    0
    Data        429
    BSS         6
    Persistent  2
    Stack       0

Auto Spaces:
    Space          Size  Autos    Used
    COMRAM          126     32      64
    BANK0           128    103     128
    BANK1           256    172     240
    BANK2           256      0     204
    BANK3           256      0     108
    BANK4           256      0       0
    BANK5           256      0       0

Pointer List with Targets:

    mode_clock@face_i	PTR int  size(2) Largest target is 26
		 -> mode_clock@face(BANK1[26]), 

    mode_clock@show	PTR int  size(2) Largest target is 80
		 -> mode_clock@MAS(BANK1[80]), mode_clock@X(BANK1[28]), 

    display_num@iter	PTR unsigned char  size(2) Largest target is 50
		 -> display_num@num(BANK0[50]), 

    mode_walker@show	PTR unsigned int  size(2) Largest target is 108
		 -> mode_walker@walker(BANK1[108]), 

    mode_tree@show_282	PTR int  size(2) Largest target is 42
		 -> mode_tree@tree(BANK0[42]), 

    mode_tree@show	PTR int  size(2) Largest target is 42
		 -> mode_tree@tree(BANK0[42]), 


Critical Paths under _main in COMRAM

    _main->_mode_walker
    _mode_walker->___awmod
    _mode_walker->___wmul
    _mode_clock->_display_num
    _display_num->___awdiv

Critical Paths under _tc_int in COMRAM

    None.

Critical Paths under _main in BANK0

    _main->_mode_TransLove
    _mode_clock->_display_num

Critical Paths under _tc_int in BANK0

    None.

Critical Paths under _main in BANK1

    _main->_mode_clock

Critical Paths under _tc_int in BANK1

    None.

Critical Paths under _main in BANK2

    None.

Critical Paths under _tc_int in BANK2

    None.

Critical Paths under _main in BANK3

    None.

Critical Paths under _tc_int in BANK3

    None.

Critical Paths under _main in BANK4

    None.

Critical Paths under _tc_int in BANK4

    None.

Critical Paths under _main in BANK5

    None.

Critical Paths under _tc_int in BANK5

    None.

Call Graph Tables:

 ---------------------------------------------------------------------------------
 (Depth) Function   	        Calls       Base Space   Used Autos Params    Refs
 ---------------------------------------------------------------------------------
 (0) _main                                                 0     0      0   11251
                     _mode_TransLove
                         _mode_clock
                          _mode_tree
                        _mode_walker
 ---------------------------------------------------------------------------------
 (1) _mode_walker                                        162   162      0    3691
                                             24 COMRAM     8     8      0
                                              0 BANK1    154   154      0
                            ___awmod
                             ___wmul
 ---------------------------------------------------------------------------------
 (1) _mode_tree                                           68    68      0     726
                                             18 COMRAM     2     2      0
                                              0 BANK0     66    66      0
 ---------------------------------------------------------------------------------
 (1) _mode_clock                                         174   174      0    5335
                                             28 COMRAM     2     2      0
                                              0 BANK1    172   172      0
                            ___awdiv
                            ___awmod
                             ___wmul
                        _display_num
 ---------------------------------------------------------------------------------
 (2) _display_num                                         60    58      2    1553
                                             26 COMRAM     2     0      2
                                              0 BANK0     58    58      0
                            ___awdiv (ARG)
                            ___awmod (ARG)
                             ___wmul
 ---------------------------------------------------------------------------------
 (2) ___wmul                                               6     2      4     772
                                             18 COMRAM     6     2      4
 ---------------------------------------------------------------------------------
 (2) ___awmod                                              6     2      4     904
                                             18 COMRAM     6     2      4
 ---------------------------------------------------------------------------------
 (2) ___awdiv                                              8     4      4     756
                                             18 COMRAM     8     4      4
 ---------------------------------------------------------------------------------
 (1) _mode_TransLove                                     107   107      0    1499
                                             18 COMRAM     4     4      0
                                              0 BANK0    103   103      0
 ---------------------------------------------------------------------------------
 Estimated maximum stack depth 2
 ---------------------------------------------------------------------------------
 (Depth) Function   	        Calls       Base Space   Used Autos Params    Refs
 ---------------------------------------------------------------------------------
 (4) _tc_int                                              18    18      0       0
                                              0 COMRAM    18    18      0
                        _update_time
 ---------------------------------------------------------------------------------
 (5) _update_time                                          0     0      0       0
 ---------------------------------------------------------------------------------
 Estimated maximum stack depth 5
 ---------------------------------------------------------------------------------

 Call Graph Graphs:

 _main (ROOT)
   _mode_TransLove
   _mode_clock
     ___awdiv
     ___awmod
     ___wmul
     _display_num
       ___awdiv (ARG)
       ___awmod (ARG)
       ___wmul (ARG)
   _mode_tree
   _mode_walker
     ___awmod
     ___wmul

 _tc_int (ROOT)
   _update_time

 Address spaces:
Name               Size   Autos  Total    Cost      Usage
BIGRAM             5FF      0       0      17        0.0%
EEDATA             100      0       0       0        0.0%
BITBANK5           100      0       0      16        0.0%
BANK5              100      0       0      14        0.0%
BITBANK4           100      0       0      12        0.0%
BANK4              100      0       0      13        0.0%
BITBANK3           100      0       0      10        0.0%
BANK3              100      0      6C      11       42.2%
BITBANK2           100      0       0       8        0.0%
BANK2              100      0      CC       9       79.7%
BITBANK1           100      0       0       6        0.0%
BANK1              100     AC      F0       7       93.8%
BITBANK0            80      0       0       4        0.0%
BANK0               80     67      80       5      100.0%
BITCOMRAM           7E      0       0       0        0.0%
COMRAM              7E     20      40       1       50.8%
BITSFR               0      0       0     200        0.0%
SFR                  0      0       0     200        0.0%
STACK                0      0       0       2        0.0%
NULL                 0      0       0       0        0.0%
ABS                  0      0     2E8      15        0.0%
DATA                 0      0     2E8       3        0.0%
CODE                 0      0       0       0        0.0%


Microchip Technology PIC18 Macro Assembler V1.44 build -154322312 
Symbol Table                                                                                   Tue Dec 19 01:59:06 2017

                  _update_time 15EC                             l41 0FAC                             l50 102A  
                           l43 0FB8                             l44 0FD8                             l61 10D4  
                           l53 1050                             l47 100A                             l64 10F4  
                           l57 1082                             l81 0B70                             l66 1128  
                           l58 10A2                             l90 06E2                             l82 0694  
                           l67 1130                             l91 06EA                             l83 06B8  
                           l92 071A                             l69 1138                             l93 0754  
                           l86 06C0                             l96 07F2                             l97 0770  
                           l89 06FC                             l99 0778                   ?_display_num 001B  
                 ___awdiv@sign 0018            ___wmul@multiplicand 0015                    __CFG_LVP$ON 000000  
                          l101 0822                            l110 07BE                            l102 078A  
                          l200 014A                            l120 089C                            l112 07C6  
                          l104 0792                            l201 0152                            l210 029C  
                          l202 015A                            l114 07D8                            l106 07A4  
                          l211 02E4                            l203 0162                            l131 0950  
                          l123 08AC                            l212 032C                            l116 07E0  
                          l108 07AC                            l221 0570                            l213 0374  
                          l205 016A                            l301 0F34                            l141 09EA  
                          l214 03BC                            l126 08CC                            l118 085C  
                          l215 0404                            l207 01C4                            l224 058C  
                          l216 044C                            l208 020C                            l304 0F54  
                          l160 0B2E                            l128 0960                            l217 0494  
                          l209 0254                            l153 0A94                            l226 05BC  
                          l218 04F6                            l242 141E                            l162 0B36  
                          l330 15EA                            l219 0568                            l307 0F7A  
                          l163 0B70                            l155 0AFE                            l228 05DA  
                          l236 13EE                            l244 1438                            l148 0A34  
                          l229 060A                            l261 0C7C                            l157 0B40  
                          l510 14A6                            l502 144E                            l254 0BCC  
                          l158 0B1E                            l191 00FC                            l511 14B4  
                          l503 145E                            l239 1402                            l192 0118  
                          l280 0DC4                            l272 0D42                            l264 0CAE  
                          l256 0C16                            l328 15DC                            l505 147C  
                          l194 017C                            l506 1474                            l522 150C  
                          l290 0E86                            l282 0DFA                            l274 0D72  
                          l266 0CC6                            l258 0C32                            l195 0122  
                          l523 1516                            l515 14D2                            l283 0ECA  
                          l196 012A                            l524 1524                            l516 14DE  
                          l284 0E34                            l197 0132                            l509 149C  
                          l293 0EAC                            l277 0DA4                            l269 0D10  
                          l198 013A                            l518 14F4                            l199 0142  
                          l519 14EC                            l287 0E66                            l296 0ED2  
                          l298 0F02                   ___awmod@sign 0018                            wreg 000FE8  
                mode_clock@MAS 0100                   __CFG_WDT$OFF 000000                           l2202 0374  
                         l3010 0F54                           l2220 044C                           l3020 0F7A  
                         l2214 0404                           l3006 0F34                           l2240 0570  
                         l2208 03BC                           l2226 0494                           l2162 016A  
                         l2250 05AA                           l3018 0F72                           l2244 058C  
                         l2172 020C                           l2190 02E4                           l2184 029C  
                         l2600 1402                           l2178 0254                           l2196 032C  
                         l2604 141E                           l2630 102A                           l2614 0FB8  
                         l2640 1050                           l2650 1092                           l2626 100A  
                         l2618 0FC8                           l2730 0778                           l2804 0982  
                         l2820 0A64                           l2708 06C0                           l2902 0C7C  
                         l2662 10F4                           l2670 1112                           l2646 1082  
                         l2638 1048                           l2814 0A34                           l2742 07C6  
                         l2734 0792                           l2592 13DE                           l2920 0D10  
                         l2658 10D4                           l2770 08CC                           l2746 07E0  
                         l2738 07AC                           l2940 0DA4                           l2932 0D62  
                         l2908 0CAE                           l2852 0B40                           l2828 0A94  
                         l2756 084C                           l2926 0D42                           l2678 1138  
                         l2838 0AEE                           l2766 08AC                           l2944 0DC4  
                         l2952 0DE2                           l2970 0E66                           l2962 0E24  
                         l2778 08EA                           l2788 0924                           l2974 0E86  
                         l2982 0EA4                           l2990 0ECA                           l2992 0ED2  
                         l2984 0EAC                           l2888 0C16                           l2998 0EF2  
                         u2201 001C                           u2211 002E                           u2301 00D0  
                         u2221 0040                           _LATA 000F89                           u2310 0116  
                         u2231 0052                           u2400 02BC                           u3200 06A6  
                         _LATD 000F8C                           u2241 0064                           u3041 0FA4  
                         u2410 02F4                           u2330 01D4                           u3210 06D0  
                         u2251 0076                           u2500 0424                           u2420 0304  
                         u2340 01E4                           u3140 1112                           u2261 0088  
                         u2510 045C                           u2430 033C                           u2350 021C  
                         u2271 009A                           u2520 046C                           u2440 034C  
                         u2360 022C                           u1640 14F8                           u3160 1148  
                         u3080 1048                           u3240 0734                           u2281 00AC  
                         u2450 0384                           u2370 0264                           u3090 1060  
                         u3250 076E                           u2291 00BE                           u2460 0394  
                         u2380 0274                           u1580 1480                           u3500 0A64  
                         u3420 0940                           u3181 0626                           u2630 05F2  
                         u2470 03CC                           u2390 02AC                           u3350 08EA  
                         u3191 0638                           u2480 03DC                           u2641 061A  
                         u2490 0414                           u3450 0982                           u3370 090C  
                         u3700 0DE2                           u2590 05AA                           u3390 0924  
                         u3480 099E                           u3561 0B80                           u3571 0B96  
                         u3820 0F72                           u3581 0BA8                           u3830 0F8A  
                         u3750 0EA4                           u3591 0BBA                           u3770 0ECA  
                         u2991 13AC                           _TMR1 000FCE                           _main 159A  
                         fsr0h 000FEA                           fsr1h 000FE2                           fsr2h 000FDA  
                         fsr0l 000FE9                           indf2 000FDF                           fsr1l 000FE1  
                         fsr2l 000FD9                           btemp 0041       mode_TransLove@stop_arrow 00DD  
                         prodh 000FF4                           prodl 000FF3                           start 000E  
                __CFG_MCLRE$ON 000000                   ___param_bank 000000                          ?_main 0001  
               mode_clock@face 0150                 mode_clock@dark 0192                __end_of___awdiv 14BE  
              __end_of___awmod 152E                 mode_clock@minH 0188                 mode_clock@minL 018A  
               mode_clock@secH 018C                 mode_clock@secL 018E                ___awdiv@divisor 0015  
                        _T1CON 000FCD                 mode_clock@show 01A8                          i2l322 129A  
              ___awdiv@counter 0017                          _TRISA 000F92                          _TRISD 000F95  
             ??_mode_TransLove 0013                          _count 003F                          _hours 01EE  
                mode_tree@dark 00AC                          pclath 000FFA                          tablat 000FF5  
                mode_tree@move 00BA                  mode_tree@show 00B6                  mode_tree@tree 0080  
                        plusw1 000FE3                          plusw2 000FDB                   display_num@i 00B8  
                 display_num@n 001B                          status 000FD8                          wtemp6 0042  
                 ?_mode_walker 0001                __initialization 12E6                   __end_of_main 15EC  
          display_num@bright_i 00B2                mode_clock@F3093 01AC                         ??_main 0021  
              mode_clock@F3096 0200                mode_clock@F3098 01C8                  __activetblptr 000002  
              mode_clock@i_370 01A6                mode_clock@i_375 01A4                mode_clock@delay 01AA  
             ___awdiv@dividend 0013                mode_clock@state 019C                         _TMR1IE 007CE8  
                       _TMR1IF 007CF0                 mode_tree@F3010 0282                         ___wmul 1670  
                    ??___awdiv 0017            mode_tree@bright_284 00B0                      ??___awmod 0017  
                       _tc_int 0008               ___awdiv@quotient 0019                ___awmod@divisor 0015  
              ___awmod@counter 0017                 mode_tree@i_283 00BE           __size_of_display_num 0098  
          mode_TransLove@F3051 0021                 mode_tree@delay 00AE            mode_TransLove@F3053 02AC  
          mode_TransLove@F3061 00EC            mode_TransLove@F3055 00FB            mode_TransLove@F3063 00E7  
          mode_TransLove@F3071 002B            mode_TransLove@F3057 00F6            mode_TransLove@F3065 003A  
          mode_TransLove@F3059 00F1            mode_TransLove@F3067 0035            mode_TransLove@F3069 0030  
               mode_tree@cycle 00C0                   __pdataCOMRAM 0021                         tblptrh 000FF7  
                       tblptrl 000FF6                         tblptru 000FF8            mode_TransLove@delay 00E1  
          mode_TransLove@arrow 0080            mode_TransLove@cycle 00D7                     __accesstop 0080  
      __end_of__initialization 1394                __CFG_PBADEN$OFF 000000                  ___rparam_used 000001  
                  mode_clock@X 016A                    mode_clock@i 019E                    mode_clock@j 01A0  
               __pcstackCOMRAM 0001                   ?_update_time 0001                   __pidataBANK0 16B4  
                 __pidataBANK1 1632                   __pidataBANK2 115A                   __pidataBANK3 152E  
                   __pbssBANK1 01EA           __size_of_mode_walker 0566             __size_of_mode_tree 01C0  
                      ?___wmul 0013               mode_clock@face_i 01A2                        ?_tc_int 0001  
             mode_clock@bright 0190       mode_walker@display_cycle 016E             mode_clock@dark_373 0196  
           mode_clock@dark_377 019A                        __Hparam 0000                        __Lparam 0000  
                      ___awdiv 143A                        ___awmod 14BE                __size_of___wmul 0026  
                      __pcinit 12E6                        __ramtop 0600                __size_of_tc_int 12DE  
    mode_TransLove@arrow_speed 00DF                        __ptext0 159A                        __ptext1 061C  
                      __ptext2 0F9A                        __ptext3 0B82                        __ptext4 13A2  
                      __ptext5 1670                        __ptext6 14BE                        __ptext7 143A  
                      __ptext8 0012                     _mode_clock 0B82               ___awmod@dividend 0013  
                      _minutes 01EA                        _seconds 01EC                mode_walker@dark 0174  
            __end_of_mode_tree 115A                mode_walker@four 0188                mode_walker@move 0192  
              mode_walker@show 0184                 __pintcode_body 1226           end_of_initialization 1394  
              mode_tree@bright 00AA                  __Lmediumconst 0000                        int_func 1226  
                      postdec1 000FE5                        postdec2 000FDD                        postinc0 000FEE  
                      postinc2 000FDE                 display_num@num 0080           __size_of_update_time 0046  
         mode_TransLove@bright 00D9        __size_of_mode_TransLove 060A                  ??_display_num 001D  
               __end_of___wmul 1696                  __pidataCOMRAM 1696                   mode_walker@i 0198  
               __end_of_tc_int 12E6                    ?_mode_clock 0001            start_initialization 12E6  
           mode_tree@delay_286 00B4               __CFG_OSC$INTIO67 000000           mode_clock@bright_372 0194  
         mode_clock@bright_376 0198                       ??___wmul 0017                    __pdataBANK0 00E7  
                  __pdataBANK1 01AC                    __pdataBANK2 0200                    __pdataBANK3 0300  
                     ??_tc_int 0001             mode_TransLove@dark 00DB             mode_TransLove@love 00A0  
          __end_of_display_num 143A                    __pbssCOMRAM 003F                  __pcstackBANK0 0080  
                __pcstackBANK1 0100                     mode_tree@i 00B8                  ??_mode_walker 0019  
                    __pnvBANK1 01EE            __size_of_mode_clock 0418    mode_walker@update_next_time 017C  
                    __pintcode 0008                       ?___awdiv 0013                       ?___awmod 0013  
       mode_walker@pic_cycle_i 0178                      _mode_tree 0F9A                 _mode_TransLove 0012  
               ___wmul@product 0017                       _IPR1bits 000F9F                       _PIE1bits 000F9D  
                     _PIR1bits 000F9E                       _RCONbits 000FD0              mode_walker@bright 0172  
          __end_of_mode_walker 0B82              mode_walker@column 0186              mode_walker@walker 0100  
            mode_walker@update 017A                    _display_num 13A2              ___wmul@multiplier 0013  
                    copy_data0 12FA                      copy_data1 131A                      copy_data2 133A  
                    copy_data3 135A                      copy_data4 137A         __end_of_mode_TransLove 061C  
                   ?_mode_tree 0001              display_num@dark_i 00B4              mode_tree@dark_285 00B2  
                     __Hrparam 0000                       __Lrparam 0000                  ??_update_time 0001  
             __size_of___awdiv 0084               __size_of___awmod 0070                   ??_mode_clock 001D  
            mode_tree@show_282 00BC                       __ptext10 15EC        mode_clock@display_cycle 0186  
              ?_mode_TransLove 0001               mode_walker@F3030 01E2               mode_walker@F3028 0300  
                __size_of_main 0052                    _mode_walker 061C             __end_of_mode_clock 0F9A  
             mode_walker@delay 0170  mode_walker@state_change_cycle 0176           mode_walker@delay_305 0190  
             mode_walker@pic_i 0182               display_num@F3084 0250               mode_walker@state 0196  
                     int$flags 0041            __end_of_update_time 1632                     _INTCONbits 000FF2  
                     intlevel2 0000                    ??_mode_tree 0013           mode_walker@pic_cycle 016C  
                   _OSCCONbits 000FD3            mode_walker@dark_309 017E                display_num@iter 00B6  
              mode_TransLove@A 00B4                mode_TransLove@E 00D2                mode_TransLove@L 00C3  
              mode_TransLove@N 00B9                mode_TransLove@O 00C8                mode_TransLove@R 00AF  
              mode_TransLove@S 00BE                mode_TransLove@T 00AA                mode_TransLove@V 00CD  
              mode_TransLove@i 00E5          mode_TransLove@arrow_i 00E3  
