

Microchip Technology PIC18 LITE Macro Assembler V1.44 build -154322312 
                                                                                               Sat Dec 23 03:07:13 2017

Microchip Technology Omniscient Code Generator v1.44 (Free mode) build 201709140600
     1                           	processor	18F4520
     2                           	fnconf	rparam,??,?,0
     3                           	opt	pw 120
     4                           	opt	lm
     5                           	psect	idataCOMRAM,global,class=CODE,delta=1,noexec
     6                           	psect	idataBANK0,global,class=CODE,delta=1,noexec
     7                           	psect	idataBANK1,global,class=CODE,delta=1,noexec
     8                           	psect	idataBANK2,global,class=CODE,delta=1,noexec
     9                           	psect	nvCOMRAM,global,class=COMRAM,space=1,delta=1,noexec
    10                           	psect	cinit,global,reloc=2,class=CODE,delta=1
    11                           	psect	bssCOMRAM,global,class=COMRAM,space=1,delta=1,noexec
    12                           	psect	dataCOMRAM,global,class=COMRAM,space=1,delta=1,noexec
    13                           	psect	dataBANK0,global,class=BANK0,space=1,delta=1,lowdata,noexec
    14                           	psect	dataBANK1,global,class=BANK1,space=1,delta=1,lowdata,noexec
    15                           	psect	dataBANK2,global,class=BANK2,space=1,delta=1,lowdata,noexec
    16                           	psect	cstackBANK3,global,class=BANK3,space=1,delta=1,noexec
    17                           	psect	cstackCOMRAM,global,class=COMRAM,space=1,delta=1,noexec
    18                           	psect	text0,global,reloc=2,class=CODE,delta=1
    19                           	psect	text1,global,reloc=2,class=CODE,delta=1
    20                           	psect	text2,global,reloc=2,class=CODE,delta=1
    21                           	psect	text3,global,reloc=2,class=CODE,delta=1
    22                           	psect	text4,global,reloc=2,class=CODE,delta=1
    23                           	psect	text5,global,reloc=2,class=CODE,delta=1
    24                           	psect	text6,global,reloc=2,class=CODE,delta=1,group=1
    25                           	psect	text7,global,reloc=2,class=CODE,delta=1,group=1
    26                           	psect	text8,global,reloc=2,class=CODE,delta=1,group=1
    27                           	psect	text9,global,reloc=2,class=CODE,delta=1
    28                           	psect	intcode,global,reloc=2,class=CODE,delta=1
    29                           	psect	intcode_body,global,reloc=2,class=CODE,delta=1
    30                           	psect	text11,global,reloc=2,class=CODE,delta=1
    31                           	psect	intsave_regs,global,class=BIGRAM,space=1,delta=1,noexec
    32                           	psect	rparam,global,class=COMRAM,space=1,delta=1,noexec
    33                           	psect	temp,global,ovrld,common,class=COMRAM,space=1,delta=1
    34  0000                     
    35                           ; Version 1.44
    36                           ; Generated 14/09/2017 GMT
    37                           ; 
    38                           ; Copyright © 2017, Microchip Technology Inc. and its subsidiaries ("Microchip")
    39                           ; All rights reserved.
    40                           ; 
    41                           ; This software is developed by Microchip Technology Inc. and its subsidiaries ("Microch
      +                          ip").
    42                           ; 
    43                           ; Redistribution and use in source and binary forms, with or without modification, are
    44                           ; permitted provided that the following conditions are met:
    45                           ; 
    46                           ;     1. Redistributions of source code must retain the above copyright notice, this lis
      +                          t of
    47                           ;        conditions and the following disclaimer.
    48                           ; 
    49                           ;     2. Redistributions in binary form must reproduce the above copyright notice, this 
      +                          list
    50                           ;        of conditions and the following disclaimer in the documentation and/or other
    51                           ;        materials provided with the distribution.
    52                           ; 
    53                           ;     3. Microchip's name may not be used to endorse or promote products derived from th
      +                          is
    54                           ;        software without specific prior written permission.
    55                           ; 
    56                           ; THIS SOFTWARE IS PROVIDED BY MICROCHIP "AS IS" AND ANY EXPRESS OR IMPLIED WARRANTIES,
    57                           ; INCLUDING, BUT NOT LIMITED TO, THE IMPLIED WARRANTIES OF MERCHANTABILITY AND FITNESS F
      +                          OR
    58                           ; PURPOSE ARE DISCLAIMED.  IN NO EVENT SHALL MICROCHIP BE LIABLE FOR ANY DIRECT, INDIREC
      +                          T,
    59                           ; INCIDENTAL, SPECIAL, EXEMPLARY, OR CONSEQUENTIAL DAMAGES (INCLUDING BUT NOT LIMITED TO
    60                           ; PROCUREMENT OF SUBSTITUTE GOODS OR SERVICES; LOSS OF USE, DATA OR PROFITS; OR BUSINESS
    61                           ; INTERRUPTION) HOWSOEVER CAUSED AND ON ANY THEORY OF LIABILITY, WHETHER IN CONTRACT, ST
      +                          RICT
    62                           ; LIABILITY, OR TORT (INCLUDING NEGLIGENCE OR OTHERWISE) ARISING IN ANY WAY OUT OF THE U
      +                          SE OF
    63                           ; THIS SOFTWARE, EVEN IF ADVISED OF THE POSSIBILITY OF SUCH DAMAGE.
    64                           ; 
    65                           ; 
    66                           ; Code-generator required, PIC18F4520 Definitions
    67                           ; 
    68                           ; SFR Addresses
    69  0000                     
    70                           	psect	idataCOMRAM
    71  001EA4                     __pidataCOMRAM:
    72                           	opt stack 0
    73                           
    74                           ;initializer for _N
    75  001EA4  1F                 	db	31
    76  001EA5  02                 	db	2
    77  001EA6  04                 	db	4
    78  001EA7  08                 	db	8
    79  001EA8  1F                 	db	31
    80                           
    81                           ;initializer for _A
    82  001EA9  1C                 	db	28
    83  001EAA  0A                 	db	10
    84  001EAB  09                 	db	9
    85  001EAC  0A                 	db	10
    86  001EAD  1C                 	db	28
    87                           
    88                           ;initializer for _R
    89  001EAE  1F                 	db	31
    90  001EAF  05                 	db	5
    91  001EB0  05                 	db	5
    92  001EB1  0D                 	db	13
    93  001EB2  12                 	db	18
    94                           
    95                           ;initializer for _T
    96  001EB3  03                 	db	3
    97  001EB4  01                 	db	1
    98  001EB5  1F                 	db	31
    99  001EB6  01                 	db	1
   100  001EB7  03                 	db	3
   101                           
   102                           	psect	idataBANK0
   103  001CFC                     __pidataBANK0:
   104                           	opt stack 0
   105                           
   106                           ;initializer for mode_tree@F3046
   107  001CFC  0001               	dw	1
   108  001CFE  0000               	dw	0
   109  001D00  0000               	dw	0
   110  001D02  0000               	dw	0
   111  001D04  0000               	dw	0
   112  001D06  0000               	dw	0
   113                           
   114                           ;initializer for _love
   115  001D08  00                 	db	0
   116  001D09  0C                 	db	12
   117  001D0A  1E                 	db	30
   118  001D0B  3E                 	db	62
   119  001D0C  7C                 	db	124
   120  001D0D  3E                 	db	62
   121  001D0E  1E                 	db	30
   122  001D0F  0C                 	db	12
   123  001D10  00                 	db	0
   124  001D11  00                 	db	0
   125                           
   126                           ;initializer for mode_walker@F3089
   127  001D12  0001               	dw	1
   128  001D14  00                 	db	0
   129  001D15  00                 	db	0
   130  001D16  00                 	db	0
   131  001D17  00                 	db	0
   132  001D18  00                 	db	0
   133  001D19  00                 	db	0
   134                           
   135                           ;initializer for _E
   136  001D1A  1F                 	db	31
   137  001D1B  15                 	db	21
   138  001D1C  15                 	db	21
   139  001D1D  15                 	db	21
   140  001D1E  15                 	db	21
   141                           
   142                           ;initializer for _V
   143  001D1F  07                 	db	7
   144  001D20  0C                 	db	12
   145  001D21  10                 	db	16
   146  001D22  0C                 	db	12
   147  001D23  07                 	db	7
   148                           
   149                           ;initializer for _O
   150  001D24  0E                 	db	14
   151  001D25  11                 	db	17
   152  001D26  11                 	db	17
   153  001D27  11                 	db	17
   154  001D28  0E                 	db	14
   155                           
   156                           ;initializer for _L
   157  001D29  1F                 	db	31
   158  001D2A  10                 	db	16
   159  001D2B  10                 	db	16
   160  001D2C  10                 	db	16
   161  001D2D  10                 	db	16
   162                           
   163                           ;initializer for _S
   164  001D2E  12                 	db	18
   165  001D2F  15                 	db	21
   166  001D30  15                 	db	21
   167  001D31  15                 	db	21
   168  001D32  09                 	db	9
   169                           
   170                           ;initializer for _tree
   171  001D33  0100               	dw	256
   172  001D35  0000               	dw	0
   173  001D37  0000               	dw	0
   174  001D39  0180               	dw	384
   175  001D3B  0020               	dw	32
   176  001D3D  0060               	dw	96
   177  001D3F  0110               	dw	272
   178  001D41  0024               	dw	36
   179  001D43  010E               	dw	270
   180  001D45  0325               	dw	805
   181  001D47  010E               	dw	270
   182  001D49  0024               	dw	36
   183  001D4B  0110               	dw	272
   184  001D4D  0060               	dw	96
   185  001D4F  0020               	dw	32
   186  001D51  0180               	dw	384
   187  001D53  0000               	dw	0
   188  001D55  0000               	dw	0
   189  001D57  0100               	dw	256
   190  001D59  00                 	db	0
   191  001D5A  00                 	db	0
   192  001D5B  00                 	db	0
   193  001D5C  00                 	db	0
   194                           
   195                           ;initializer for _face
   196  001D5D  00FE               	dw	254
   197  001D5F  0107               	dw	263
   198  001D61  0237               	dw	567
   199  001D63  0236               	dw	566
   200  001D65  0237               	dw	567
   201  001D67  0286               	dw	646
   202  001D69  0286               	dw	646
   203  001D6B  0287               	dw	647
   204  001D6D  0236               	dw	566
   205  001D6F  0237               	dw	567
   206  001D71  0237               	dw	567
   207  001D73  0107               	dw	263
   208  001D75  00FE               	dw	254
   209                           
   210                           	psect	idataBANK1
   211  0019C0                     __pidataBANK1:
   212                           	opt stack 0
   213                           
   214                           ;initializer for _arrow
   215  0019C0  0032               	dw	50
   216  0019C2  0036               	dw	54
   217  0019C4  001C               	dw	28
   218  0019C6  0008               	dw	8
   219  0019C8  0008               	dw	8
   220  0019CA  0008               	dw	8
   221  0019CC  0008               	dw	8
   222  0019CE  0008               	dw	8
   223  0019D0  0008               	dw	8
   224  0019D2  0008               	dw	8
   225  0019D4  0008               	dw	8
   226  0019D6  0008               	dw	8
   227  0019D8  0008               	dw	8
   228  0019DA  002A               	dw	42
   229  0019DC  001C               	dw	28
   230  0019DE  0008               	dw	8
   231                           
   232                           ;initializer for _walker
   233  0019E0  0000               	dw	0
   234  0019E2  0200               	dw	512
   235  0019E4  0120               	dw	288
   236  0019E6  00D0               	dw	208
   237  0019E8  007F               	dw	127
   238  0019EA  02A7               	dw	679
   239  0019EC  0110               	dw	272
   240  0019EE  0000               	dw	0
   241  0019F0  0000               	dw	0
   242  0019F2  0000               	dw	0
   243  0019F4  0080               	dw	128
   244  0019F6  0130               	dw	304
   245  0019F8  0090               	dw	144
   246  0019FA  007F               	dw	127
   247  0019FC  0297               	dw	663
   248  0019FE  0120               	dw	288
   249  001A00  0020               	dw	32
   250  001A02  0000               	dw	0
   251  001A04  0080               	dw	128
   252  001A06  0108               	dw	264
   253  001A08  0088               	dw	136
   254  001A0A  0050               	dw	80
   255  001A0C  00BF               	dw	191
   256  001A0E  0317               	dw	791
   257  001A10  0020               	dw	32
   258  001A12  0040               	dw	64
   259  001A14  0000               	dw	0
   260  001A16  0000               	dw	0
   261  001A18  0140               	dw	320
   262  001A1A  0120               	dw	288
   263  001A1C  0090               	dw	144
   264  001A1E  037F               	dw	895
   265  001A20  0057               	dw	87
   266  001A22  0020               	dw	32
   267  001A24  0000               	dw	0
   268  001A26  0000               	dw	0
   269  001A28  0000               	dw	0
   270  001A2A  0200               	dw	512
   271  001A2C  0100               	dw	256
   272  001A2E  02B0               	dw	688
   273  001A30  017F               	dw	383
   274  001A32  0037               	dw	55
   275  001A34  0000               	dw	0
   276  001A36  0000               	dw	0
   277  001A38  0000               	dw	0
   278  001A3A  0200               	dw	512
   279  001A3C  0100               	dw	256
   280  001A3E  0080               	dw	128
   281  001A40  0050               	dw	80
   282  001A42  007F               	dw	127
   283  001A44  01D7               	dw	471
   284  001A46  0120               	dw	288
   285  001A48  0010               	dw	16
   286  001A4A  0000               	dw	0
   287                           
   288                           ;initializer for _num
   289  001A4C  1F                 	db	31
   290  001A4D  11                 	db	17
   291  001A4E  11                 	db	17
   292  001A4F  11                 	db	17
   293  001A50  1F                 	db	31
   294  001A51  00                 	db	0
   295  001A52  00                 	db	0
   296  001A53  1F                 	db	31
   297  001A54  00                 	db	0
   298  001A55  00                 	db	0
   299  001A56  1C                 	db	28
   300  001A57  15                 	db	21
   301  001A58  15                 	db	21
   302  001A59  15                 	db	21
   303  001A5A  17                 	db	23
   304  001A5B  10                 	db	16
   305  001A5C  11                 	db	17
   306  001A5D  15                 	db	21
   307  001A5E  15                 	db	21
   308  001A5F  1F                 	db	31
   309  001A60  07                 	db	7
   310  001A61  04                 	db	4
   311  001A62  04                 	db	4
   312  001A63  1F                 	db	31
   313  001A64  04                 	db	4
   314  001A65  17                 	db	23
   315  001A66  15                 	db	21
   316  001A67  15                 	db	21
   317  001A68  15                 	db	21
   318  001A69  1D                 	db	29
   319  001A6A  1F                 	db	31
   320  001A6B  14                 	db	20
   321  001A6C  14                 	db	20
   322  001A6D  14                 	db	20
   323  001A6E  1C                 	db	28
   324  001A6F  00                 	db	0
   325  001A70  01                 	db	1
   326  001A71  01                 	db	1
   327  001A72  01                 	db	1
   328  001A73  1F                 	db	31
   329  001A74  1F                 	db	31
   330  001A75  15                 	db	21
   331  001A76  15                 	db	21
   332  001A77  15                 	db	21
   333  001A78  1F                 	db	31
   334  001A79  07                 	db	7
   335  001A7A  05                 	db	5
   336  001A7B  05                 	db	5
   337  001A7C  05                 	db	5
   338  001A7D  1F                 	db	31
   339                           
   340                           ;initializer for _X
   341  001A7E  0200               	dw	512
   342  001A80  0200               	dw	512
   343  001A82  0303               	dw	771
   344  001A84  0101               	dw	257
   345  001A86  01CF               	dw	463
   346  001A88  00DC               	dw	220
   347  001A8A  0070               	dw	112
   348  001A8C  0038               	dw	56
   349  001A8E  00EC               	dw	236
   350  001A90  01CF               	dw	463
   351  001A92  0301               	dw	769
   352  001A94  0203               	dw	515
   353  001A96  0200               	dw	512
   354  001A98  0200               	dw	512
   355                           
   356                           	psect	idataBANK2
   357  0018D2                     __pidataBANK2:
   358                           	opt stack 0
   359                           
   360                           ;initializer for _snow_car
   361  0018D2  0018               	dw	24
   362  0018D4  003C               	dw	60
   363  0018D6  003C               	dw	60
   364  0018D8  0078               	dw	120
   365  0018DA  00D0               	dw	208
   366  0018DC  0190               	dw	400
   367  0018DE  0010               	dw	16
   368  0018E0  0010               	dw	16
   369  0018E2  0010               	dw	16
   370  0018E4  0010               	dw	16
   371  0018E6  0024               	dw	36
   372  0018E8  004C               	dw	76
   373  0018EA  00FC               	dw	252
   374  0018EC  0080               	dw	128
   375  0018EE  0180               	dw	384
   376  0018F0  00FC               	dw	252
   377  0018F2  0095               	dw	149
   378  0018F4  00FE               	dw	254
   379  0018F6  0096               	dw	150
   380  0018F8  01FD               	dw	509
   381  0018FA  0080               	dw	128
   382  0018FC  00FC               	dw	252
   383  0018FE  0095               	dw	149
   384  001900  00FE               	dw	254
   385  001902  0095               	dw	149
   386  001904  00FC               	dw	252
   387  001906  0080               	dw	128
   388  001908  00FC               	dw	252
   389  00190A  0095               	dw	149
   390  00190C  00FE               	dw	254
   391  00190E  0095               	dw	149
   392  001910  00FC               	dw	252
   393  001912  0080               	dw	128
   394  001914  01FD               	dw	509
   395  001916  0096               	dw	150
   396  001918  00FE               	dw	254
   397  00191A  0195               	dw	405
   398  00191C  00FC               	dw	252
   399  00191E  0080               	dw	128
   400  001920  00FC               	dw	252
   401  001922  000C               	dw	12
   402  001924  0004               	dw	4
   403  001926  0000               	dw	0
   404                           
   405                           ;initializer for _MAS
   406  001928  0000               	dw	0
   407  00192A  0000               	dw	0
   408  00192C  0000               	dw	0
   409  00192E  0003               	dw	3
   410  001930  000B               	dw	11
   411  001932  0007               	dw	7
   412  001934  0000               	dw	0
   413  001936  0000               	dw	0
   414  001938  0000               	dw	0
   415  00193A  0000               	dw	0
   416  00193C  0303               	dw	771
   417  00193E  03FF               	dw	1023
   418  001940  000E               	dw	14
   419  001942  0018               	dw	24
   420  001944  0030               	dw	48
   421  001946  0030               	dw	48
   422  001948  0018               	dw	24
   423  00194A  000E               	dw	14
   424  00194C  03FF               	dw	1023
   425  00194E  0303               	dw	771
   426  001950  0300               	dw	768
   427  001952  03F0               	dw	1008
   428  001954  027C               	dw	636
   429  001956  002E               	dw	46
   430  001958  0023               	dw	35
   431  00195A  0023               	dw	35
   432  00195C  002E               	dw	46
   433  00195E  027C               	dw	636
   434  001960  03F0               	dw	1008
   435  001962  0300               	dw	768
   436  001964  038C               	dw	908
   437  001966  019E               	dw	414
   438  001968  0333               	dw	819
   439  00196A  0323               	dw	803
   440  00196C  0221               	dw	545
   441  00196E  0211               	dw	529
   442  001970  0313               	dw	787
   443  001972  0337               	dw	823
   444  001974  01E6               	dw	486
   445  001976  00C7               	dw	199
   446                           
   447                           ;initializer for _elk
   448  001978  000C               	dw	12
   449  00197A  000C               	dw	12
   450  00197C  010F               	dw	271
   451  00197E  00BC               	dw	188
   452  001980  01FA               	dw	506
   453  001982  0079               	dw	121
   454  001984  0078               	dw	120
   455  001986  0078               	dw	120
   456  001988  0178               	dw	376
   457  00198A  00F8               	dw	248
   458  00198C  01B0               	dw	432
   459  00198E  0000               	dw	0
   460  001990  000C               	dw	12
   461  001992  000C               	dw	12
   462  001994  000F               	dw	15
   463  001996  01BC               	dw	444
   464  001998  00FA               	dw	250
   465  00199A  0179               	dw	377
   466  00199C  0078               	dw	120
   467  00199E  0078               	dw	120
   468  0019A0  0078               	dw	120
   469  0019A2  01F8               	dw	504
   470  0019A4  0090               	dw	144
   471  0019A6  0120               	dw	288
   472  0019A8  000C               	dw	12
   473  0019AA  000C               	dw	12
   474  0019AC  008F               	dw	143
   475  0019AE  00BC               	dw	188
   476  0019B0  01FA               	dw	506
   477  0019B2  0079               	dw	121
   478  0019B4  0078               	dw	120
   479  0019B6  0078               	dw	120
   480  0019B8  00F8               	dw	248
   481  0019BA  00F8               	dw	248
   482  0019BC  01B0               	dw	432
   483  0019BE  00                 	db	0
   484  0019BF  00                 	db	0
   485                           
   486                           	psect	nvCOMRAM
   487  000067                     __pnvCOMRAM:
   488                           	opt stack 0
   489  000067                     _hours:
   490                           	opt stack 0
   491  000067                     	ds	2
   492  0000                     _TMR1	set	4046
   493  0000                     _TRISD	set	3989
   494  0000                     _TRISA	set	3986
   495  0000                     _INTCONbits	set	4082
   496  0000                     _PIR1bits	set	3998
   497  0000                     _IPR1bits	set	3999
   498  0000                     _PIE1bits	set	3997
   499  0000                     _T1CON	set	4045
   500  0000                     _RCONbits	set	4048
   501  0000                     _OSCCONbits	set	4051
   502  0000                     _LATDbits	set	3980
   503  0000                     _LATAbits	set	3977
   504  0000                     _LATD	set	3980
   505  0000                     _LATA	set	3977
   506  0000                     _TMR1IF	set	31984
   507  0000                     _TMR1IE	set	31976
   508                           
   509                           ; #config settings
   510  0000                     
   511                           	psect	cinit
   512  001B5A                     __pcinit:
   513                           	opt stack 0
   514  001B5A                     start_initialization:
   515                           	opt stack 0
   516  001B5A                     __initialization:
   517                           	opt stack 0
   518                           
   519                           ; Initialize objects allocated to BANK2 (238 bytes)
   520                           ; load TBLPTR registers with __pidataBANK2
   521  001B5A  0ED2               	movlw	low __pidataBANK2
   522  001B5C  6EF6               	movwf	tblptrl,c
   523  001B5E  0E18               	movlw	high __pidataBANK2
   524  001B60  6EF7               	movwf	tblptrh,c
   525  001B62  0E00               	movlw	low (__pidataBANK2 shr (0+16))
   526  001B64  6EF8               	movwf	tblptru,c
   527  001B66  EE02  F000         	lfsr	0,__pdataBANK2
   528  001B6A  EE10 F0EE          	lfsr	1,238
   529  001B6E                     copy_data0:
   530  001B6E  0009               	tblrd		*+
   531  001B70  CFF5 FFEE          	movff	tablat,postinc0
   532  001B74  50E5               	movf	postdec1,w,c
   533  001B76  50E1               	movf	fsr1l,w,c
   534  001B78  E1FA               	bnz	copy_data0
   535                           
   536                           ; Initialize objects allocated to BANK1 (218 bytes)
   537                           ; load TBLPTR registers with __pidataBANK1
   538  001B7A  0EC0               	movlw	low __pidataBANK1
   539  001B7C  6EF6               	movwf	tblptrl,c
   540  001B7E  0E19               	movlw	high __pidataBANK1
   541  001B80  6EF7               	movwf	tblptrh,c
   542  001B82  0E00               	movlw	low (__pidataBANK1 shr (0+16))
   543  001B84  6EF8               	movwf	tblptru,c
   544  001B86  EE01  F000         	lfsr	0,__pdataBANK1
   545  001B8A  EE10 F0DA          	lfsr	1,218
   546  001B8E                     copy_data1:
   547  001B8E  0009               	tblrd		*+
   548  001B90  CFF5 FFEE          	movff	tablat,postinc0
   549  001B94  50E5               	movf	postdec1,w,c
   550  001B96  50E1               	movf	fsr1l,w,c
   551  001B98  E1FA               	bnz	copy_data1
   552                           
   553                           ; Initialize objects allocated to BANK0 (123 bytes)
   554                           ; load TBLPTR registers with __pidataBANK0
   555  001B9A  0EFC               	movlw	low __pidataBANK0
   556  001B9C  6EF6               	movwf	tblptrl,c
   557  001B9E  0E1C               	movlw	high __pidataBANK0
   558  001BA0  6EF7               	movwf	tblptrh,c
   559  001BA2  0E00               	movlw	low (__pidataBANK0 shr (0+16))
   560  001BA4  6EF8               	movwf	tblptru,c
   561  001BA6  EE00  F080         	lfsr	0,__pdataBANK0
   562  001BAA  EE10 F07B          	lfsr	1,123
   563  001BAE                     copy_data2:
   564  001BAE  0009               	tblrd		*+
   565  001BB0  CFF5 FFEE          	movff	tablat,postinc0
   566  001BB4  50E5               	movf	postdec1,w,c
   567  001BB6  50E1               	movf	fsr1l,w,c
   568  001BB8  E1FA               	bnz	copy_data2
   569                           
   570                           ; Initialize objects allocated to COMRAM (20 bytes)
   571                           ; load TBLPTR registers with __pidataCOMRAM
   572  001BBA  0EA4               	movlw	low __pidataCOMRAM
   573  001BBC  6EF6               	movwf	tblptrl,c
   574  001BBE  0E1E               	movlw	high __pidataCOMRAM
   575  001BC0  6EF7               	movwf	tblptrh,c
   576  001BC2  0E00               	movlw	low (__pidataCOMRAM shr (0+16))
   577  001BC4  6EF8               	movwf	tblptru,c
   578  001BC6  EE00  F04D         	lfsr	0,__pdataCOMRAM
   579  001BCA  EE10 F014          	lfsr	1,20
   580  001BCE                     copy_data3:
   581  001BCE  0009               	tblrd		*+
   582  001BD0  CFF5 FFEE          	movff	tablat,postinc0
   583  001BD4  50E5               	movf	postdec1,w,c
   584  001BD6  50E1               	movf	fsr1l,w,c
   585  001BD8  E1FA               	bnz	copy_data3
   586                           
   587                           ; Clear objects allocated to COMRAM (6 bytes)
   588  001BDA  6A66               	clrf	(__pbssCOMRAM+5)& (0+255),c
   589  001BDC  6A65               	clrf	(__pbssCOMRAM+4)& (0+255),c
   590  001BDE  6A64               	clrf	(__pbssCOMRAM+3)& (0+255),c
   591  001BE0  6A63               	clrf	(__pbssCOMRAM+2)& (0+255),c
   592  001BE2  6A62               	clrf	(__pbssCOMRAM+1)& (0+255),c
   593  001BE4  6A61               	clrf	__pbssCOMRAM& (0+255),c
   594  001BE6                     end_of_initialization:
   595                           	opt stack 0
   596  001BE6                     __end_of__initialization:
   597                           	opt stack 0
   598  001BE6  9069               	bcf	int$flags,0,c	;clear compiler interrupt flag (level 1)
   599  001BE8  9269               	bcf	int$flags,1,c	;clear compiler interrupt flag (level 2)
   600  001BEA  0E00               	movlw	low (__Lmediumconst shr (0+16))
   601  001BEC  6EF8               	movwf	tblptru,c
   602  001BEE  0100               	movlb	0
   603  001BF0  EFF4  F00E         	goto	_main	;jump to C main() function
   604                           tblptru	equ	0xFF8
   605                           tblptrh	equ	0xFF7
   606                           tblptrl	equ	0xFF6
   607                           tablat	equ	0xFF5
   608                           postinc0	equ	0xFEE
   609                           postdec1	equ	0xFE5
   610                           fsr1l	equ	0xFE1
   611                           
   612                           	psect	bssCOMRAM
   613  000061                     __pbssCOMRAM:
   614                           	opt stack 0
   615  000061                     _minutes:
   616                           	opt stack 0
   617  000061                     	ds	2
   618  000063                     _seconds:
   619                           	opt stack 0
   620  000063                     	ds	2
   621  000065                     _count:
   622                           	opt stack 0
   623  000065                     	ds	2
   624                           tblptru	equ	0xFF8
   625                           tblptrh	equ	0xFF7
   626                           tblptrl	equ	0xFF6
   627                           tablat	equ	0xFF5
   628                           postinc0	equ	0xFEE
   629                           postdec1	equ	0xFE5
   630                           fsr1l	equ	0xFE1
   631                           
   632                           	psect	dataCOMRAM
   633  00004D                     __pdataCOMRAM:
   634                           	opt stack 0
   635  00004D                     _N:
   636                           	opt stack 0
   637  00004D                     	ds	5
   638  000052                     _A:
   639                           	opt stack 0
   640  000052                     	ds	5
   641  000057                     _R:
   642                           	opt stack 0
   643  000057                     	ds	5
   644  00005C                     _T:
   645                           	opt stack 0
   646  00005C                     	ds	5
   647                           tblptru	equ	0xFF8
   648                           tblptrh	equ	0xFF7
   649                           tblptrl	equ	0xFF6
   650                           tablat	equ	0xFF5
   651                           postinc0	equ	0xFEE
   652                           postdec1	equ	0xFE5
   653                           fsr1l	equ	0xFE1
   654                           
   655                           	psect	dataBANK0
   656  000080                     __pdataBANK0:
   657                           	opt stack 0
   658  000080                     mode_tree@F3046:
   659                           	opt stack 0
   660  000080                     	ds	12
   661  00008C                     _love:
   662                           	opt stack 0
   663  00008C                     	ds	10
   664  000096                     mode_walker@F3089:
   665                           	opt stack 0
   666  000096                     	ds	8
   667  00009E                     _E:
   668                           	opt stack 0
   669  00009E                     	ds	5
   670  0000A3                     _V:
   671                           	opt stack 0
   672  0000A3                     	ds	5
   673  0000A8                     _O:
   674                           	opt stack 0
   675  0000A8                     	ds	5
   676  0000AD                     _L:
   677                           	opt stack 0
   678  0000AD                     	ds	5
   679  0000B2                     _S:
   680                           	opt stack 0
   681  0000B2                     	ds	5
   682  0000B7                     _tree:
   683                           	opt stack 0
   684  0000B7                     	ds	42
   685  0000E1                     _face:
   686                           	opt stack 0
   687  0000E1                     	ds	26
   688                           tblptru	equ	0xFF8
   689                           tblptrh	equ	0xFF7
   690                           tblptrl	equ	0xFF6
   691                           tablat	equ	0xFF5
   692                           postinc0	equ	0xFEE
   693                           postdec1	equ	0xFE5
   694                           fsr1l	equ	0xFE1
   695                           
   696                           	psect	dataBANK1
   697  000100                     __pdataBANK1:
   698                           	opt stack 0
   699  000100                     _arrow:
   700                           	opt stack 0
   701  000100                     	ds	32
   702  000120                     _walker:
   703                           	opt stack 0
   704  000120                     	ds	108
   705  00018C                     _num:
   706                           	opt stack 0
   707  00018C                     	ds	50
   708  0001BE                     _X:
   709                           	opt stack 0
   710  0001BE                     	ds	28
   711                           tblptru	equ	0xFF8
   712                           tblptrh	equ	0xFF7
   713                           tblptrl	equ	0xFF6
   714                           tablat	equ	0xFF5
   715                           postinc0	equ	0xFEE
   716                           postdec1	equ	0xFE5
   717                           fsr1l	equ	0xFE1
   718                           
   719                           	psect	dataBANK2
   720  000200                     __pdataBANK2:
   721                           	opt stack 0
   722  000200                     _snow_car:
   723                           	opt stack 0
   724  000200                     	ds	86
   725  000256                     _MAS:
   726                           	opt stack 0
   727  000256                     	ds	80
   728  0002A6                     _elk:
   729                           	opt stack 0
   730  0002A6                     	ds	72
   731                           tblptru	equ	0xFF8
   732                           tblptrh	equ	0xFF7
   733                           tblptrl	equ	0xFF6
   734                           tablat	equ	0xFF5
   735                           postinc0	equ	0xFEE
   736                           postdec1	equ	0xFE5
   737                           fsr1l	equ	0xFE1
   738                           
   739                           	psect	cstackBANK3
   740  000300                     __pcstackBANK3:
   741                           	opt stack 0
   742  000300                     mode_tree@count_4:
   743                           	opt stack 0
   744  000300                     mode_walker@bright:
   745                           	opt stack 0
   746                           
   747                           ; 2 bytes @ 0x0
   748  000300                     	ds	2
   749  000302                     mode_tree@state:
   750                           	opt stack 0
   751  000302                     mode_walker@dark:
   752                           	opt stack 0
   753                           
   754                           ; 2 bytes @ 0x2
   755  000302                     	ds	2
   756  000304                     mode_tree@bright:
   757                           	opt stack 0
   758  000304                     mode_walker@bright_457:
   759                           	opt stack 0
   760                           
   761                           ; 2 bytes @ 0x4
   762  000304                     	ds	2
   763  000306                     mode_tree@dark:
   764                           	opt stack 0
   765  000306                     mode_walker@dark_458:
   766                           	opt stack 0
   767                           
   768                           ; 2 bytes @ 0x6
   769  000306                     	ds	2
   770  000308                     mode_tree@wait:
   771                           	opt stack 0
   772  000308                     mode_walker@bright_461:
   773                           	opt stack 0
   774                           
   775                           ; 2 bytes @ 0x8
   776  000308                     	ds	2
   777  00030A                     mode_tree@bright_420:
   778                           	opt stack 0
   779  00030A                     mode_walker@dark_462:
   780                           	opt stack 0
   781                           
   782                           ; 2 bytes @ 0xA
   783  00030A                     	ds	2
   784  00030C                     mode_tree@dark_421:
   785                           	opt stack 0
   786  00030C                     mode_walker@state_change_cycle:
   787                           	opt stack 0
   788                           
   789                           ; 2 bytes @ 0xC
   790  00030C                     	ds	2
   791  00030E                     mode_tree@bright_425:
   792                           	opt stack 0
   793  00030E                     mode_walker@dark_459:
   794                           	opt stack 0
   795                           
   796                           ; 2 bytes @ 0xE
   797  00030E                     	ds	2
   798  000310                     mode_tree@dark_426:
   799                           	opt stack 0
   800  000310                     mode_walker@update:
   801                           	opt stack 0
   802                           
   803                           ; 2 bytes @ 0x10
   804  000310                     	ds	2
   805  000312                     mode_tree@bright_429:
   806                           	opt stack 0
   807  000312                     mode_walker@update_next_time:
   808                           	opt stack 0
   809                           
   810                           ; 2 bytes @ 0x12
   811  000312                     	ds	2
   812  000314                     mode_tree@dark_430:
   813                           	opt stack 0
   814  000314                     mode_walker@pic_cycle:
   815                           	opt stack 0
   816                           
   817                           ; 2 bytes @ 0x14
   818  000314                     	ds	2
   819  000316                     mode_tree@bright_435:
   820                           	opt stack 0
   821  000316                     mode_walker@dark_455:
   822                           	opt stack 0
   823                           
   824                           ; 4 bytes @ 0x16
   825  000316                     	ds	2
   826  000318                     mode_tree@dark_436:
   827                           	opt stack 0
   828                           
   829                           ; 2 bytes @ 0x18
   830  000318                     	ds	2
   831  00031A                     mode_tree@six_ptr:
   832                           	opt stack 0
   833  00031A                     mode_walker@column:
   834                           	opt stack 0
   835                           
   836                           ; 2 bytes @ 0x1A
   837  00031A                     	ds	2
   838  00031C                     mode_tree@six_ptr_415:
   839                           	opt stack 0
   840  00031C                     mode_walker@column_456:
   841                           	opt stack 0
   842                           
   843                           ; 2 bytes @ 0x1C
   844  00031C                     	ds	2
   845  00031E                     mode_tree@six_i:
   846                           	opt stack 0
   847  00031E                     mode_walker@column_460:
   848                           	opt stack 0
   849                           
   850                           ; 2 bytes @ 0x1E
   851  00031E                     	ds	2
   852  000320                     mode_tree@show:
   853                           	opt stack 0
   854  000320                     mode_walker@pic_cycle_i:
   855                           	opt stack 0
   856                           
   857                           ; 2 bytes @ 0x20
   858  000320                     	ds	2
   859  000322                     mode_tree@i:
   860                           	opt stack 0
   861  000322                     mode_walker@four:
   862                           	opt stack 0
   863                           
   864                           ; 8 bytes @ 0x22
   865  000322                     	ds	2
   866  000324                     mode_tree@move:
   867                           	opt stack 0
   868                           
   869                           ; 2 bytes @ 0x24
   870  000324                     	ds	2
   871  000326                     mode_tree@show_417:
   872                           	opt stack 0
   873                           
   874                           ; 2 bytes @ 0x26
   875  000326                     	ds	2
   876  000328                     mode_tree@i_418:
   877                           	opt stack 0
   878                           
   879                           ; 2 bytes @ 0x28
   880  000328                     	ds	2
   881  00032A                     mode_tree@show_423:
   882                           	opt stack 0
   883  00032A                     mode_walker@display_cycle:
   884                           	opt stack 0
   885                           
   886                           ; 2 bytes @ 0x2A
   887  00032A                     	ds	2
   888  00032C                     mode_tree@i_424:
   889                           	opt stack 0
   890  00032C                     mode_walker@pic_i:
   891                           	opt stack 0
   892                           
   893                           ; 2 bytes @ 0x2C
   894  00032C                     	ds	2
   895  00032E                     mode_tree@show_427:
   896                           	opt stack 0
   897  00032E                     mode_walker@show:
   898                           	opt stack 0
   899                           
   900                           ; 2 bytes @ 0x2E
   901  00032E                     	ds	2
   902  000330                     mode_tree@i_428:
   903                           	opt stack 0
   904  000330                     mode_walker@state:
   905                           	opt stack 0
   906                           
   907                           ; 2 bytes @ 0x30
   908  000330                     	ds	2
   909  000332                     mode_tree@tree_i:
   910                           	opt stack 0
   911  000332                     mode_walker@move:
   912                           	opt stack 0
   913                           
   914                           ; 2 bytes @ 0x32
   915  000332                     	ds	2
   916  000334                     mode_tree@show_433:
   917                           	opt stack 0
   918  000334                     mode_walker@delay:
   919                           	opt stack 0
   920                           
   921                           ; 2 bytes @ 0x34
   922  000334                     	ds	2
   923  000336                     mode_tree@i_434:
   924                           	opt stack 0
   925  000336                     mode_walker@i:
   926                           	opt stack 0
   927                           
   928                           ; 2 bytes @ 0x36
   929  000336                     	ds	2
   930  000338                     mode_tree@six:
   931                           	opt stack 0
   932                           
   933                           ; 12 bytes @ 0x38
   934  000338                     	ds	12
   935  000344                     mode_tree@cycle:
   936                           	opt stack 0
   937                           
   938                           ; 2 bytes @ 0x44
   939  000344                     	ds	2
   940  000346                     mode_tree@six_i_416:
   941                           	opt stack 0
   942                           
   943                           ; 2 bytes @ 0x46
   944  000346                     	ds	2
   945  000348                     mode_tree@interval:
   946                           	opt stack 0
   947                           
   948                           ; 2 bytes @ 0x48
   949  000348                     	ds	2
   950  00034A                     mode_tree@count:
   951                           	opt stack 0
   952                           
   953                           ; 2 bytes @ 0x4A
   954  00034A                     	ds	2
   955  00034C                     mode_tree@delay:
   956                           	opt stack 0
   957                           
   958                           ; 2 bytes @ 0x4C
   959  00034C                     	ds	2
   960                           tblptru	equ	0xFF8
   961                           tblptrh	equ	0xFF7
   962                           tblptrl	equ	0xFF6
   963                           tablat	equ	0xFF5
   964                           postinc0	equ	0xFEE
   965                           postdec1	equ	0xFE5
   966                           fsr1l	equ	0xFE1
   967                           
   968                           	psect	cstackCOMRAM
   969  000001                     __pcstackCOMRAM:
   970                           	opt stack 0
   971  000001                     ??_tc_int:
   972  000001                     
   973                           ; 1 bytes @ 0x0
   974  000001                     	ds	18
   975  000013                     ??_mode_tree:
   976  000013                     ??_mode_TransLove:
   977  000013                     ?___wmul:
   978                           	opt stack 0
   979  000013                     ?___awdiv:
   980                           	opt stack 0
   981  000013                     ?___awmod:
   982                           	opt stack 0
   983  000013                     ___wmul@multiplier:
   984                           	opt stack 0
   985  000013                     ___awdiv@dividend:
   986                           	opt stack 0
   987  000013                     ___awmod@dividend:
   988                           	opt stack 0
   989                           
   990                           ; 2 bytes @ 0x12
   991  000013                     	ds	2
   992  000015                     ___wmul@multiplicand:
   993                           	opt stack 0
   994  000015                     ___awdiv@divisor:
   995                           	opt stack 0
   996  000015                     ___awmod@divisor:
   997                           	opt stack 0
   998                           
   999                           ; 2 bytes @ 0x14
  1000  000015                     	ds	2
  1001  000017                     ___awdiv@counter:
  1002                           	opt stack 0
  1003  000017                     ___awmod@counter:
  1004                           	opt stack 0
  1005  000017                     mode_TransLove@cycle:
  1006                           	opt stack 0
  1007  000017                     ___wmul@product:
  1008                           	opt stack 0
  1009                           
  1010                           ; 2 bytes @ 0x16
  1011  000017                     	ds	1
  1012  000018                     ___awdiv@sign:
  1013                           	opt stack 0
  1014  000018                     ___awmod@sign:
  1015                           	opt stack 0
  1016                           
  1017                           ; 1 bytes @ 0x17
  1018  000018                     	ds	1
  1019  000019                     ??_mode_snow:
  1020  000019                     ??_mode_walker:
  1021  000019                     mode_TransLove@bright:
  1022                           	opt stack 0
  1023  000019                     ___awdiv@quotient:
  1024                           	opt stack 0
  1025                           
  1026                           ; 2 bytes @ 0x18
  1027  000019                     	ds	2
  1028  00001B                     mode_snow@display_cycle:
  1029                           	opt stack 0
  1030  00001B                     mode_TransLove@dark:
  1031                           	opt stack 0
  1032  00001B                     display_num@n:
  1033                           	opt stack 0
  1034                           
  1035                           ; 2 bytes @ 0x1A
  1036  00001B                     	ds	2
  1037  00001D                     mode_snow@count_walker:
  1038                           	opt stack 0
  1039  00001D                     mode_TransLove@stop_arrow:
  1040                           	opt stack 0
  1041  00001D                     display_num@bright_i:
  1042                           	opt stack 0
  1043                           
  1044                           ; 2 bytes @ 0x1C
  1045  00001D                     	ds	2
  1046  00001F                     mode_snow@count_elk:
  1047                           	opt stack 0
  1048  00001F                     mode_TransLove@arrow_speed:
  1049                           	opt stack 0
  1050  00001F                     display_num@dark_i:
  1051                           	opt stack 0
  1052                           
  1053                           ; 2 bytes @ 0x1E
  1054  00001F                     	ds	2
  1055  000021                     mode_snow@walker_pic_i:
  1056                           	opt stack 0
  1057  000021                     mode_TransLove@delay:
  1058                           	opt stack 0
  1059  000021                     display_num@iter:
  1060                           	opt stack 0
  1061                           
  1062                           ; 2 bytes @ 0x20
  1063  000021                     	ds	2
  1064  000023                     mode_snow@elk_pic_i:
  1065                           	opt stack 0
  1066  000023                     mode_TransLove@arrow_i:
  1067                           	opt stack 0
  1068  000023                     display_num@i:
  1069                           	opt stack 0
  1070                           
  1071                           ; 2 bytes @ 0x22
  1072  000023                     	ds	2
  1073  000025                     ??_mode_clock:
  1074  000025                     mode_snow@i_399:
  1075                           	opt stack 0
  1076  000025                     mode_TransLove@i:
  1077                           	opt stack 0
  1078                           
  1079                           ; 2 bytes @ 0x24
  1080  000025                     	ds	2
  1081  000027                     mode_snow@i_400:
  1082                           	opt stack 0
  1083  000027                     mode_clock@display_cycle:
  1084                           	opt stack 0
  1085                           
  1086                           ; 2 bytes @ 0x26
  1087  000027                     	ds	2
  1088  000029                     mode_snow@i:
  1089                           	opt stack 0
  1090  000029                     mode_clock@minH:
  1091                           	opt stack 0
  1092                           
  1093                           ; 2 bytes @ 0x28
  1094  000029                     	ds	2
  1095  00002B                     mode_snow@show:
  1096                           	opt stack 0
  1097  00002B                     mode_clock@minL:
  1098                           	opt stack 0
  1099                           
  1100                           ; 2 bytes @ 0x2A
  1101  00002B                     	ds	2
  1102  00002D                     mode_snow@delay:
  1103                           	opt stack 0
  1104  00002D                     mode_clock@secH:
  1105                           	opt stack 0
  1106                           
  1107                           ; 2 bytes @ 0x2C
  1108  00002D                     	ds	2
  1109  00002F                     mode_clock@secL:
  1110                           	opt stack 0
  1111                           
  1112                           ; 2 bytes @ 0x2E
  1113  00002F                     	ds	2
  1114  000031                     mode_clock@bright:
  1115                           	opt stack 0
  1116                           
  1117                           ; 2 bytes @ 0x30
  1118  000031                     	ds	2
  1119  000033                     mode_clock@dark:
  1120                           	opt stack 0
  1121                           
  1122                           ; 2 bytes @ 0x32
  1123  000033                     	ds	2
  1124  000035                     mode_clock@bright_493:
  1125                           	opt stack 0
  1126                           
  1127                           ; 2 bytes @ 0x34
  1128  000035                     	ds	2
  1129  000037                     mode_clock@dark_494:
  1130                           	opt stack 0
  1131                           
  1132                           ; 2 bytes @ 0x36
  1133  000037                     	ds	2
  1134  000039                     mode_clock@bright_497:
  1135                           	opt stack 0
  1136                           
  1137                           ; 2 bytes @ 0x38
  1138  000039                     	ds	2
  1139  00003B                     mode_clock@dark_498:
  1140                           	opt stack 0
  1141                           
  1142                           ; 2 bytes @ 0x3A
  1143  00003B                     	ds	2
  1144  00003D                     mode_clock@state:
  1145                           	opt stack 0
  1146                           
  1147                           ; 2 bytes @ 0x3C
  1148  00003D                     	ds	2
  1149  00003F                     mode_clock@i:
  1150                           	opt stack 0
  1151                           
  1152                           ; 2 bytes @ 0x3E
  1153  00003F                     	ds	2
  1154  000041                     mode_clock@j:
  1155                           	opt stack 0
  1156                           
  1157                           ; 2 bytes @ 0x40
  1158  000041                     	ds	2
  1159  000043                     mode_clock@face_i:
  1160                           	opt stack 0
  1161                           
  1162                           ; 2 bytes @ 0x42
  1163  000043                     	ds	2
  1164  000045                     mode_clock@i_496:
  1165                           	opt stack 0
  1166                           
  1167                           ; 2 bytes @ 0x44
  1168  000045                     	ds	2
  1169  000047                     mode_clock@i_491:
  1170                           	opt stack 0
  1171                           
  1172                           ; 2 bytes @ 0x46
  1173  000047                     	ds	2
  1174  000049                     mode_clock@show:
  1175                           	opt stack 0
  1176                           
  1177                           ; 2 bytes @ 0x48
  1178  000049                     	ds	2
  1179  00004B                     mode_clock@delay:
  1180                           	opt stack 0
  1181                           
  1182                           ; 2 bytes @ 0x4A
  1183  00004B                     	ds	2
  1184  00004D                     tblptru	equ	0xFF8
  1185                           tblptrh	equ	0xFF7
  1186                           tblptrl	equ	0xFF6
  1187                           tablat	equ	0xFF5
  1188                           postinc0	equ	0xFEE
  1189                           postdec1	equ	0xFE5
  1190                           fsr1l	equ	0xFE1
  1191                           
  1192                           ; 1 bytes @ 0x4C
  1193 ;;
  1194 ;;Main: autosize = 0, tempsize = 0, incstack = 0, save=0
  1195 ;;
  1196 ;; *************** function _main *****************
  1197 ;; Defined at:
  1198 ;;		line 1083 in file "main2.c"
  1199 ;; Parameters:    Size  Location     Type
  1200 ;;		None
  1201 ;; Auto vars:     Size  Location     Type
  1202 ;;		None
  1203 ;; Return value:  Size  Location     Type
  1204 ;;                  1    wreg      void 
  1205 ;; Registers used:
  1206 ;;		wreg, fsr1l, fsr1h, fsr2l, fsr2h, status,2, status,0, prodl, prodh, cstack
  1207 ;; Tracked objects:
  1208 ;;		On entry : 0/0
  1209 ;;		On exit  : 0/0
  1210 ;;		Unchanged: 0/0
  1211 ;; Data sizes:     COMRAM   BANK0   BANK1   BANK2   BANK3   BANK4   BANK5
  1212 ;;      Params:         0       0       0       0       0       0       0
  1213 ;;      Locals:         0       0       0       0       0       0       0
  1214 ;;      Temps:          0       0       0       0       0       0       0
  1215 ;;      Totals:         0       0       0       0       0       0       0
  1216 ;;Total ram usage:        0 bytes
  1217 ;; Hardware stack levels required when called:    5
  1218 ;; This function calls:
  1219 ;;		_mode_TransLove
  1220 ;;		_mode_clock
  1221 ;;		_mode_snow
  1222 ;;		_mode_tree
  1223 ;;		_mode_walker
  1224 ;; This function is called by:
  1225 ;;		Startup code after reset
  1226 ;; This function uses a non-reentrant model
  1227 ;;
  1228                           
  1229                           	psect	text0
  1230  001DE8                     __ptext0:
  1231                           	opt stack 0
  1232  001DE8                     _main:
  1233                           	opt stack 26
  1234                           
  1235                           ;main2.c: 1085: OSCCONbits.IRCF = 0b111;
  1236                           
  1237                           ;incstack = 0
  1238  001DE8  88D3               	bsf	4051,4,c	;volatile
  1239  001DEA  8AD3               	bsf	4051,5,c	;volatile
  1240  001DEC  8CD3               	bsf	4051,6,c	;volatile
  1241                           
  1242                           ;main2.c: 1088: RCONbits.IPEN=0x01;
  1243  001DEE  8ED0               	bsf	4048,7,c	;volatile
  1244                           
  1245                           ;main2.c: 1089: T1CON = 0b10110101;
  1246  001DF0  0EB5               	movlw	181
  1247  001DF2  6ECD               	movwf	4045,c	;volatile
  1248                           
  1249                           ;main2.c: 1090: TMR1 = 15536;
  1250  001DF4  0E3C               	movlw	60
  1251  001DF6  6ECF               	movwf	4047,c	;volatile
  1252  001DF8  0EB0               	movlw	176
  1253  001DFA  6ECE               	movwf	4046,c	;volatile
  1254                           
  1255                           ;main2.c: 1091: PIE1bits.TMR1IE=1;
  1256  001DFC  809D               	bsf	3997,0,c	;volatile
  1257                           
  1258                           ;main2.c: 1092: IPR1bits.TMR1IP=1;
  1259  001DFE  809F               	bsf	3999,0,c	;volatile
  1260                           
  1261                           ;main2.c: 1093: PIR1bits.TMR1IF=0;
  1262  001E00  909E               	bcf	3998,0,c	;volatile
  1263                           
  1264                           ;main2.c: 1094: INTCONbits.GIE=1;
  1265  001E02  8EF2               	bsf	intcon,7,c	;volatile
  1266                           
  1267                           ;main2.c: 1097: hours = 21;
  1268  001E04  0E00               	movlw	0
  1269  001E06  6E68               	movwf	_hours+1,c
  1270  001E08  0E15               	movlw	21
  1271  001E0A  6E67               	movwf	_hours,c
  1272                           
  1273                           ;main2.c: 1098: minutes = 0;
  1274  001E0C  0E00               	movlw	0
  1275  001E0E  6E62               	movwf	_minutes+1,c
  1276  001E10  0E00               	movlw	0
  1277  001E12  6E61               	movwf	_minutes,c
  1278                           
  1279                           ;main2.c: 1100: TRISA = 0;
  1280  001E14  0E00               	movlw	0
  1281  001E16  6E92               	movwf	3986,c	;volatile
  1282                           
  1283                           ;main2.c: 1101: TRISD = 0;
  1284  001E18  0E00               	movlw	0
  1285  001E1A  6E95               	movwf	3989,c	;volatile
  1286                           
  1287                           ;main2.c: 1102: LATD = 0;
  1288  001E1C  0E00               	movlw	0
  1289  001E1E  6E8C               	movwf	3980,c	;volatile
  1290                           
  1291                           ;main2.c: 1103: LATA = 0;
  1292  001E20  0E00               	movlw	0
  1293  001E22  6E89               	movwf	3977,c	;volatile
  1294  001E24                     
  1295                           ;main2.c: 1106: mode_clock();
  1296  001E24  EC29  F009         	call	_mode_clock	;wreg free
  1297                           
  1298                           ;main2.c: 1107: mode_walker();
  1299  001E28  EC09  F000         	call	_mode_walker	;wreg free
  1300                           
  1301                           ;main2.c: 1108: mode_TransLove();
  1302  001E2C  EC88  F006         	call	_mode_TransLove	;wreg free
  1303                           
  1304                           ;main2.c: 1109: mode_tree();
  1305  001E30  ECA6  F003         	call	_mode_tree	;wreg free
  1306                           
  1307                           ;main2.c: 1110: mode_snow();
  1308  001E34  EC13  F00B         	call	_mode_snow	;wreg free
  1309  001E38  D7F5               	goto	l481
  1310  001E3A                     __end_of_main:
  1311                           	opt stack 0
  1312                           tblptru	equ	0xFF8
  1313                           tblptrh	equ	0xFF7
  1314                           tblptrl	equ	0xFF6
  1315                           tablat	equ	0xFF5
  1316                           intcon	equ	0xFF2
  1317                           postinc0	equ	0xFEE
  1318                           postdec1	equ	0xFE5
  1319                           fsr1l	equ	0xFE1
  1320                           
  1321 ;; *************** function _mode_walker *****************
  1322 ;; Defined at:
  1323 ;;		line 664 in file "main2.c"
  1324 ;; Parameters:    Size  Location     Type
  1325 ;;		None
  1326 ;; Auto vars:     Size  Location     Type
  1327 ;;  dark            2    2[BANK3 ] int 
  1328 ;;  bright          2    0[BANK3 ] int 
  1329 ;;  column          2   26[BANK3 ] int 
  1330 ;;  dark            2   10[BANK3 ] int 
  1331 ;;  bright          2    8[BANK3 ] int 
  1332 ;;  dark            2    6[BANK3 ] int 
  1333 ;;  bright          2    4[BANK3 ] int 
  1334 ;;  dark            4   22[BANK3 ] long 
  1335 ;;  column          2   30[BANK3 ] int 
  1336 ;;  column          2   28[BANK3 ] int 
  1337 ;;  dark            2   14[BANK3 ] int 
  1338 ;;  i               2   54[BANK3 ] int 
  1339 ;;  four            8   34[BANK3 ] int [4]
  1340 ;;  delay           2   52[BANK3 ] int 
  1341 ;;  move            2   50[BANK3 ] int 
  1342 ;;  state           2   48[BANK3 ] int 
  1343 ;;  show            2   46[BANK3 ] PTR unsigned int 
  1344 ;;		 -> walker(108), 
  1345 ;;  pic_i           2   44[BANK3 ] int 
  1346 ;;  display_cycl    2   42[BANK3 ] int 
  1347 ;;  pic_cycle_i     2   32[BANK3 ] int 
  1348 ;;  pic_cycle       2   20[BANK3 ] const int 
  1349 ;;  update_next_    2   18[BANK3 ] int 
  1350 ;;  update          2   16[BANK3 ] int 
  1351 ;;  state_change    2   12[BANK3 ] int 
  1352 ;; Return value:  Size  Location     Type
  1353 ;;                  1    wreg      void 
  1354 ;; Registers used:
  1355 ;;		wreg, fsr1l, fsr1h, fsr2l, fsr2h, status,2, status,0, prodl, prodh, cstack
  1356 ;; Tracked objects:
  1357 ;;		On entry : 0/0
  1358 ;;		On exit  : 0/0
  1359 ;;		Unchanged: 0/0
  1360 ;; Data sizes:     COMRAM   BANK0   BANK1   BANK2   BANK3   BANK4   BANK5
  1361 ;;      Params:         0       0       0       0       0       0       0
  1362 ;;      Locals:         0       0       0       0      56       0       0
  1363 ;;      Temps:          6       0       0       0       0       0       0
  1364 ;;      Totals:         6       0       0       0      56       0       0
  1365 ;;Total ram usage:       62 bytes
  1366 ;; Hardware stack levels used:    1
  1367 ;; Hardware stack levels required when called:    3
  1368 ;; This function calls:
  1369 ;;		___wmul
  1370 ;; This function is called by:
  1371 ;;		_main
  1372 ;; This function uses a non-reentrant model
  1373 ;;
  1374                           
  1375                           	psect	text1
  1376  000012                     __ptext1:
  1377                           	opt stack 0
  1378  000012                     _mode_walker:
  1379                           	opt stack 27
  1380                           
  1381                           ;main2.c: 670: bool four[4] = {1};
  1382                           
  1383                           ;incstack = 0
  1384  000012  EE20  F096         	lfsr	2,mode_walker@F3089
  1385  000016  EE13  F022         	lfsr	1,mode_walker@four
  1386  00001A  0E07               	movlw	7
  1387  00001C                     u4651:
  1388  00001C  CFDB FFE3          	movff	plusw2,plusw1
  1389  000020  06E8               	decf	wreg,f,c
  1390  000022  E2FC               	bc	u4651
  1391                           
  1392                           ;main2.c: 671: int state_change_cycle = 120;
  1393  000024  0E00               	movlw	0
  1394  000026  0103               	movlb	3	; () banked
  1395  000028  6F0D               	movwf	(mode_walker@state_change_cycle+1)& (0+255),b
  1396  00002A  0E78               	movlw	120
  1397  00002C  6F0C               	movwf	mode_walker@state_change_cycle& (0+255),b
  1398                           
  1399                           ; BSR set to: 3
  1400                           ;main2.c: 672: int state = 0;
  1401  00002E  0E00               	movlw	0
  1402  000030  6F31               	movwf	(mode_walker@state+1)& (0+255),b
  1403  000032  0E00               	movlw	0
  1404  000034  6F30               	movwf	mode_walker@state& (0+255),b
  1405                           
  1406                           ; BSR set to: 3
  1407                           ;main2.c: 673: int move = 1010;
  1408  000036  0E03               	movlw	3
  1409  000038  6F33               	movwf	(mode_walker@move+1)& (0+255),b
  1410  00003A  0EF2               	movlw	242
  1411  00003C  6F32               	movwf	mode_walker@move& (0+255),b
  1412                           
  1413                           ; BSR set to: 3
  1414                           ;main2.c: 674: bool update = 0;
  1415  00003E  0E00               	movlw	0
  1416  000040  6F11               	movwf	(mode_walker@update+1)& (0+255),b
  1417  000042  0E00               	movlw	0
  1418  000044  6F10               	movwf	mode_walker@update& (0+255),b
  1419                           
  1420                           ; BSR set to: 3
  1421                           ;main2.c: 675: bool update_next_time = 0;
  1422  000046  0E00               	movlw	0
  1423  000048  6F13               	movwf	(mode_walker@update_next_time+1)& (0+255),b
  1424  00004A  0E00               	movlw	0
  1425  00004C  6F12               	movwf	mode_walker@update_next_time& (0+255),b
  1426                           
  1427                           ; BSR set to: 3
  1428                           ;main2.c: 676: const int pic_cycle = 3;
  1429  00004E  0E00               	movlw	0
  1430  000050  6F15               	movwf	(mode_walker@pic_cycle+1)& (0+255),b
  1431  000052  0E03               	movlw	3
  1432  000054  6F14               	movwf	mode_walker@pic_cycle& (0+255),b
  1433                           
  1434                           ; BSR set to: 3
  1435                           ;main2.c: 677: int pic_cycle_i = 0;
  1436  000056  0E00               	movlw	0
  1437  000058  6F21               	movwf	(mode_walker@pic_cycle_i+1)& (0+255),b
  1438  00005A  0E00               	movlw	0
  1439  00005C  6F20               	movwf	mode_walker@pic_cycle_i& (0+255),b
  1440                           
  1441                           ; BSR set to: 3
  1442                           ;main2.c: 678: int pic_i = 0;
  1443  00005E  0E00               	movlw	0
  1444  000060  6F2D               	movwf	(mode_walker@pic_i+1)& (0+255),b
  1445  000062  0E00               	movlw	0
  1446  000064  6F2C               	movwf	mode_walker@pic_i& (0+255),b
  1447                           
  1448                           ; BSR set to: 3
  1449                           ;main2.c: 679: int delay;
  1450                           ;main2.c: 680: unsigned int* show;
  1451                           ;main2.c: 682: int display_cycle = 480;
  1452  000066  0E01               	movlw	1
  1453  000068  6F2B               	movwf	(mode_walker@display_cycle+1)& (0+255),b
  1454  00006A  0EE0               	movlw	224
  1455  00006C  6F2A               	movwf	mode_walker@display_cycle& (0+255),b
  1456                           
  1457                           ;main2.c: 683: while(display_cycle--) {
  1458  00006E  D24D               	goto	l306
  1459  000070                     
  1460                           ; BSR set to: 3
  1461                           ;main2.c: 684: if(move > 0)
  1462                           
  1463                           ; BSR set to: 3
  1464  000070  BF33               	btfsc	(mode_walker@move+1)& (0+255),7,b
  1465  000072  D00A               	goto	l226
  1466  000074  5133               	movf	(mode_walker@move+1)& (0+255),w,b
  1467  000076  E103               	bnz	u4660
  1468  000078  0532               	decf	mode_walker@move& (0+255),w,b
  1469  00007A  A0D8               	btfss	status,0,c
  1470  00007C  D005               	goto	l226
  1471  00007E                     u4660:
  1472                           
  1473                           ; BSR set to: 3
  1474                           ;main2.c: 685: move -= 30;
  1475  00007E  0EE2               	movlw	226
  1476  000080  2732               	addwf	mode_walker@move& (0+255),f,b
  1477  000082  0EFF               	movlw	255
  1478  000084  2333               	addwfc	(mode_walker@move+1)& (0+255),f,b
  1479  000086  D00C               	goto	u4670
  1480  000088                     l226:
  1481                           
  1482                           ; BSR set to: 3
  1483                           ;main2.c: 686: else {
  1484                           ;main2.c: 687: delay = 20;
  1485                           
  1486                           ; BSR set to: 3
  1487  000088  0E00               	movlw	0
  1488  00008A  6F35               	movwf	(mode_walker@delay+1)& (0+255),b
  1489  00008C  0E14               	movlw	20
  1490  00008E  6F34               	movwf	mode_walker@delay& (0+255),b
  1491  000090                     l3608:
  1492                           
  1493                           ; BSR set to: 3
  1494  000090  0734               	decf	mode_walker@delay& (0+255),f,b
  1495  000092  A0D8               	btfss	status,0,c
  1496  000094  0735               	decf	(mode_walker@delay+1)& (0+255),f,b
  1497  000096  2934               	incf	mode_walker@delay& (0+255),w,b
  1498  000098  E1FB               	bnz	l3608
  1499  00009A  2935               	incf	(mode_walker@delay+1)& (0+255),w,b
  1500  00009C  A4D8               	btfss	status,2,c
  1501  00009E  D7F8               	goto	l229
  1502  0000A0                     u4670:
  1503                           
  1504                           ; BSR set to: 3
  1505                           ;main2.c: 689: }
  1506                           ;main2.c: 690: if(update_next_time == 1) {
  1507                           
  1508                           ; BSR set to: 3
  1509                           
  1510                           ; BSR set to: 3
  1511  0000A0  0512               	decf	mode_walker@update_next_time& (0+255),w,b
  1512  0000A2  1113               	iorwf	(mode_walker@update_next_time+1)& (0+255),w,b
  1513  0000A4  A4D8               	btfss	status,2,c
  1514  0000A6  D021               	goto	l235
  1515                           
  1516                           ; BSR set to: 3
  1517                           ;main2.c: 691: update_next_time = 0;
  1518  0000A8  0E00               	movlw	0
  1519  0000AA  6F13               	movwf	(mode_walker@update_next_time+1)& (0+255),b
  1520  0000AC  0E00               	movlw	0
  1521  0000AE  6F12               	movwf	mode_walker@update_next_time& (0+255),b
  1522                           
  1523                           ;main2.c: 693: switch(state) {
  1524  0000B0  D00D               	goto	l232
  1525  0000B2                     
  1526                           ; BSR set to: 3
  1527                           ;main2.c: 695: four[2] = 0;
  1528                           
  1529                           ; BSR set to: 3
  1530  0000B2  0E00               	movlw	0
  1531  0000B4  6F27               	movwf	(mode_walker@four+5)& (0+255),b
  1532  0000B6  0E00               	movlw	0
  1533  0000B8  6F26               	movwf	(mode_walker@four+4)& (0+255),b
  1534  0000BA                     l234:
  1535                           
  1536                           ; BSR set to: 3
  1537                           ;main2.c: 697: four[1] = four[3] = 0;
  1538  0000BA  0E00               	movlw	0
  1539  0000BC  6F29               	movwf	(mode_walker@four+7)& (0+255),b
  1540  0000BE  0E00               	movlw	0
  1541  0000C0  6F28               	movwf	(mode_walker@four+6)& (0+255),b
  1542  0000C2  C328  F324         	movff	mode_walker@four+6,mode_walker@four+2
  1543  0000C6  C329  F325         	movff	mode_walker@four+7,mode_walker@four+3
  1544                           
  1545                           ;main2.c: 698: }
  1546  0000CA  D00F               	goto	l235
  1547  0000CC                     l232:
  1548                           
  1549                           ; BSR set to: 3
  1550                           
  1551                           ; BSR set to: 3
  1552  0000CC  C330  F019         	movff	mode_walker@state,??_mode_walker
  1553  0000D0  C331  F01A         	movff	mode_walker@state+1,??_mode_walker+1
  1554                           
  1555                           ; Switch on 2 bytes has been partitioned into a top level switch of size 1, and 1 sub-sw
      +                          itches
  1556                           ; Switch size 1, requested type "space"
  1557                           ; Number of cases is 1, Range of values is 0 to 0
  1558                           ; switch strategies available:
  1559                           ; Name         Instructions Cycles
  1560                           ; simple_byte            4     3 (average)
  1561                           ;	Chosen strategy is simple_byte
  1562  0000D4  501A               	movf	??_mode_walker+1,w,c
  1563  0000D6  0A00               	xorlw	0	; case 0
  1564  0000D8  A4D8               	btfss	status,2,c
  1565  0000DA  D007               	goto	l235
  1566                           
  1567                           ; BSR set to: 3
  1568                           ; Switch size 1, requested type "space"
  1569                           ; Number of cases is 2, Range of values is 3 to 4
  1570                           ; switch strategies available:
  1571                           ; Name         Instructions Cycles
  1572                           ; simple_byte            7     4 (average)
  1573                           ;	Chosen strategy is simple_byte
  1574  0000DC  5019               	movf	??_mode_walker,w,c
  1575  0000DE  0A03               	xorlw	3	; case 3
  1576  0000E0  B4D8               	btfsc	status,2,c
  1577  0000E2  D7EB               	goto	l234
  1578  0000E4  0A07               	xorlw	7	; case 4
  1579  0000E6  B4D8               	btfsc	status,2,c
  1580  0000E8  D7E4               	goto	l233
  1581  0000EA                     l235:
  1582                           
  1583                           ; BSR set to: 3
  1584                           ;main2.c: 699: }
  1585                           ;main2.c: 700: if(update == 0 && move <= 0) {
  1586                           
  1587                           ; BSR set to: 3
  1588                           
  1589                           ; BSR set to: 3
  1590  0000EA  5110               	movf	mode_walker@update& (0+255),w,b
  1591  0000EC  1111               	iorwf	(mode_walker@update+1)& (0+255),w,b
  1592  0000EE  A4D8               	btfss	status,2,c
  1593  0000F0  D013               	goto	l236
  1594                           
  1595                           ; BSR set to: 3
  1596  0000F2  BF33               	btfsc	(mode_walker@move+1)& (0+255),7,b
  1597  0000F4  D005               	goto	u4700
  1598  0000F6  5133               	movf	(mode_walker@move+1)& (0+255),w,b
  1599  0000F8  E10F               	bnz	l236
  1600  0000FA  0532               	decf	mode_walker@move& (0+255),w,b
  1601  0000FC  B0D8               	btfsc	status,0,c
  1602  0000FE  D00C               	goto	l236
  1603  000100                     u4700:
  1604                           
  1605                           ; BSR set to: 3
  1606                           ;main2.c: 701: update = 1;
  1607  000100  0E00               	movlw	0
  1608  000102  6F11               	movwf	(mode_walker@update+1)& (0+255),b
  1609  000104  0E01               	movlw	1
  1610  000106  6F10               	movwf	mode_walker@update& (0+255),b
  1611                           
  1612                           ;main2.c: 702: update_next_time = 1;
  1613  000108  0E00               	movlw	0
  1614  00010A  6F13               	movwf	(mode_walker@update_next_time+1)& (0+255),b
  1615  00010C  0E01               	movlw	1
  1616  00010E  6F12               	movwf	mode_walker@update_next_time& (0+255),b
  1617                           
  1618                           ;main2.c: 703: move = 0;
  1619  000110  0E00               	movlw	0
  1620  000112  6F33               	movwf	(mode_walker@move+1)& (0+255),b
  1621  000114  0E00               	movlw	0
  1622  000116  6F32               	movwf	mode_walker@move& (0+255),b
  1623  000118                     l236:
  1624                           
  1625                           ; BSR set to: 3
  1626                           ;main2.c: 704: }
  1627                           ;main2.c: 707: int i;
  1628                           ;main2.c: 708: for(i = 0; i < 4; ++i) {
  1629  000118  0E00               	movlw	0
  1630  00011A  6F37               	movwf	(mode_walker@i+1)& (0+255),b
  1631  00011C  0E00               	movlw	0
  1632  00011E  6F36               	movwf	mode_walker@i& (0+255),b
  1633                           
  1634                           ; BSR set to: 3
  1635  000120  BF37               	btfsc	(mode_walker@i+1)& (0+255),7,b
  1636  000122  D049               	goto	l239
  1637  000124  5137               	movf	(mode_walker@i+1)& (0+255),w,b
  1638  000126  E105               	bnz	u4710
  1639  000128  0E04               	movlw	4
  1640  00012A  5D36               	subwf	mode_walker@i& (0+255),w,b
  1641  00012C  B0D8               	btfsc	status,0,c
  1642  00012E  D17A               	goto	u4960
  1643  000130  D042               	goto	l239
  1644  000132                     u4710:
  1645                           
  1646                           ; BSR set to: 3
  1647  000132  D178               	goto	u4960
  1648  000134                     
  1649                           ; BSR set to: 3
  1650                           ;main2.c: 712: delay = 28;
  1651                           
  1652                           ; BSR set to: 3
  1653  000134  0E00               	movlw	0
  1654  000136  6F35               	movwf	(mode_walker@delay+1)& (0+255),b
  1655  000138  0E1C               	movlw	28
  1656  00013A  6F34               	movwf	mode_walker@delay& (0+255),b
  1657  00013C                     l3630:
  1658                           
  1659                           ; BSR set to: 3
  1660  00013C  0734               	decf	mode_walker@delay& (0+255),f,b
  1661  00013E  A0D8               	btfss	status,0,c
  1662  000140  0735               	decf	(mode_walker@delay+1)& (0+255),f,b
  1663  000142  2934               	incf	mode_walker@delay& (0+255),w,b
  1664  000144  E1FB               	bnz	l3630
  1665  000146  2935               	incf	(mode_walker@delay+1)& (0+255),w,b
  1666  000148  B4D8               	btfsc	status,2,c
  1667  00014A  D04D               	goto	l244
  1668  00014C  D7F7               	goto	l242
  1669  00014E                     
  1670                           ; BSR set to: 3
  1671                           ;main2.c: 716: delay = 15;
  1672                           
  1673                           ; BSR set to: 3
  1674  00014E  0E00               	movlw	0
  1675  000150  6F35               	movwf	(mode_walker@delay+1)& (0+255),b
  1676  000152  0E0F               	movlw	15
  1677  000154  6F34               	movwf	mode_walker@delay& (0+255),b
  1678  000156                     l3634:
  1679                           
  1680                           ; BSR set to: 3
  1681  000156  0734               	decf	mode_walker@delay& (0+255),f,b
  1682  000158  A0D8               	btfss	status,0,c
  1683  00015A  0735               	decf	(mode_walker@delay+1)& (0+255),f,b
  1684  00015C  2934               	incf	mode_walker@delay& (0+255),w,b
  1685  00015E  E1FB               	bnz	l3634
  1686  000160  2935               	incf	(mode_walker@delay+1)& (0+255),w,b
  1687  000162  B4D8               	btfsc	status,2,c
  1688  000164  D040               	goto	l244
  1689  000166  D7F7               	goto	l247
  1690  000168                     
  1691                           ; BSR set to: 3
  1692                           ;main2.c: 720: delay = 0;
  1693                           
  1694                           ; BSR set to: 3
  1695  000168  0E00               	movlw	0
  1696  00016A  6F35               	movwf	(mode_walker@delay+1)& (0+255),b
  1697  00016C  0E00               	movlw	0
  1698  00016E  6F34               	movwf	mode_walker@delay& (0+255),b
  1699  000170                     l3638:
  1700                           
  1701                           ; BSR set to: 3
  1702  000170  0734               	decf	mode_walker@delay& (0+255),f,b
  1703  000172  A0D8               	btfss	status,0,c
  1704  000174  0735               	decf	(mode_walker@delay+1)& (0+255),f,b
  1705  000176  2934               	incf	mode_walker@delay& (0+255),w,b
  1706  000178  E1FB               	bnz	l3638
  1707  00017A  2935               	incf	(mode_walker@delay+1)& (0+255),w,b
  1708  00017C  B4D8               	btfsc	status,2,c
  1709  00017E  D033               	goto	l244
  1710  000180  D7F7               	goto	l251
  1711  000182                     
  1712                           ; BSR set to: 3
  1713                           ;main2.c: 724: delay = 10;
  1714                           
  1715                           ; BSR set to: 3
  1716  000182  0E00               	movlw	0
  1717  000184  6F35               	movwf	(mode_walker@delay+1)& (0+255),b
  1718  000186  0E0A               	movlw	10
  1719  000188  6F34               	movwf	mode_walker@delay& (0+255),b
  1720  00018A                     l3642:
  1721                           
  1722                           ; BSR set to: 3
  1723  00018A  0734               	decf	mode_walker@delay& (0+255),f,b
  1724  00018C  A0D8               	btfss	status,0,c
  1725  00018E  0735               	decf	(mode_walker@delay+1)& (0+255),f,b
  1726  000190  2934               	incf	mode_walker@delay& (0+255),w,b
  1727  000192  E1FB               	bnz	l3642
  1728  000194  2935               	incf	(mode_walker@delay+1)& (0+255),w,b
  1729  000196  B4D8               	btfsc	status,2,c
  1730  000198  D026               	goto	l244
  1731  00019A  D7F7               	goto	l255
  1732  00019C                     
  1733                           ; BSR set to: 3
  1734                           ;main2.c: 728: delay = 16;
  1735                           
  1736                           ; BSR set to: 3
  1737  00019C  0E00               	movlw	0
  1738  00019E  6F35               	movwf	(mode_walker@delay+1)& (0+255),b
  1739  0001A0  0E10               	movlw	16
  1740  0001A2  6F34               	movwf	mode_walker@delay& (0+255),b
  1741  0001A4                     l3646:
  1742                           
  1743                           ; BSR set to: 3
  1744  0001A4  0734               	decf	mode_walker@delay& (0+255),f,b
  1745  0001A6  A0D8               	btfss	status,0,c
  1746  0001A8  0735               	decf	(mode_walker@delay+1)& (0+255),f,b
  1747  0001AA  2934               	incf	mode_walker@delay& (0+255),w,b
  1748  0001AC  E1FB               	bnz	l3646
  1749  0001AE  2935               	incf	(mode_walker@delay+1)& (0+255),w,b
  1750  0001B0  B4D8               	btfsc	status,2,c
  1751  0001B2  D019               	goto	l244
  1752  0001B4  D7F7               	goto	l259
  1753  0001B6                     l239:
  1754                           
  1755                           ; BSR set to: 3
  1756                           
  1757                           ; BSR set to: 3
  1758  0001B6  C330  F019         	movff	mode_walker@state,??_mode_walker
  1759  0001BA  C331  F01A         	movff	mode_walker@state+1,??_mode_walker+1
  1760                           
  1761                           ; Switch on 2 bytes has been partitioned into a top level switch of size 1, and 1 sub-sw
      +                          itches
  1762                           ; Switch size 1, requested type "space"
  1763                           ; Number of cases is 1, Range of values is 0 to 0
  1764                           ; switch strategies available:
  1765                           ; Name         Instructions Cycles
  1766                           ; simple_byte            4     3 (average)
  1767                           ;	Chosen strategy is simple_byte
  1768  0001BE  501A               	movf	??_mode_walker+1,w,c
  1769  0001C0  0A00               	xorlw	0	; case 0
  1770  0001C2  A4D8               	btfss	status,2,c
  1771  0001C4  D010               	goto	l244
  1772                           
  1773                           ; BSR set to: 3
  1774                           ; Switch size 1, requested type "space"
  1775                           ; Number of cases is 5, Range of values is 0 to 4
  1776                           ; switch strategies available:
  1777                           ; Name         Instructions Cycles
  1778                           ; simple_byte           16     9 (average)
  1779                           ;	Chosen strategy is simple_byte
  1780  0001C6  5019               	movf	??_mode_walker,w,c
  1781  0001C8  0A00               	xorlw	0	; case 0
  1782  0001CA  B4D8               	btfsc	status,2,c
  1783  0001CC  D7B3               	goto	l240
  1784  0001CE  0A01               	xorlw	1	; case 1
  1785  0001D0  B4D8               	btfsc	status,2,c
  1786  0001D2  D7BD               	goto	l245
  1787  0001D4  0A03               	xorlw	3	; case 2
  1788  0001D6  B4D8               	btfsc	status,2,c
  1789  0001D8  D7C7               	goto	l249
  1790  0001DA  0A01               	xorlw	1	; case 3
  1791  0001DC  B4D8               	btfsc	status,2,c
  1792  0001DE  D7D1               	goto	l253
  1793  0001E0  0A07               	xorlw	7	; case 4
  1794  0001E2  B4D8               	btfsc	status,2,c
  1795  0001E4  D7DB               	goto	l257
  1796  0001E6                     l244:
  1797                           
  1798                           ; BSR set to: 3
  1799                           ;main2.c: 732: show = (unsigned int*)walker[pic_i];
  1800                           
  1801                           ; BSR set to: 3
  1802  0001E6  C32C  F013         	movff	mode_walker@pic_i,___wmul@multiplier
  1803  0001EA  C32D  F014         	movff	mode_walker@pic_i+1,___wmul@multiplier+1
  1804  0001EE  0E00               	movlw	0
  1805  0001F0  6E16               	movwf	___wmul@multiplicand+1,c
  1806  0001F2  0E12               	movlw	18
  1807  0001F4  6E15               	movwf	___wmul@multiplicand,c
  1808  0001F6  EC3F  F00F         	call	___wmul	;wreg free
  1809  0001FA  0E20               	movlw	low _walker
  1810  0001FC  2413               	addwf	?___wmul,w,c
  1811  0001FE  0103               	movlb	3	; () banked
  1812  000200  6F2E               	movwf	mode_walker@show& (0+255),b
  1813  000202  0E01               	movlw	high _walker
  1814  000204  2014               	addwfc	?___wmul+1,w,c
  1815  000206  6F2F               	movwf	(mode_walker@show+1)& (0+255),b
  1816                           
  1817                           ; BSR set to: 3
  1818                           ;main2.c: 733: for(int column = 0; column < 9; ++column, ++show) {
  1819  000208  0E00               	movlw	0
  1820  00020A  6F1B               	movwf	(mode_walker@column+1)& (0+255),b
  1821  00020C  0E00               	movlw	0
  1822  00020E  6F1A               	movwf	mode_walker@column& (0+255),b
  1823  000210                     l3656:
  1824                           
  1825                           ; BSR set to: 3
  1826  000210  BF1B               	btfsc	(mode_walker@column+1)& (0+255),7,b
  1827  000212  D006               	goto	l261
  1828  000214  511B               	movf	(mode_walker@column+1)& (0+255),w,b
  1829  000216  E14B               	bnz	l3678
  1830  000218  0E09               	movlw	9
  1831  00021A  5D1A               	subwf	mode_walker@column& (0+255),w,b
  1832  00021C  B0D8               	btfsc	status,0,c
  1833  00021E  D047               	goto	u4810
  1834  000220                     l261:
  1835                           
  1836                           ; BSR set to: 3
  1837                           ;main2.c: 734: if(four[i]) {
  1838                           
  1839                           ; BSR set to: 3
  1840  000220  90D8               	bcf	status,0,c
  1841  000222  3536               	rlcf	mode_walker@i& (0+255),w,b
  1842  000224  6ED9               	movwf	fsr2l,c
  1843  000226  3537               	rlcf	(mode_walker@i+1)& (0+255),w,b
  1844  000228  6EDA               	movwf	fsr2h,c
  1845  00022A  0E22               	movlw	low mode_walker@four
  1846  00022C  26D9               	addwf	fsr2l,f,c
  1847  00022E  0E03               	movlw	high mode_walker@four
  1848  000230  22DA               	addwfc	fsr2h,f,c
  1849  000232  50DE               	movf	postinc2,w,c
  1850  000234  10DE               	iorwf	postinc2,w,c
  1851  000236  B4D8               	btfsc	status,2,c
  1852  000238  D013               	goto	l263
  1853                           
  1854                           ; BSR set to: 3
  1855                           ;main2.c: 735: LATA = *show;
  1856  00023A  C32E  FFD9         	movff	mode_walker@show,fsr2l
  1857  00023E  C32F  FFDA         	movff	mode_walker@show+1,fsr2h
  1858  000242  50DF               	movf	indf2,w,c
  1859  000244  6E89               	movwf	3977,c	;volatile
  1860                           
  1861                           ;main2.c: 736: LATD = (*show) >> 8;
  1862  000246  C32E  FFD9         	movff	mode_walker@show,fsr2l
  1863  00024A  C32F  FFDA         	movff	mode_walker@show+1,fsr2h
  1864  00024E  CFDE F019          	movff	postinc2,??_mode_walker
  1865  000252  CFDD F01A          	movff	postdec2,??_mode_walker+1
  1866  000256  C01A  F019         	movff	??_mode_walker+1,??_mode_walker
  1867  00025A  6A1A               	clrf	??_mode_walker+1,c
  1868  00025C  5019               	movf	??_mode_walker,w,c
  1869  00025E  D003               	goto	L1
  1870  000260                     l263:
  1871                           
  1872                           ; BSR set to: 3
  1873                           ;main2.c: 738: LATA = 0;
  1874                           
  1875                           ; BSR set to: 3
  1876  000260  0E00               	movlw	0
  1877  000262  6E89               	movwf	3977,c	;volatile
  1878                           
  1879                           ;main2.c: 739: LATD = 0;
  1880  000264  0E00               	movlw	0
  1881  000266                     L1:
  1882  000266  6E8C               	movwf	3980,c	;volatile
  1883                           
  1884                           ; BSR set to: 3
  1885                           ;main2.c: 740: }
  1886                           ;main2.c: 741: int bright = 60;
  1887  000268  0E00               	movlw	0
  1888  00026A  6F01               	movwf	(mode_walker@bright+1)& (0+255),b
  1889  00026C  0E3C               	movlw	60
  1890  00026E  6F00               	movwf	mode_walker@bright& (0+255),b
  1891  000270                     l3666:
  1892                           
  1893                           ; BSR set to: 3
  1894  000270  0700               	decf	mode_walker@bright& (0+255),f,b
  1895  000272  A0D8               	btfss	status,0,c
  1896  000274  0701               	decf	(mode_walker@bright+1)& (0+255),f,b
  1897  000276  2900               	incf	mode_walker@bright& (0+255),w,b
  1898  000278  E1FB               	bnz	l3666
  1899  00027A  2901               	incf	(mode_walker@bright+1)& (0+255),w,b
  1900  00027C  A4D8               	btfss	status,2,c
  1901  00027E  D7F8               	goto	l266
  1902                           
  1903                           ; BSR set to: 3
  1904                           ;main2.c: 743: LATA = 0;
  1905                           
  1906                           ; BSR set to: 3
  1907  000280  0E00               	movlw	0
  1908  000282  6E89               	movwf	3977,c	;volatile
  1909                           
  1910                           ;main2.c: 744: LATD = 0;
  1911  000284  0E00               	movlw	0
  1912  000286  6E8C               	movwf	3980,c	;volatile
  1913                           
  1914                           ;main2.c: 745: int dark = 60;
  1915  000288  0E00               	movlw	0
  1916  00028A  6F03               	movwf	(mode_walker@dark+1)& (0+255),b
  1917  00028C  0E3C               	movlw	60
  1918  00028E  6F02               	movwf	mode_walker@dark& (0+255),b
  1919  000290                     l3670:
  1920                           
  1921                           ; BSR set to: 3
  1922  000290  0702               	decf	mode_walker@dark& (0+255),f,b
  1923  000292  A0D8               	btfss	status,0,c
  1924  000294  0703               	decf	(mode_walker@dark+1)& (0+255),f,b
  1925  000296  2902               	incf	mode_walker@dark& (0+255),w,b
  1926  000298  E1FB               	bnz	l3670
  1927  00029A  2903               	incf	(mode_walker@dark+1)& (0+255),w,b
  1928  00029C  A4D8               	btfss	status,2,c
  1929  00029E  D7F8               	goto	l269
  1930                           
  1931                           ; BSR set to: 3
  1932                           
  1933                           ; BSR set to: 3
  1934  0002A0  4B1A               	infsnz	mode_walker@column& (0+255),f,b
  1935  0002A2  2B1B               	incf	(mode_walker@column+1)& (0+255),f,b
  1936                           
  1937                           ; BSR set to: 3
  1938  0002A4  0E02               	movlw	2
  1939  0002A6  272E               	addwf	mode_walker@show& (0+255),f,b
  1940  0002A8  0E00               	movlw	0
  1941  0002AA  232F               	addwfc	(mode_walker@show+1)& (0+255),f,b
  1942  0002AC  D7B1               	goto	l3656
  1943  0002AE                     u4810:
  1944  0002AE                     l3678:
  1945                           
  1946                           ; BSR set to: 3
  1947                           ;main2.c: 747: }
  1948                           ;main2.c: 750: long int dark = 1010;
  1949  0002AE  0EF2               	movlw	242
  1950  0002B0  6F16               	movwf	mode_walker@dark_455& (0+255),b
  1951  0002B2  0E03               	movlw	3
  1952  0002B4  6F17               	movwf	(mode_walker@dark_455+1)& (0+255),b
  1953  0002B6  0E00               	movlw	0
  1954  0002B8  6F18               	movwf	(mode_walker@dark_455+2)& (0+255),b
  1955  0002BA  0E00               	movlw	0
  1956  0002BC  6F19               	movwf	(mode_walker@dark_455+3)& (0+255),b
  1957                           
  1958                           ; BSR set to: 3
  1959                           ;main2.c: 751: if(state == 1 || state == 2) {
  1960  0002BE  0530               	decf	mode_walker@state& (0+255),w,b
  1961  0002C0  1131               	iorwf	(mode_walker@state+1)& (0+255),w,b
  1962  0002C2  B4D8               	btfsc	status,2,c
  1963  0002C4  D005               	goto	u4830
  1964                           
  1965                           ; BSR set to: 3
  1966  0002C6  0E02               	movlw	2
  1967  0002C8  1930               	xorwf	mode_walker@state& (0+255),w,b
  1968  0002CA  1131               	iorwf	(mode_walker@state+1)& (0+255),w,b
  1969  0002CC  A4D8               	btfss	status,2,c
  1970  0002CE  D03C               	goto	l271
  1971  0002D0                     u4830:
  1972                           
  1973                           ; BSR set to: 3
  1974                           ;main2.c: 752: if((state==1 && i<2) || (state==2 && (i==0||i==2)))
  1975                           
  1976                           ; BSR set to: 3
  1977  0002D0  0530               	decf	mode_walker@state& (0+255),w,b
  1978  0002D2  1131               	iorwf	(mode_walker@state+1)& (0+255),w,b
  1979  0002D4  A4D8               	btfss	status,2,c
  1980  0002D6  D008               	goto	u4850
  1981                           
  1982                           ; BSR set to: 3
  1983  0002D8  BF37               	btfsc	(mode_walker@i+1)& (0+255),7,b
  1984  0002DA  D014               	goto	u4880
  1985  0002DC  5137               	movf	(mode_walker@i+1)& (0+255),w,b
  1986  0002DE  E104               	bnz	l3688
  1987  0002E0  0E02               	movlw	2
  1988  0002E2  5D36               	subwf	mode_walker@i& (0+255),w,b
  1989  0002E4  A0D8               	btfss	status,0,c
  1990  0002E6  D00E               	goto	u4880
  1991  0002E8                     u4850:
  1992  0002E8                     l3688:
  1993                           
  1994                           ; BSR set to: 3
  1995  0002E8  0E02               	movlw	2
  1996  0002EA  1930               	xorwf	mode_walker@state& (0+255),w,b
  1997  0002EC  1131               	iorwf	(mode_walker@state+1)& (0+255),w,b
  1998  0002EE  A4D8               	btfss	status,2,c
  1999  0002F0  D01A               	goto	l274
  2000                           
  2001                           ; BSR set to: 3
  2002  0002F2  5136               	movf	mode_walker@i& (0+255),w,b
  2003  0002F4  1137               	iorwf	(mode_walker@i+1)& (0+255),w,b
  2004  0002F6  B4D8               	btfsc	status,2,c
  2005  0002F8  D005               	goto	u4880
  2006                           
  2007                           ; BSR set to: 3
  2008  0002FA  0E02               	movlw	2
  2009  0002FC  1936               	xorwf	mode_walker@i& (0+255),w,b
  2010  0002FE  1137               	iorwf	(mode_walker@i+1)& (0+255),w,b
  2011  000300  A4D8               	btfss	status,2,c
  2012  000302  D011               	goto	l274
  2013  000304                     u4880:
  2014                           
  2015                           ; BSR set to: 3
  2016                           ;main2.c: 753: dark -= move;
  2017                           
  2018                           ; BSR set to: 3
  2019                           
  2020                           ; BSR set to: 3
  2021  000304  C332  F019         	movff	mode_walker@move,??_mode_walker
  2022  000308  C333  F01A         	movff	mode_walker@move+1,??_mode_walker+1
  2023  00030C  0E00               	movlw	0
  2024  00030E  BE1A               	btfsc	(??_mode_walker+1)& (0+255),7,c
  2025  000310  0EFF               	movlw	255
  2026  000312  6E1B               	movwf	(??_mode_walker+2)& (0+255),c
  2027  000314  6E1C               	movwf	(??_mode_walker+3)& (0+255),c
  2028  000316  5019               	movf	??_mode_walker,w,c
  2029  000318  5F16               	subwf	mode_walker@dark_455& (0+255),f,b
  2030  00031A  501A               	movf	??_mode_walker+1,w,c
  2031  00031C  5B17               	subwfb	(mode_walker@dark_455+1)& (0+255),f,b
  2032  00031E  501B               	movf	??_mode_walker+2,w,c
  2033  000320  5B18               	subwfb	(mode_walker@dark_455+2)& (0+255),f,b
  2034  000322  501C               	movf	??_mode_walker+3,w,c
  2035  000324  D066               	goto	L2
  2036  000326                     l274:
  2037                           
  2038                           ; BSR set to: 3
  2039                           ;main2.c: 754: else
  2040                           ;main2.c: 755: dark += move;
  2041                           
  2042                           ; BSR set to: 3
  2043  000326  C332  F019         	movff	mode_walker@move,??_mode_walker
  2044  00032A  C333  F01A         	movff	mode_walker@move+1,??_mode_walker+1
  2045  00032E  0E00               	movlw	0
  2046  000330  BE1A               	btfsc	(??_mode_walker+1)& (0+255),7,c
  2047  000332  0EFF               	movlw	255
  2048  000334  6E1B               	movwf	(??_mode_walker+2)& (0+255),c
  2049  000336  6E1C               	movwf	(??_mode_walker+3)& (0+255),c
  2050  000338  5019               	movf	??_mode_walker,w,c
  2051  00033A  2716               	addwf	mode_walker@dark_455& (0+255),f,b
  2052  00033C  501A               	movf	??_mode_walker+1,w,c
  2053  00033E  2317               	addwfc	(mode_walker@dark_455+1)& (0+255),f,b
  2054  000340  501B               	movf	??_mode_walker+2,w,c
  2055  000342  2318               	addwfc	(mode_walker@dark_455+2)& (0+255),f,b
  2056  000344  501C               	movf	??_mode_walker+3,w,c
  2057  000346  D039               	goto	L3
  2058  000348                     l271:
  2059                           
  2060                           ; BSR set to: 3
  2061                           
  2062                           ; BSR set to: 3
  2063  000348  5130               	movf	mode_walker@state& (0+255),w,b
  2064  00034A  1131               	iorwf	(mode_walker@state+1)& (0+255),w,b
  2065  00034C  B4D8               	btfsc	status,2,c
  2066  00034E  D052               	goto	l291
  2067                           
  2068                           ; BSR set to: 3
  2069                           ;main2.c: 757: if((state==4 && i<2) || (state==3 && (i==0||i==2)))
  2070  000350  0E04               	movlw	4
  2071  000352  1930               	xorwf	mode_walker@state& (0+255),w,b
  2072  000354  1131               	iorwf	(mode_walker@state+1)& (0+255),w,b
  2073  000356  A4D8               	btfss	status,2,c
  2074  000358  D008               	goto	u4910
  2075                           
  2076                           ; BSR set to: 3
  2077  00035A  BF37               	btfsc	(mode_walker@i+1)& (0+255),7,b
  2078  00035C  D014               	goto	u4940
  2079  00035E  5137               	movf	(mode_walker@i+1)& (0+255),w,b
  2080  000360  E104               	bnz	l3704
  2081  000362  0E02               	movlw	2
  2082  000364  5D36               	subwf	mode_walker@i& (0+255),w,b
  2083  000366  A0D8               	btfss	status,0,c
  2084  000368  D00E               	goto	u4940
  2085  00036A                     u4910:
  2086  00036A                     l3704:
  2087                           
  2088                           ; BSR set to: 3
  2089  00036A  0E03               	movlw	3
  2090  00036C  1930               	xorwf	mode_walker@state& (0+255),w,b
  2091  00036E  1131               	iorwf	(mode_walker@state+1)& (0+255),w,b
  2092  000370  A4D8               	btfss	status,2,c
  2093  000372  D025               	goto	l284
  2094                           
  2095                           ; BSR set to: 3
  2096  000374  5136               	movf	mode_walker@i& (0+255),w,b
  2097  000376  1137               	iorwf	(mode_walker@i+1)& (0+255),w,b
  2098  000378  B4D8               	btfsc	status,2,c
  2099  00037A  D005               	goto	u4940
  2100                           
  2101                           ; BSR set to: 3
  2102  00037C  0E02               	movlw	2
  2103  00037E  1936               	xorwf	mode_walker@i& (0+255),w,b
  2104  000380  1137               	iorwf	(mode_walker@i+1)& (0+255),w,b
  2105  000382  A4D8               	btfss	status,2,c
  2106  000384  D01C               	goto	l284
  2107  000386                     u4940:
  2108                           
  2109                           ; BSR set to: 3
  2110                           ;main2.c: 758: dark += 1010 - move;
  2111                           
  2112                           ; BSR set to: 3
  2113                           
  2114                           ; BSR set to: 3
  2115  000386  C332  F019         	movff	mode_walker@move,??_mode_walker
  2116  00038A  C333  F01A         	movff	mode_walker@move+1,??_mode_walker+1
  2117  00038E  1E19               	comf	??_mode_walker,f,c
  2118  000390  1E1A               	comf	??_mode_walker+1,f,c
  2119  000392  4A19               	infsnz	??_mode_walker,f,c
  2120  000394  2A1A               	incf	??_mode_walker+1,f,c
  2121  000396  0EF2               	movlw	242
  2122  000398  2419               	addwf	??_mode_walker,w,c
  2123  00039A  6E1B               	movwf	(??_mode_walker+2)& (0+255),c
  2124  00039C  0E03               	movlw	3
  2125  00039E  201A               	addwfc	??_mode_walker+1,w,c
  2126  0003A0  6E1C               	movwf	(??_mode_walker+3)& (0+255),c
  2127  0003A2  6A1D               	clrf	(??_mode_walker+4)& (0+255),c
  2128  0003A4  BE1C               	btfsc	(??_mode_walker+3)& (0+255),7,c
  2129  0003A6  061D               	decf	(??_mode_walker+4)& (0+255),f,c
  2130  0003A8  501D               	movf	(??_mode_walker+4)& (0+255),w,c
  2131  0003AA  6E1E               	movwf	(??_mode_walker+5)& (0+255),c
  2132  0003AC  501B               	movf	??_mode_walker+2,w,c
  2133  0003AE  2716               	addwf	mode_walker@dark_455& (0+255),f,b
  2134  0003B0  501C               	movf	??_mode_walker+3,w,c
  2135  0003B2  2317               	addwfc	(mode_walker@dark_455+1)& (0+255),f,b
  2136  0003B4  501D               	movf	??_mode_walker+4,w,c
  2137  0003B6  2318               	addwfc	(mode_walker@dark_455+2)& (0+255),f,b
  2138  0003B8  501E               	movf	??_mode_walker+5,w,c
  2139  0003BA                     L3:
  2140  0003BA  2319               	addwfc	(mode_walker@dark_455+3)& (0+255),f,b
  2141  0003BC  D01B               	goto	l291
  2142  0003BE                     l284:
  2143                           
  2144                           ; BSR set to: 3
  2145                           ;main2.c: 759: else
  2146                           ;main2.c: 760: dark -= 1010 - move;
  2147                           
  2148                           ; BSR set to: 3
  2149  0003BE  C332  F019         	movff	mode_walker@move,??_mode_walker
  2150  0003C2  C333  F01A         	movff	mode_walker@move+1,??_mode_walker+1
  2151  0003C6  1E19               	comf	??_mode_walker,f,c
  2152  0003C8  1E1A               	comf	??_mode_walker+1,f,c
  2153  0003CA  4A19               	infsnz	??_mode_walker,f,c
  2154  0003CC  2A1A               	incf	??_mode_walker+1,f,c
  2155  0003CE  0EF2               	movlw	242
  2156  0003D0  2419               	addwf	??_mode_walker,w,c
  2157  0003D2  6E1B               	movwf	(??_mode_walker+2)& (0+255),c
  2158  0003D4  0E03               	movlw	3
  2159  0003D6  201A               	addwfc	??_mode_walker+1,w,c
  2160  0003D8  6E1C               	movwf	(??_mode_walker+3)& (0+255),c
  2161  0003DA  6A1D               	clrf	(??_mode_walker+4)& (0+255),c
  2162  0003DC  BE1C               	btfsc	(??_mode_walker+3)& (0+255),7,c
  2163  0003DE  061D               	decf	(??_mode_walker+4)& (0+255),f,c
  2164  0003E0  501D               	movf	(??_mode_walker+4)& (0+255),w,c
  2165  0003E2  6E1E               	movwf	(??_mode_walker+5)& (0+255),c
  2166  0003E4  501B               	movf	??_mode_walker+2,w,c
  2167  0003E6  5F16               	subwf	mode_walker@dark_455& (0+255),f,b
  2168  0003E8  501C               	movf	??_mode_walker+3,w,c
  2169  0003EA  5B17               	subwfb	(mode_walker@dark_455+1)& (0+255),f,b
  2170  0003EC  501D               	movf	??_mode_walker+4,w,c
  2171  0003EE  5B18               	subwfb	(mode_walker@dark_455+2)& (0+255),f,b
  2172  0003F0  501E               	movf	??_mode_walker+5,w,c
  2173  0003F2                     L2:
  2174  0003F2  5B19               	subwfb	(mode_walker@dark_455+3)& (0+255),f,b
  2175  0003F4                     l291:
  2176  0003F4                     l3714:
  2177                           
  2178                           ; BSR set to: 3
  2179  0003F4  0EFF               	movlw	255
  2180  0003F6  2716               	addwf	mode_walker@dark_455& (0+255),f,b
  2181  0003F8  0EFF               	movlw	255
  2182  0003FA  2317               	addwfc	(mode_walker@dark_455+1)& (0+255),f,b
  2183  0003FC  0EFF               	movlw	255
  2184  0003FE  2318               	addwfc	(mode_walker@dark_455+2)& (0+255),f,b
  2185  000400  0EFF               	movlw	255
  2186  000402  2319               	addwfc	(mode_walker@dark_455+3)& (0+255),f,b
  2187  000404  2916               	incf	mode_walker@dark_455& (0+255),w,b
  2188  000406  E1F6               	bnz	l3714
  2189  000408  2917               	incf	(mode_walker@dark_455+1)& (0+255),w,b
  2190  00040A  E1F4               	bnz	l3714
  2191  00040C  2918               	incf	(mode_walker@dark_455+2)& (0+255),w,b
  2192  00040E  E1F2               	bnz	l3714
  2193  000410  2919               	incf	(mode_walker@dark_455+3)& (0+255),w,b
  2194  000412  A4D8               	btfss	status,2,c
  2195  000414  D7EF               	goto	l291
  2196                           
  2197                           ; BSR set to: 3
  2198                           
  2199                           ; BSR set to: 3
  2200  000416  4B36               	infsnz	mode_walker@i& (0+255),f,b
  2201  000418  2B37               	incf	(mode_walker@i+1)& (0+255),f,b
  2202                           
  2203                           ; BSR set to: 3
  2204  00041A  BF37               	btfsc	(mode_walker@i+1)& (0+255),7,b
  2205  00041C  D6CC               	goto	l239
  2206  00041E  5137               	movf	(mode_walker@i+1)& (0+255),w,b
  2207  000420  E101               	bnz	l3720
  2208  000422  D682               	goto	L4
  2209  000424                     u4960:
  2210  000424                     l3720:
  2211                           
  2212                           ; BSR set to: 3
  2213                           ;main2.c: 763: }
  2214                           ;main2.c: 765: if(++pic_cycle_i == pic_cycle) {
  2215  000424  4B20               	infsnz	mode_walker@pic_cycle_i& (0+255),f,b
  2216  000426  2B21               	incf	(mode_walker@pic_cycle_i+1)& (0+255),f,b
  2217  000428  5114               	movf	mode_walker@pic_cycle& (0+255),w,b
  2218  00042A  1920               	xorwf	mode_walker@pic_cycle_i& (0+255),w,b
  2219  00042C  E113               	bnz	l3728
  2220  00042E  5115               	movf	(mode_walker@pic_cycle+1)& (0+255),w,b
  2221  000430  1921               	xorwf	(mode_walker@pic_cycle_i+1)& (0+255),w,b
  2222  000432  A4D8               	btfss	status,2,c
  2223  000434  D00F               	goto	l296
  2224                           
  2225                           ; BSR set to: 3
  2226                           ;main2.c: 766: pic_cycle_i = 0;
  2227  000436  0E00               	movlw	0
  2228  000438  6F21               	movwf	(mode_walker@pic_cycle_i+1)& (0+255),b
  2229  00043A  0E00               	movlw	0
  2230  00043C  6F20               	movwf	mode_walker@pic_cycle_i& (0+255),b
  2231                           
  2232                           ; BSR set to: 3
  2233                           ;main2.c: 767: if(++pic_i == 6)
  2234  00043E  4B2C               	infsnz	mode_walker@pic_i& (0+255),f,b
  2235  000440  2B2D               	incf	(mode_walker@pic_i+1)& (0+255),f,b
  2236  000442  0E06               	movlw	6
  2237  000444  192C               	xorwf	mode_walker@pic_i& (0+255),w,b
  2238  000446  112D               	iorwf	(mode_walker@pic_i+1)& (0+255),w,b
  2239  000448  A4D8               	btfss	status,2,c
  2240  00044A  D004               	goto	l296
  2241                           
  2242                           ; BSR set to: 3
  2243                           ;main2.c: 768: pic_i = 0;
  2244  00044C  0E00               	movlw	0
  2245  00044E  6F2D               	movwf	(mode_walker@pic_i+1)& (0+255),b
  2246  000450  0E00               	movlw	0
  2247  000452  6F2C               	movwf	mode_walker@pic_i& (0+255),b
  2248  000454                     l296:
  2249  000454                     l3728:
  2250                           
  2251                           ; BSR set to: 3
  2252                           ;main2.c: 769: }
  2253                           ;main2.c: 772: if(state_change_cycle-- == 0) {
  2254  000454  070C               	decf	mode_walker@state_change_cycle& (0+255),f,b
  2255  000456  A0D8               	btfss	status,0,c
  2256  000458  070D               	decf	(mode_walker@state_change_cycle+1)& (0+255),f,b
  2257  00045A  290C               	incf	mode_walker@state_change_cycle& (0+255),w,b
  2258  00045C  E156               	bnz	l3752
  2259  00045E  290D               	incf	(mode_walker@state_change_cycle+1)& (0+255),w,b
  2260  000460  A4D8               	btfss	status,2,c
  2261  000462  D053               	goto	l306
  2262                           
  2263                           ; BSR set to: 3
  2264                           ;main2.c: 773: state_change_cycle = 120;
  2265  000464  0E00               	movlw	0
  2266  000466  6F0D               	movwf	(mode_walker@state_change_cycle+1)& (0+255),b
  2267  000468  0E78               	movlw	120
  2268  00046A  6F0C               	movwf	mode_walker@state_change_cycle& (0+255),b
  2269                           
  2270                           ;main2.c: 774: move = 1010;
  2271  00046C  0E03               	movlw	3
  2272  00046E  6F33               	movwf	(mode_walker@move+1)& (0+255),b
  2273  000470  0EF2               	movlw	242
  2274  000472  6F32               	movwf	mode_walker@move& (0+255),b
  2275                           
  2276                           ;main2.c: 775: update = 0;
  2277  000474  0E00               	movlw	0
  2278  000476  6F11               	movwf	(mode_walker@update+1)& (0+255),b
  2279  000478  0E00               	movlw	0
  2280  00047A  6F10               	movwf	mode_walker@update& (0+255),b
  2281                           
  2282                           ; BSR set to: 3
  2283                           ;main2.c: 776: state++;
  2284  00047C  4B30               	infsnz	mode_walker@state& (0+255),f,b
  2285  00047E  2B31               	incf	(mode_walker@state+1)& (0+255),f,b
  2286                           
  2287                           ; BSR set to: 3
  2288                           ;main2.c: 777: for(i = 0; i < 4; ++i)
  2289  000480  0E00               	movlw	0
  2290  000482  6F37               	movwf	(mode_walker@i+1)& (0+255),b
  2291  000484  0E00               	movlw	0
  2292  000486  6F36               	movwf	mode_walker@i& (0+255),b
  2293  000488                     l3736:
  2294                           
  2295                           ; BSR set to: 3
  2296  000488  BF37               	btfsc	(mode_walker@i+1)& (0+255),7,b
  2297  00048A  D006               	goto	l298
  2298  00048C  5137               	movf	(mode_walker@i+1)& (0+255),w,b
  2299  00048E  E125               	bnz	l3750
  2300  000490  0E04               	movlw	4
  2301  000492  5D36               	subwf	mode_walker@i& (0+255),w,b
  2302  000494  B0D8               	btfsc	status,0,c
  2303  000496  D021               	goto	l300
  2304  000498                     l298:
  2305                           
  2306                           ; BSR set to: 3
  2307                           ;main2.c: 778: four[i] = 0;
  2308                           
  2309                           ; BSR set to: 3
  2310  000498  90D8               	bcf	status,0,c
  2311  00049A  3536               	rlcf	mode_walker@i& (0+255),w,b
  2312  00049C  6ED9               	movwf	fsr2l,c
  2313  00049E  3537               	rlcf	(mode_walker@i+1)& (0+255),w,b
  2314  0004A0  6EDA               	movwf	fsr2h,c
  2315  0004A2  0E22               	movlw	low mode_walker@four
  2316  0004A4  26D9               	addwf	fsr2l,f,c
  2317  0004A6  0E03               	movlw	high mode_walker@four
  2318  0004A8  22DA               	addwfc	fsr2h,f,c
  2319  0004AA  0E00               	movlw	0
  2320  0004AC  6EDE               	movwf	postinc2,c
  2321  0004AE  0E00               	movlw	0
  2322  0004B0  6EDD               	movwf	postdec2,c
  2323                           
  2324                           ; BSR set to: 3
  2325  0004B2  4B36               	infsnz	mode_walker@i& (0+255),f,b
  2326  0004B4  2B37               	incf	(mode_walker@i+1)& (0+255),f,b
  2327  0004B6  D7E8               	goto	l3736
  2328  0004B8                     
  2329                           ; BSR set to: 3
  2330                           ;main2.c: 781: case 3:
  2331                           ;main2.c: 782: four[1] = four[3] = 1;
  2332                           
  2333                           ; BSR set to: 3
  2334                           
  2335                           ; BSR set to: 3
  2336  0004B8  0E00               	movlw	0
  2337  0004BA  6F29               	movwf	(mode_walker@four+7)& (0+255),b
  2338  0004BC  0E01               	movlw	1
  2339  0004BE  6F28               	movwf	(mode_walker@four+6)& (0+255),b
  2340  0004C0  C328  F324         	movff	mode_walker@four+6,mode_walker@four+2
  2341  0004C4  C329  F325         	movff	mode_walker@four+7,mode_walker@four+3
  2342  0004C8                     
  2343                           ; BSR set to: 3
  2344                           ;main2.c: 784: case 4:
  2345                           ;main2.c: 785: four[2] = 1;
  2346                           
  2347                           ; BSR set to: 3
  2348  0004C8  0E00               	movlw	0
  2349  0004CA  6F27               	movwf	(mode_walker@four+5)& (0+255),b
  2350  0004CC  0E01               	movlw	1
  2351  0004CE  6F26               	movwf	(mode_walker@four+4)& (0+255),b
  2352  0004D0                     l305:
  2353                           
  2354                           ; BSR set to: 3
  2355                           ;main2.c: 787: four[0] = 1;
  2356  0004D0  0E00               	movlw	0
  2357  0004D2  6F23               	movwf	(mode_walker@four+1)& (0+255),b
  2358  0004D4  0E01               	movlw	1
  2359  0004D6  6F22               	movwf	mode_walker@four& (0+255),b
  2360                           
  2361                           ; BSR set to: 3
  2362                           ;main2.c: 789: }
  2363                           
  2364                           ;main2.c: 788: break;
  2365  0004D8  D018               	goto	l306
  2366  0004DA                     l300:
  2367  0004DA                     l3750:
  2368                           
  2369                           ; BSR set to: 3
  2370  0004DA  C330  F019         	movff	mode_walker@state,??_mode_walker
  2371  0004DE  C331  F01A         	movff	mode_walker@state+1,??_mode_walker+1
  2372                           
  2373                           ; Switch on 2 bytes has been partitioned into a top level switch of size 1, and 1 sub-sw
      +                          itches
  2374                           ; Switch size 1, requested type "space"
  2375                           ; Number of cases is 1, Range of values is 0 to 0
  2376                           ; switch strategies available:
  2377                           ; Name         Instructions Cycles
  2378                           ; simple_byte            4     3 (average)
  2379                           ;	Chosen strategy is simple_byte
  2380  0004E2  501A               	movf	??_mode_walker+1,w,c
  2381  0004E4  0A00               	xorlw	0	; case 0
  2382  0004E6  A4D8               	btfss	status,2,c
  2383  0004E8  D010               	goto	l306
  2384                           
  2385                           ; BSR set to: 3
  2386                           ; Switch size 1, requested type "space"
  2387                           ; Number of cases is 5, Range of values is 0 to 4
  2388                           ; switch strategies available:
  2389                           ; Name         Instructions Cycles
  2390                           ; simple_byte           16     9 (average)
  2391                           ;	Chosen strategy is simple_byte
  2392  0004EA  5019               	movf	??_mode_walker,w,c
  2393  0004EC  0A00               	xorlw	0	; case 0
  2394  0004EE  B4D8               	btfsc	status,2,c
  2395  0004F0  D7EF               	goto	l305
  2396  0004F2  0A01               	xorlw	1	; case 1
  2397  0004F4  B4D8               	btfsc	status,2,c
  2398  0004F6  D7E8               	goto	l303
  2399  0004F8  0A03               	xorlw	3	; case 2
  2400  0004FA  B4D8               	btfsc	status,2,c
  2401  0004FC  D7DD               	goto	l301
  2402  0004FE  0A01               	xorlw	1	; case 3
  2403  000500  B4D8               	btfsc	status,2,c
  2404  000502  D7DA               	goto	l301
  2405  000504  0A07               	xorlw	7	; case 4
  2406  000506  B4D8               	btfsc	status,2,c
  2407  000508  D7DF               	goto	l303
  2408  00050A                     l306:
  2409  00050A                     l3752:
  2410                           
  2411                           ; BSR set to: 3
  2412  00050A  072A               	decf	mode_walker@display_cycle& (0+255),f,b
  2413  00050C  A0D8               	btfss	status,0,c
  2414  00050E  072B               	decf	(mode_walker@display_cycle+1)& (0+255),f,b
  2415  000510  292A               	incf	mode_walker@display_cycle& (0+255),w,b
  2416  000512  E102               	bnz	u5021
  2417  000514  292B               	incf	(mode_walker@display_cycle+1)& (0+255),w,b
  2418  000516  A4D8               	btfss	status,2,c
  2419  000518                     u5021:
  2420  000518  D5AB               	goto	l225
  2421                           
  2422                           ; BSR set to: 3
  2423                           ;main2.c: 790: }
  2424                           ;main2.c: 791: }
  2425                           ;main2.c: 794: display_cycle = 120;
  2426                           
  2427                           ; BSR set to: 3
  2428  00051A  0E00               	movlw	0
  2429  00051C  6F2B               	movwf	(mode_walker@display_cycle+1)& (0+255),b
  2430  00051E  0E78               	movlw	120
  2431  000520  6F2A               	movwf	mode_walker@display_cycle& (0+255),b
  2432                           
  2433                           ;main2.c: 795: move = 0;
  2434  000522  0E00               	movlw	0
  2435  000524  6F33               	movwf	(mode_walker@move+1)& (0+255),b
  2436  000526  0E00               	movlw	0
  2437  000528  6F32               	movwf	mode_walker@move& (0+255),b
  2438                           
  2439                           ;main2.c: 796: while(display_cycle--) {
  2440  00052A  D107               	goto	u5190
  2441  00052C                     
  2442                           ; BSR set to: 3
  2443                           ;main2.c: 797: move += 70;
  2444                           
  2445                           ; BSR set to: 3
  2446  00052C  0E46               	movlw	70
  2447  00052E  2732               	addwf	mode_walker@move& (0+255),f,b
  2448  000530  0E00               	movlw	0
  2449  000532  2333               	addwfc	(mode_walker@move+1)& (0+255),f,b
  2450                           
  2451                           ;main2.c: 798: if(move > 4880)
  2452  000534  BF33               	btfsc	(mode_walker@move+1)& (0+255),7,b
  2453  000536  D00B               	goto	l310
  2454  000538  0E11               	movlw	17
  2455  00053A  5D32               	subwf	mode_walker@move& (0+255),w,b
  2456  00053C  0E13               	movlw	19
  2457  00053E  5933               	subwfb	(mode_walker@move+1)& (0+255),w,b
  2458  000540  A0D8               	btfss	status,0,c
  2459  000542  D005               	goto	l310
  2460                           
  2461                           ; BSR set to: 3
  2462                           ;main2.c: 799: move = 4880;
  2463  000544  0E13               	movlw	19
  2464  000546  6F33               	movwf	(mode_walker@move+1)& (0+255),b
  2465  000548  0E10               	movlw	16
  2466  00054A  6F32               	movwf	mode_walker@move& (0+255),b
  2467  00054C  D00C               	goto	u5040
  2468  00054E                     l310:
  2469                           
  2470                           ; BSR set to: 3
  2471                           ;main2.c: 800: else {
  2472                           ;main2.c: 801: delay = 5;
  2473                           
  2474                           ; BSR set to: 3
  2475  00054E  0E00               	movlw	0
  2476  000550  6F35               	movwf	(mode_walker@delay+1)& (0+255),b
  2477  000552  0E05               	movlw	5
  2478  000554  6F34               	movwf	mode_walker@delay& (0+255),b
  2479  000556                     l3762:
  2480                           
  2481                           ; BSR set to: 3
  2482  000556  0734               	decf	mode_walker@delay& (0+255),f,b
  2483  000558  A0D8               	btfss	status,0,c
  2484  00055A  0735               	decf	(mode_walker@delay+1)& (0+255),f,b
  2485  00055C  2934               	incf	mode_walker@delay& (0+255),w,b
  2486  00055E  E1FB               	bnz	l3762
  2487  000560  2935               	incf	(mode_walker@delay+1)& (0+255),w,b
  2488  000562  A4D8               	btfss	status,2,c
  2489  000564  D7F8               	goto	l313
  2490  000566                     u5040:
  2491                           
  2492                           ; BSR set to: 3
  2493                           ;main2.c: 803: }
  2494                           ;main2.c: 805: delay = move;
  2495                           
  2496                           ; BSR set to: 3
  2497  000566  C332  F334         	movff	mode_walker@move,mode_walker@delay
  2498  00056A  C333  F335         	movff	mode_walker@move+1,mode_walker@delay+1
  2499  00056E                     l3764:
  2500                           
  2501                           ; BSR set to: 3
  2502  00056E  0734               	decf	mode_walker@delay& (0+255),f,b
  2503  000570  A0D8               	btfss	status,0,c
  2504  000572  0735               	decf	(mode_walker@delay+1)& (0+255),f,b
  2505  000574  2934               	incf	mode_walker@delay& (0+255),w,b
  2506  000576  E1FB               	bnz	l3764
  2507  000578  2935               	incf	(mode_walker@delay+1)& (0+255),w,b
  2508  00057A  A4D8               	btfss	status,2,c
  2509  00057C  D7F8               	goto	l316
  2510                           
  2511                           ; BSR set to: 3
  2512                           ;main2.c: 808: show = (unsigned int*)walker[pic_i];
  2513                           
  2514                           ; BSR set to: 3
  2515  00057E  C32C  F013         	movff	mode_walker@pic_i,___wmul@multiplier
  2516  000582  C32D  F014         	movff	mode_walker@pic_i+1,___wmul@multiplier+1
  2517  000586  0E00               	movlw	0
  2518  000588  6E16               	movwf	___wmul@multiplicand+1,c
  2519  00058A  0E12               	movlw	18
  2520  00058C  6E15               	movwf	___wmul@multiplicand,c
  2521  00058E  EC3F  F00F         	call	___wmul	;wreg free
  2522  000592  0E20               	movlw	low _walker
  2523  000594  2413               	addwf	?___wmul,w,c
  2524  000596  0103               	movlb	3	; () banked
  2525  000598  6F2E               	movwf	mode_walker@show& (0+255),b
  2526  00059A  0E01               	movlw	high _walker
  2527  00059C  2014               	addwfc	?___wmul+1,w,c
  2528  00059E  6F2F               	movwf	(mode_walker@show+1)& (0+255),b
  2529                           
  2530                           ; BSR set to: 3
  2531                           ;main2.c: 809: for(int column = 0; column < 9; ++column, ++show) {
  2532  0005A0  0E00               	movlw	0
  2533  0005A2  6F1D               	movwf	(mode_walker@column_456+1)& (0+255),b
  2534  0005A4  0E00               	movlw	0
  2535  0005A6  6F1C               	movwf	mode_walker@column_456& (0+255),b
  2536  0005A8                     l3770:
  2537                           
  2538                           ; BSR set to: 3
  2539  0005A8  BF1D               	btfsc	(mode_walker@column_456+1)& (0+255),7,b
  2540  0005AA  D006               	goto	l318
  2541  0005AC  511D               	movf	(mode_walker@column_456+1)& (0+255),w,b
  2542  0005AE  E13A               	bnz	l3790
  2543  0005B0  0E09               	movlw	9
  2544  0005B2  5D1C               	subwf	mode_walker@column_456& (0+255),w,b
  2545  0005B4  B0D8               	btfsc	status,0,c
  2546  0005B6  D036               	goto	u5090
  2547  0005B8                     l318:
  2548                           
  2549                           ; BSR set to: 3
  2550                           ;main2.c: 810: LATA = *show;
  2551                           
  2552                           ; BSR set to: 3
  2553  0005B8  C32E  FFD9         	movff	mode_walker@show,fsr2l
  2554  0005BC  C32F  FFDA         	movff	mode_walker@show+1,fsr2h
  2555  0005C0  50DF               	movf	indf2,w,c
  2556  0005C2  6E89               	movwf	3977,c	;volatile
  2557                           
  2558                           ;main2.c: 811: LATD = (*show) >> 8;
  2559  0005C4  C32E  FFD9         	movff	mode_walker@show,fsr2l
  2560  0005C8  C32F  FFDA         	movff	mode_walker@show+1,fsr2h
  2561  0005CC  CFDE F019          	movff	postinc2,??_mode_walker
  2562  0005D0  CFDD F01A          	movff	postdec2,??_mode_walker+1
  2563  0005D4  C01A  F019         	movff	??_mode_walker+1,??_mode_walker
  2564  0005D8  6A1A               	clrf	??_mode_walker+1,c
  2565  0005DA  5019               	movf	??_mode_walker,w,c
  2566  0005DC  6E8C               	movwf	3980,c	;volatile
  2567                           
  2568                           ; BSR set to: 3
  2569                           ;main2.c: 812: int bright = 60;
  2570  0005DE  0E00               	movlw	0
  2571  0005E0  6F05               	movwf	(mode_walker@bright_457+1)& (0+255),b
  2572  0005E2  0E3C               	movlw	60
  2573  0005E4  6F04               	movwf	mode_walker@bright_457& (0+255),b
  2574  0005E6                     l3778:
  2575                           
  2576                           ; BSR set to: 3
  2577  0005E6  0704               	decf	mode_walker@bright_457& (0+255),f,b
  2578  0005E8  A0D8               	btfss	status,0,c
  2579  0005EA  0705               	decf	(mode_walker@bright_457+1)& (0+255),f,b
  2580  0005EC  2904               	incf	mode_walker@bright_457& (0+255),w,b
  2581  0005EE  E1FB               	bnz	l3778
  2582  0005F0  2905               	incf	(mode_walker@bright_457+1)& (0+255),w,b
  2583  0005F2  A4D8               	btfss	status,2,c
  2584  0005F4  D7F8               	goto	l321
  2585                           
  2586                           ; BSR set to: 3
  2587                           ;main2.c: 814: LATA = 0;
  2588                           
  2589                           ; BSR set to: 3
  2590  0005F6  0E00               	movlw	0
  2591  0005F8  6E89               	movwf	3977,c	;volatile
  2592                           
  2593                           ;main2.c: 815: LATD = 0;
  2594  0005FA  0E00               	movlw	0
  2595  0005FC  6E8C               	movwf	3980,c	;volatile
  2596                           
  2597                           ;main2.c: 816: int dark = 60;
  2598  0005FE  0E00               	movlw	0
  2599  000600  6F07               	movwf	(mode_walker@dark_458+1)& (0+255),b
  2600  000602  0E3C               	movlw	60
  2601  000604  6F06               	movwf	mode_walker@dark_458& (0+255),b
  2602  000606                     l3782:
  2603                           
  2604                           ; BSR set to: 3
  2605  000606  0706               	decf	mode_walker@dark_458& (0+255),f,b
  2606  000608  A0D8               	btfss	status,0,c
  2607  00060A  0707               	decf	(mode_walker@dark_458+1)& (0+255),f,b
  2608  00060C  2906               	incf	mode_walker@dark_458& (0+255),w,b
  2609  00060E  E1FB               	bnz	l3782
  2610  000610  2907               	incf	(mode_walker@dark_458+1)& (0+255),w,b
  2611  000612  A4D8               	btfss	status,2,c
  2612  000614  D7F8               	goto	l324
  2613                           
  2614                           ; BSR set to: 3
  2615                           
  2616                           ; BSR set to: 3
  2617  000616  4B1C               	infsnz	mode_walker@column_456& (0+255),f,b
  2618  000618  2B1D               	incf	(mode_walker@column_456+1)& (0+255),f,b
  2619                           
  2620                           ; BSR set to: 3
  2621  00061A  0E02               	movlw	2
  2622  00061C  272E               	addwf	mode_walker@show& (0+255),f,b
  2623  00061E  0E00               	movlw	0
  2624  000620  232F               	addwfc	(mode_walker@show+1)& (0+255),f,b
  2625  000622  D7C2               	goto	l3770
  2626  000624                     u5090:
  2627  000624                     l3790:
  2628                           
  2629                           ; BSR set to: 3
  2630                           ;main2.c: 819: }
  2631                           ;main2.c: 822: int dark = 4880;
  2632  000624  0E13               	movlw	19
  2633  000626  6F0F               	movwf	(mode_walker@dark_459+1)& (0+255),b
  2634  000628  0E10               	movlw	16
  2635  00062A  6F0E               	movwf	mode_walker@dark_459& (0+255),b
  2636                           
  2637                           ; BSR set to: 3
  2638                           ;main2.c: 823: dark -= move;
  2639  00062C  5132               	movf	mode_walker@move& (0+255),w,b
  2640  00062E  5F0E               	subwf	mode_walker@dark_459& (0+255),f,b
  2641  000630  5133               	movf	(mode_walker@move+1)& (0+255),w,b
  2642  000632  5B0F               	subwfb	(mode_walker@dark_459+1)& (0+255),f,b
  2643  000634                     l3794:
  2644                           
  2645                           ; BSR set to: 3
  2646  000634  070E               	decf	mode_walker@dark_459& (0+255),f,b
  2647  000636  A0D8               	btfss	status,0,c
  2648  000638  070F               	decf	(mode_walker@dark_459+1)& (0+255),f,b
  2649  00063A  290E               	incf	mode_walker@dark_459& (0+255),w,b
  2650  00063C  E1FB               	bnz	l3794
  2651  00063E  290F               	incf	(mode_walker@dark_459+1)& (0+255),w,b
  2652  000640  A4D8               	btfss	status,2,c
  2653  000642  D7F8               	goto	l327
  2654                           
  2655                           ; BSR set to: 3
  2656                           ;main2.c: 826: for(int column = 0; column < 9; ++column) {
  2657                           
  2658                           ; BSR set to: 3
  2659  000644  0E00               	movlw	0
  2660  000646  6F1F               	movwf	(mode_walker@column_460+1)& (0+255),b
  2661  000648  0E00               	movlw	0
  2662  00064A  6F1E               	movwf	mode_walker@column_460& (0+255),b
  2663  00064C                     l3798:
  2664                           
  2665                           ; BSR set to: 3
  2666  00064C  BF1F               	btfsc	(mode_walker@column_460+1)& (0+255),7,b
  2667  00064E  D006               	goto	l329
  2668  000650  511F               	movf	(mode_walker@column_460+1)& (0+255),w,b
  2669  000652  E13A               	bnz	l3820
  2670  000654  0E09               	movlw	9
  2671  000656  5D1E               	subwf	mode_walker@column_460& (0+255),w,b
  2672  000658  B0D8               	btfsc	status,0,c
  2673  00065A  D036               	goto	u5140
  2674  00065C                     l329:
  2675                           
  2676                           ; BSR set to: 3
  2677                           ;main2.c: 827: --show;
  2678                           
  2679                           ; BSR set to: 3
  2680  00065C  0E02               	movlw	2
  2681  00065E  5F2E               	subwf	mode_walker@show& (0+255),f,b
  2682  000660  0E00               	movlw	0
  2683  000662  5B2F               	subwfb	(mode_walker@show+1)& (0+255),f,b
  2684                           
  2685                           ; BSR set to: 3
  2686                           ;main2.c: 828: LATA = *show;
  2687  000664  C32E  FFD9         	movff	mode_walker@show,fsr2l
  2688  000668  C32F  FFDA         	movff	mode_walker@show+1,fsr2h
  2689  00066C  50DF               	movf	indf2,w,c
  2690  00066E  6E89               	movwf	3977,c	;volatile
  2691                           
  2692                           ; BSR set to: 3
  2693                           ;main2.c: 829: LATD = (*show) >> 8;
  2694  000670  C32E  FFD9         	movff	mode_walker@show,fsr2l
  2695  000674  C32F  FFDA         	movff	mode_walker@show+1,fsr2h
  2696  000678  CFDE F019          	movff	postinc2,??_mode_walker
  2697  00067C  CFDD F01A          	movff	postdec2,??_mode_walker+1
  2698  000680  C01A  F019         	movff	??_mode_walker+1,??_mode_walker
  2699  000684  6A1A               	clrf	??_mode_walker+1,c
  2700  000686  5019               	movf	??_mode_walker,w,c
  2701  000688  6E8C               	movwf	3980,c	;volatile
  2702                           
  2703                           ; BSR set to: 3
  2704                           ;main2.c: 830: int bright = 60;
  2705  00068A  0E00               	movlw	0
  2706  00068C  6F09               	movwf	(mode_walker@bright_461+1)& (0+255),b
  2707  00068E  0E3C               	movlw	60
  2708  000690  6F08               	movwf	mode_walker@bright_461& (0+255),b
  2709  000692                     l3810:
  2710                           
  2711                           ; BSR set to: 3
  2712  000692  0708               	decf	mode_walker@bright_461& (0+255),f,b
  2713  000694  A0D8               	btfss	status,0,c
  2714  000696  0709               	decf	(mode_walker@bright_461+1)& (0+255),f,b
  2715  000698  2908               	incf	mode_walker@bright_461& (0+255),w,b
  2716  00069A  E1FB               	bnz	l3810
  2717  00069C  2909               	incf	(mode_walker@bright_461+1)& (0+255),w,b
  2718  00069E  A4D8               	btfss	status,2,c
  2719  0006A0  D7F8               	goto	l332
  2720                           
  2721                           ; BSR set to: 3
  2722                           ;main2.c: 832: LATA = 0;
  2723                           
  2724                           ; BSR set to: 3
  2725  0006A2  0E00               	movlw	0
  2726  0006A4  6E89               	movwf	3977,c	;volatile
  2727                           
  2728                           ;main2.c: 833: LATD = 0;
  2729  0006A6  0E00               	movlw	0
  2730  0006A8  6E8C               	movwf	3980,c	;volatile
  2731                           
  2732                           ;main2.c: 834: int dark = 60;
  2733  0006AA  0E00               	movlw	0
  2734  0006AC  6F0B               	movwf	(mode_walker@dark_462+1)& (0+255),b
  2735  0006AE  0E3C               	movlw	60
  2736  0006B0  6F0A               	movwf	mode_walker@dark_462& (0+255),b
  2737  0006B2                     l3814:
  2738                           
  2739                           ; BSR set to: 3
  2740  0006B2  070A               	decf	mode_walker@dark_462& (0+255),f,b
  2741  0006B4  A0D8               	btfss	status,0,c
  2742  0006B6  070B               	decf	(mode_walker@dark_462+1)& (0+255),f,b
  2743  0006B8  290A               	incf	mode_walker@dark_462& (0+255),w,b
  2744  0006BA  E1FB               	bnz	l3814
  2745  0006BC  290B               	incf	(mode_walker@dark_462+1)& (0+255),w,b
  2746  0006BE  A4D8               	btfss	status,2,c
  2747  0006C0  D7F8               	goto	l335
  2748                           
  2749                           ; BSR set to: 3
  2750                           
  2751                           ; BSR set to: 3
  2752  0006C2  4B1E               	infsnz	mode_walker@column_460& (0+255),f,b
  2753  0006C4  2B1F               	incf	(mode_walker@column_460+1)& (0+255),f,b
  2754  0006C6  D7C2               	goto	l3798
  2755  0006C8                     u5140:
  2756  0006C8                     l3820:
  2757                           
  2758                           ; BSR set to: 3
  2759                           ;main2.c: 836: }
  2760                           ;main2.c: 837: if(display_cycle > 40) {
  2761  0006C8  BF2B               	btfsc	(mode_walker@display_cycle+1)& (0+255),7,b
  2762  0006CA  D01F               	goto	l337
  2763  0006CC  512B               	movf	(mode_walker@display_cycle+1)& (0+255),w,b
  2764  0006CE  E104               	bnz	u5150
  2765  0006D0  0E29               	movlw	41
  2766  0006D2  5D2A               	subwf	mode_walker@display_cycle& (0+255),w,b
  2767  0006D4  A0D8               	btfss	status,0,c
  2768  0006D6  D019               	goto	l337
  2769  0006D8                     u5150:
  2770                           
  2771                           ; BSR set to: 3
  2772                           ;main2.c: 838: if(++pic_cycle_i == pic_cycle) {
  2773  0006D8  4B20               	infsnz	mode_walker@pic_cycle_i& (0+255),f,b
  2774  0006DA  2B21               	incf	(mode_walker@pic_cycle_i+1)& (0+255),f,b
  2775  0006DC  5114               	movf	mode_walker@pic_cycle& (0+255),w,b
  2776  0006DE  1920               	xorwf	mode_walker@pic_cycle_i& (0+255),w,b
  2777  0006E0  E120               	bnz	l3834
  2778  0006E2  5115               	movf	(mode_walker@pic_cycle+1)& (0+255),w,b
  2779  0006E4  1921               	xorwf	(mode_walker@pic_cycle_i+1)& (0+255),w,b
  2780  0006E6  A4D8               	btfss	status,2,c
  2781  0006E8  D01C               	goto	u5180
  2782                           
  2783                           ; BSR set to: 3
  2784                           ;main2.c: 839: pic_cycle_i = 0;
  2785  0006EA  0E00               	movlw	0
  2786  0006EC  6F21               	movwf	(mode_walker@pic_cycle_i+1)& (0+255),b
  2787  0006EE  0E00               	movlw	0
  2788  0006F0  6F20               	movwf	mode_walker@pic_cycle_i& (0+255),b
  2789                           
  2790                           ; BSR set to: 3
  2791                           ;main2.c: 840: if(++pic_i == 6)
  2792  0006F2  4B2C               	infsnz	mode_walker@pic_i& (0+255),f,b
  2793  0006F4  2B2D               	incf	(mode_walker@pic_i+1)& (0+255),f,b
  2794  0006F6  0E06               	movlw	6
  2795  0006F8  192C               	xorwf	mode_walker@pic_i& (0+255),w,b
  2796  0006FA  112D               	iorwf	(mode_walker@pic_i+1)& (0+255),w,b
  2797  0006FC  A4D8               	btfss	status,2,c
  2798  0006FE  D011               	goto	u5180
  2799                           
  2800                           ; BSR set to: 3
  2801                           ;main2.c: 841: pic_i = 0;
  2802  000700  0E00               	movlw	0
  2803  000702  6F2D               	movwf	(mode_walker@pic_i+1)& (0+255),b
  2804  000704  0E00               	movlw	0
  2805  000706  6F2C               	movwf	mode_walker@pic_i& (0+255),b
  2806                           
  2807                           ; BSR set to: 3
  2808                           ;main2.c: 842: }
  2809                           ;main2.c: 843: } else {
  2810                           
  2811                           ; BSR set to: 3
  2812  000708  D00C               	goto	u5180
  2813  00070A                     l337:
  2814                           
  2815                           ; BSR set to: 3
  2816                           ;main2.c: 844: delay = 15;
  2817                           
  2818                           ; BSR set to: 3
  2819  00070A  0E00               	movlw	0
  2820  00070C  6F35               	movwf	(mode_walker@delay+1)& (0+255),b
  2821  00070E  0E0F               	movlw	15
  2822  000710  6F34               	movwf	mode_walker@delay& (0+255),b
  2823  000712                     l3832:
  2824                           
  2825                           ; BSR set to: 3
  2826  000712  0734               	decf	mode_walker@delay& (0+255),f,b
  2827  000714  A0D8               	btfss	status,0,c
  2828  000716  0735               	decf	(mode_walker@delay+1)& (0+255),f,b
  2829  000718  2934               	incf	mode_walker@delay& (0+255),w,b
  2830  00071A  E1FB               	bnz	l3832
  2831  00071C  2935               	incf	(mode_walker@delay+1)& (0+255),w,b
  2832  00071E  A4D8               	btfss	status,2,c
  2833  000720  D7F8               	goto	l342
  2834  000722                     u5180:
  2835  000722                     l3834:
  2836                           
  2837                           ; BSR set to: 3
  2838                           ;main2.c: 846: }
  2839                           ;main2.c: 848: delay = 4950;
  2840  000722  0E13               	movlw	19
  2841  000724  6F35               	movwf	(mode_walker@delay+1)& (0+255),b
  2842  000726  0E56               	movlw	86
  2843  000728  6F34               	movwf	mode_walker@delay& (0+255),b
  2844  00072A                     l3836:
  2845                           
  2846                           ; BSR set to: 3
  2847  00072A  0734               	decf	mode_walker@delay& (0+255),f,b
  2848  00072C  A0D8               	btfss	status,0,c
  2849  00072E  0735               	decf	(mode_walker@delay+1)& (0+255),f,b
  2850  000730  2934               	incf	mode_walker@delay& (0+255),w,b
  2851  000732  E1FB               	bnz	l3836
  2852  000734  2935               	incf	(mode_walker@delay+1)& (0+255),w,b
  2853  000736  A4D8               	btfss	status,2,c
  2854  000738  D7F8               	goto	l345
  2855  00073A                     u5190:
  2856                           
  2857                           ; BSR set to: 3
  2858                           
  2859                           ; BSR set to: 3
  2860                           
  2861                           ; BSR set to: 3
  2862  00073A  072A               	decf	mode_walker@display_cycle& (0+255),f,b
  2863  00073C  A0D8               	btfss	status,0,c
  2864  00073E  072B               	decf	(mode_walker@display_cycle+1)& (0+255),f,b
  2865  000740  292A               	incf	mode_walker@display_cycle& (0+255),w,b
  2866  000742  E103               	bnz	u5201
  2867  000744  292B               	incf	(mode_walker@display_cycle+1)& (0+255),w,b
  2868  000746  B4D8               	btfsc	status,2,c
  2869  000748  0012               	return	
  2870  00074A                     u5201:
  2871  00074A  D6F0               	goto	l309
  2872  00074C                     __end_of_mode_walker:
  2873                           	opt stack 0
  2874                           tblptru	equ	0xFF8
  2875                           tblptrh	equ	0xFF7
  2876                           tblptrl	equ	0xFF6
  2877                           tablat	equ	0xFF5
  2878                           intcon	equ	0xFF2
  2879                           postinc0	equ	0xFEE
  2880                           wreg	equ	0xFE8
  2881                           postdec1	equ	0xFE5
  2882                           plusw1	equ	0xFE3
  2883                           fsr1l	equ	0xFE1
  2884                           indf2	equ	0xFDF
  2885                           postinc2	equ	0xFDE
  2886                           postdec2	equ	0xFDD
  2887                           plusw2	equ	0xFDB
  2888                           fsr2h	equ	0xFDA
  2889                           fsr2l	equ	0xFD9
  2890                           status	equ	0xFD8
  2891                           
  2892 ;; *************** function _mode_tree *****************
  2893 ;; Defined at:
  2894 ;;		line 531 in file "main2.c"
  2895 ;; Parameters:    Size  Location     Type
  2896 ;;		None
  2897 ;; Auto vars:     Size  Location     Type
  2898 ;;  wait            2    8[BANK3 ] int 
  2899 ;;  dark            2   12[BANK3 ] int 
  2900 ;;  bright          2   10[BANK3 ] int 
  2901 ;;  dark            2    6[BANK3 ] int 
  2902 ;;  bright          2    4[BANK3 ] int 
  2903 ;;  dark            2   24[BANK3 ] int 
  2904 ;;  bright          2   22[BANK3 ] int 
  2905 ;;  i               2   40[BANK3 ] int 
  2906 ;;  i               2   34[BANK3 ] int 
  2907 ;;  i               2   54[BANK3 ] int 
  2908 ;;  show            2   38[BANK3 ] PTR int 
  2909 ;;		 -> tree(42), 
  2910 ;;  show            2   32[BANK3 ] PTR int 
  2911 ;;		 -> tree(42), 
  2912 ;;  show            2   52[BANK3 ] PTR int 
  2913 ;;		 -> tree(42), 
  2914 ;;  dark            2   20[BANK3 ] int 
  2915 ;;  bright          2   18[BANK3 ] int 
  2916 ;;  dark            2   16[BANK3 ] int 
  2917 ;;  bright          2   14[BANK3 ] int 
  2918 ;;  six_i           2   70[BANK3 ] int 
  2919 ;;  six_i           2   30[BANK3 ] int 
  2920 ;;  tree_i          2   50[BANK3 ] int 
  2921 ;;  i               2   48[BANK3 ] int 
  2922 ;;  i               2   44[BANK3 ] int 
  2923 ;;  six_ptr         2   28[BANK3 ] PTR int 
  2924 ;;		 -> mode_tree@six(12), 
  2925 ;;  six_ptr         2   26[BANK3 ] PTR int 
  2926 ;;		 -> mode_tree@six(12), 
  2927 ;;  show            2   46[BANK3 ] PTR int 
  2928 ;;		 -> tree(42), 
  2929 ;;  show            2   42[BANK3 ] PTR int 
  2930 ;;		 -> tree(42), 
  2931 ;;  move            2   36[BANK3 ] int 
  2932 ;;  six            12   56[BANK3 ] int [6]
  2933 ;;  delay           2   76[BANK3 ] int 
  2934 ;;  count           2   74[BANK3 ] int 
  2935 ;;  interval        2   72[BANK3 ] int 
  2936 ;;  cycle           2   68[BANK3 ] int 
  2937 ;;  state           2    2[BANK3 ] int 
  2938 ;;  count_4         2    0[BANK3 ] int 
  2939 ;; Return value:  Size  Location     Type
  2940 ;;                  1    wreg      void 
  2941 ;; Registers used:
  2942 ;;		wreg, fsr1l, fsr1h, fsr2l, fsr2h, status,2, status,0
  2943 ;; Tracked objects:
  2944 ;;		On entry : 0/0
  2945 ;;		On exit  : 0/0
  2946 ;;		Unchanged: 0/0
  2947 ;; Data sizes:     COMRAM   BANK0   BANK1   BANK2   BANK3   BANK4   BANK5
  2948 ;;      Params:         0       0       0       0       0       0       0
  2949 ;;      Locals:         0       0       0       0      78       0       0
  2950 ;;      Temps:          2       0       0       0       0       0       0
  2951 ;;      Totals:         2       0       0       0      78       0       0
  2952 ;;Total ram usage:       80 bytes
  2953 ;; Hardware stack levels used:    1
  2954 ;; Hardware stack levels required when called:    2
  2955 ;; This function calls:
  2956 ;;		Nothing
  2957 ;; This function is called by:
  2958 ;;		_main
  2959 ;; This function uses a non-reentrant model
  2960 ;;
  2961                           
  2962                           	psect	text2
  2963  00074C                     __ptext2:
  2964                           	opt stack 0
  2965  00074C                     _mode_tree:
  2966                           	opt stack 28
  2967                           
  2968                           ;main2.c: 534: bool six[6] = {1, 0, 0, 0, 0, 0};
  2969                           
  2970                           ; BSR set to: 3
  2971                           ;incstack = 0
  2972  00074C  EE20  F080         	lfsr	2,mode_tree@F3046
  2973  000750  EE13  F038         	lfsr	1,mode_tree@six
  2974  000754  0E0B               	movlw	11
  2975  000756                     u4201:
  2976  000756  CFDB FFE3          	movff	plusw2,plusw1
  2977  00075A  06E8               	decf	wreg,f,c
  2978  00075C  E2FC               	bc	u4201
  2979                           
  2980                           ;main2.c: 535: int cycle;
  2981                           ;main2.c: 536: int delay;
  2982                           ;main2.c: 537: int count_4 = 4;
  2983  00075E  0E00               	movlw	0
  2984  000760  0103               	movlb	3	; () banked
  2985  000762  6F01               	movwf	(mode_tree@count_4+1)& (0+255),b
  2986  000764  0E04               	movlw	4
  2987  000766  6F00               	movwf	mode_tree@count_4& (0+255),b
  2988                           
  2989                           ; BSR set to: 3
  2990                           ;main2.c: 538: int state = 0;
  2991  000768  0E00               	movlw	0
  2992  00076A  6F03               	movwf	(mode_tree@state+1)& (0+255),b
  2993  00076C  0E00               	movlw	0
  2994  00076E  6F02               	movwf	mode_tree@state& (0+255),b
  2995                           
  2996                           ;main2.c: 539: while(count_4--) {
  2997  000770  D182               	goto	l170
  2998  000772                     
  2999                           ; BSR set to: 3
  3000                           ;main2.c: 540: cycle = 8;
  3001                           
  3002                           ; BSR set to: 3
  3003  000772  0E00               	movlw	0
  3004  000774  6F45               	movwf	(mode_tree@cycle+1)& (0+255),b
  3005  000776  0E08               	movlw	8
  3006  000778  6F44               	movwf	mode_tree@cycle& (0+255),b
  3007                           
  3008                           ;main2.c: 541: while(cycle--) {
  3009  00077A  D088               	goto	u4290
  3010  00077C                     
  3011                           ; BSR set to: 3
  3012                           ;main2.c: 542: int* six_ptr = (int*)six;
  3013                           
  3014                           ; BSR set to: 3
  3015  00077C  0E38               	movlw	low mode_tree@six
  3016  00077E  6F1A               	movwf	mode_tree@six_ptr& (0+255),b
  3017  000780  0E03               	movlw	high mode_tree@six
  3018  000782  6F1B               	movwf	(mode_tree@six_ptr+1)& (0+255),b
  3019                           
  3020                           ; BSR set to: 3
  3021                           ;main2.c: 543: for(int six_i = 0; six_i < 6; ++six_i, ++six_ptr) {
  3022  000784  0E00               	movlw	0
  3023  000786  6F1F               	movwf	(mode_tree@six_i+1)& (0+255),b
  3024  000788  0E00               	movlw	0
  3025  00078A  6F1E               	movwf	mode_tree@six_i& (0+255),b
  3026                           
  3027                           ; BSR set to: 3
  3028  00078C  BF1F               	btfsc	(mode_tree@six_i+1)& (0+255),7,b
  3029  00078E  D006               	goto	l125
  3030  000790  511F               	movf	(mode_tree@six_i+1)& (0+255),w,b
  3031  000792  E17C               	bnz	u4290
  3032  000794  0E06               	movlw	6
  3033  000796  5D1E               	subwf	mode_tree@six_i& (0+255),w,b
  3034  000798  B0D8               	btfsc	status,0,c
  3035  00079A  D078               	goto	u4290
  3036  00079C                     l125:
  3037                           
  3038                           ; BSR set to: 3
  3039                           ;main2.c: 544: int* show = (int*)tree;
  3040                           
  3041                           ; BSR set to: 3
  3042  00079C  0EB7               	movlw	low _tree
  3043  00079E  6F20               	movwf	mode_tree@show& (0+255),b
  3044  0007A0  0E00               	movlw	high _tree
  3045  0007A2  6F21               	movwf	(mode_tree@show+1)& (0+255),b
  3046                           
  3047                           ; BSR set to: 3
  3048                           ;main2.c: 545: for(int i = 0; i < 21; ++i, ++show) {
  3049  0007A4  0E00               	movlw	0
  3050  0007A6  6F23               	movwf	(mode_tree@i+1)& (0+255),b
  3051  0007A8  0E00               	movlw	0
  3052  0007AA  6F22               	movwf	mode_tree@i& (0+255),b
  3053  0007AC                     l3354:
  3054                           
  3055                           ; BSR set to: 3
  3056  0007AC  BF23               	btfsc	(mode_tree@i+1)& (0+255),7,b
  3057  0007AE  D006               	goto	l127
  3058  0007B0  5123               	movf	(mode_tree@i+1)& (0+255),w,b
  3059  0007B2  E155               	bnz	l3380
  3060  0007B4  0E15               	movlw	21
  3061  0007B6  5D22               	subwf	mode_tree@i& (0+255),w,b
  3062  0007B8  B0D8               	btfsc	status,0,c
  3063  0007BA  D051               	goto	u4270
  3064  0007BC                     l127:
  3065                           
  3066                           ; BSR set to: 3
  3067                           ;main2.c: 546: if(*six_ptr) {
  3068                           
  3069                           ; BSR set to: 3
  3070  0007BC  C31A  FFD9         	movff	mode_tree@six_ptr,fsr2l
  3071  0007C0  C31B  FFDA         	movff	mode_tree@six_ptr+1,fsr2h
  3072  0007C4  50DE               	movf	postinc2,w,c
  3073  0007C6  10DE               	iorwf	postinc2,w,c
  3074  0007C8  B4D8               	btfsc	status,2,c
  3075  0007CA  D016               	goto	l129
  3076                           
  3077                           ; BSR set to: 3
  3078                           ;main2.c: 547: LATA = *show;
  3079  0007CC  C320  FFD9         	movff	mode_tree@show,fsr2l
  3080  0007D0  C321  FFDA         	movff	mode_tree@show+1,fsr2h
  3081  0007D4  50DF               	movf	indf2,w,c
  3082  0007D6  6E89               	movwf	3977,c	;volatile
  3083                           
  3084                           ;main2.c: 548: LATD = *show >> 8;
  3085  0007D8  C320  FFD9         	movff	mode_tree@show,fsr2l
  3086  0007DC  C321  FFDA         	movff	mode_tree@show+1,fsr2h
  3087  0007E0  CFDE F013          	movff	postinc2,??_mode_tree
  3088  0007E4  CFDD F014          	movff	postdec2,??_mode_tree+1
  3089  0007E8  C014  F013         	movff	??_mode_tree+1,??_mode_tree
  3090  0007EC  6A14               	clrf	??_mode_tree+1,c
  3091  0007EE  BE13               	btfsc	??_mode_tree,7,c
  3092  0007F0  6814               	setf	??_mode_tree+1,c
  3093  0007F2  5013               	movf	??_mode_tree,w,c
  3094  0007F4  6E8C               	movwf	3980,c	;volatile
  3095                           
  3096                           ;main2.c: 549: } else {
  3097  0007F6  D010               	goto	u4240
  3098  0007F8                     l129:
  3099                           
  3100                           ; BSR set to: 3
  3101                           ;main2.c: 550: LATA = 0;
  3102                           
  3103                           ; BSR set to: 3
  3104  0007F8  0E00               	movlw	0
  3105  0007FA  6E89               	movwf	3977,c	;volatile
  3106                           
  3107                           ;main2.c: 551: LATD = 0;
  3108  0007FC  0E00               	movlw	0
  3109  0007FE  6E8C               	movwf	3980,c	;volatile
  3110                           
  3111                           ;main2.c: 552: delay = 1;
  3112  000800  0E00               	movlw	0
  3113  000802  6F4D               	movwf	(mode_tree@delay+1)& (0+255),b
  3114  000804  0E01               	movlw	1
  3115  000806  6F4C               	movwf	mode_tree@delay& (0+255),b
  3116  000808                     l3364:
  3117                           
  3118                           ; BSR set to: 3
  3119  000808  074C               	decf	mode_tree@delay& (0+255),f,b
  3120  00080A  A0D8               	btfss	status,0,c
  3121  00080C  074D               	decf	(mode_tree@delay+1)& (0+255),f,b
  3122  00080E  294C               	incf	mode_tree@delay& (0+255),w,b
  3123  000810  E1FB               	bnz	l3364
  3124  000812  294D               	incf	(mode_tree@delay+1)& (0+255),w,b
  3125  000814  A4D8               	btfss	status,2,c
  3126  000816  D7F8               	goto	l132
  3127  000818                     u4240:
  3128                           
  3129                           ; BSR set to: 3
  3130                           ;main2.c: 554: }
  3131                           ;main2.c: 555: int bright = 30;
  3132                           
  3133                           ; BSR set to: 3
  3134                           
  3135                           ; BSR set to: 3
  3136  000818  0E00               	movlw	0
  3137  00081A  6F05               	movwf	(mode_tree@bright+1)& (0+255),b
  3138  00081C  0E1E               	movlw	30
  3139  00081E  6F04               	movwf	mode_tree@bright& (0+255),b
  3140  000820                     l3368:
  3141                           
  3142                           ; BSR set to: 3
  3143  000820  0704               	decf	mode_tree@bright& (0+255),f,b
  3144  000822  A0D8               	btfss	status,0,c
  3145  000824  0705               	decf	(mode_tree@bright+1)& (0+255),f,b
  3146  000826  2904               	incf	mode_tree@bright& (0+255),w,b
  3147  000828  E1FB               	bnz	l3368
  3148  00082A  2905               	incf	(mode_tree@bright+1)& (0+255),w,b
  3149  00082C  A4D8               	btfss	status,2,c
  3150  00082E  D7F8               	goto	l135
  3151                           
  3152                           ; BSR set to: 3
  3153                           ;main2.c: 557: LATA = LATD = 0;
  3154                           
  3155                           ; BSR set to: 3
  3156  000830  0E00               	movlw	0
  3157  000832  6E8C               	movwf	3980,c	;volatile
  3158  000834  CF8C FF89          	movff	3980,3977	;volatile
  3159                           
  3160                           ;main2.c: 558: int dark = 30;
  3161  000838  0E00               	movlw	0
  3162  00083A  6F07               	movwf	(mode_tree@dark+1)& (0+255),b
  3163  00083C  0E1E               	movlw	30
  3164  00083E  6F06               	movwf	mode_tree@dark& (0+255),b
  3165  000840                     l3372:
  3166                           
  3167                           ; BSR set to: 3
  3168  000840  0706               	decf	mode_tree@dark& (0+255),f,b
  3169  000842  A0D8               	btfss	status,0,c
  3170  000844  0707               	decf	(mode_tree@dark+1)& (0+255),f,b
  3171  000846  2906               	incf	mode_tree@dark& (0+255),w,b
  3172  000848  E1FB               	bnz	l3372
  3173  00084A  2907               	incf	(mode_tree@dark+1)& (0+255),w,b
  3174  00084C  A4D8               	btfss	status,2,c
  3175  00084E  D7F8               	goto	l138
  3176                           
  3177                           ; BSR set to: 3
  3178                           
  3179                           ; BSR set to: 3
  3180  000850  4B22               	infsnz	mode_tree@i& (0+255),f,b
  3181  000852  2B23               	incf	(mode_tree@i+1)& (0+255),f,b
  3182                           
  3183                           ; BSR set to: 3
  3184  000854  0E02               	movlw	2
  3185  000856  2720               	addwf	mode_tree@show& (0+255),f,b
  3186  000858  0E00               	movlw	0
  3187  00085A  2321               	addwfc	(mode_tree@show+1)& (0+255),f,b
  3188  00085C  D7A7               	goto	l3354
  3189  00085E                     u4270:
  3190  00085E                     l3380:
  3191                           
  3192                           ; BSR set to: 3
  3193                           ;main2.c: 560: }
  3194                           ;main2.c: 561: delay = 510;
  3195  00085E  0E01               	movlw	1
  3196  000860  6F4D               	movwf	(mode_tree@delay+1)& (0+255),b
  3197  000862  0EFE               	movlw	254
  3198  000864  6F4C               	movwf	mode_tree@delay& (0+255),b
  3199  000866                     l3382:
  3200                           
  3201                           ; BSR set to: 3
  3202  000866  074C               	decf	mode_tree@delay& (0+255),f,b
  3203  000868  A0D8               	btfss	status,0,c
  3204  00086A  074D               	decf	(mode_tree@delay+1)& (0+255),f,b
  3205  00086C  294C               	incf	mode_tree@delay& (0+255),w,b
  3206  00086E  E1FB               	bnz	l3382
  3207  000870  294D               	incf	(mode_tree@delay+1)& (0+255),w,b
  3208  000872  A4D8               	btfss	status,2,c
  3209  000874  D7F8               	goto	l141
  3210                           
  3211                           ; BSR set to: 3
  3212                           
  3213                           ; BSR set to: 3
  3214  000876  4B1E               	infsnz	mode_tree@six_i& (0+255),f,b
  3215  000878  2B1F               	incf	(mode_tree@six_i+1)& (0+255),f,b
  3216                           
  3217                           ; BSR set to: 3
  3218  00087A  0E02               	movlw	2
  3219  00087C  271A               	addwf	mode_tree@six_ptr& (0+255),f,b
  3220  00087E  0E00               	movlw	0
  3221  000880  231B               	addwfc	(mode_tree@six_ptr+1)& (0+255),f,b
  3222                           
  3223                           ; BSR set to: 3
  3224  000882  BF1F               	btfsc	(mode_tree@six_i+1)& (0+255),7,b
  3225  000884  D78B               	goto	l125
  3226  000886  511F               	movf	(mode_tree@six_i+1)& (0+255),w,b
  3227  000888  E101               	bnz	l3390
  3228  00088A  D784               	goto	L5
  3229  00088C                     u4290:
  3230  00088C                     l3390:
  3231                           
  3232                           ; BSR set to: 3
  3233  00088C  0744               	decf	mode_tree@cycle& (0+255),f,b
  3234  00088E  A0D8               	btfss	status,0,c
  3235  000890  0745               	decf	(mode_tree@cycle+1)& (0+255),f,b
  3236  000892  2944               	incf	mode_tree@cycle& (0+255),w,b
  3237  000894  E102               	bnz	u4301
  3238  000896  2945               	incf	(mode_tree@cycle+1)& (0+255),w,b
  3239  000898  A4D8               	btfss	status,2,c
  3240  00089A                     u4301:
  3241  00089A  D770               	goto	l124
  3242                           
  3243                           ; BSR set to: 3
  3244                           ;main2.c: 563: }
  3245                           ;main2.c: 564: }
  3246                           ;main2.c: 565: cycle = 15;
  3247                           
  3248                           ; BSR set to: 3
  3249  00089C  0E00               	movlw	0
  3250  00089E  6F45               	movwf	(mode_tree@cycle+1)& (0+255),b
  3251  0008A0  0E0F               	movlw	15
  3252  0008A2  6F44               	movwf	mode_tree@cycle& (0+255),b
  3253                           
  3254                           ;main2.c: 566: int move = 0;
  3255  0008A4  0E00               	movlw	0
  3256  0008A6  6F25               	movwf	(mode_tree@move+1)& (0+255),b
  3257  0008A8  0E00               	movlw	0
  3258  0008AA  6F24               	movwf	mode_tree@move& (0+255),b
  3259                           
  3260                           ;main2.c: 567: while(cycle--) {
  3261  0008AC  D09D               	goto	u4410
  3262  0008AE                     
  3263                           ; BSR set to: 3
  3264                           ;main2.c: 568: int* six_ptr = (int*)six;
  3265                           
  3266                           ; BSR set to: 3
  3267  0008AE  0E38               	movlw	low mode_tree@six
  3268  0008B0  6F1C               	movwf	mode_tree@six_ptr_415& (0+255),b
  3269  0008B2  0E03               	movlw	high mode_tree@six
  3270  0008B4  6F1D               	movwf	(mode_tree@six_ptr_415+1)& (0+255),b
  3271                           
  3272                           ; BSR set to: 3
  3273                           ;main2.c: 569: for(int six_i = 0; six_i < 6; ++six_i, ++six_ptr) {
  3274  0008B6  0E00               	movlw	0
  3275  0008B8  6F47               	movwf	(mode_tree@six_i_416+1)& (0+255),b
  3276  0008BA  0E00               	movlw	0
  3277  0008BC  6F46               	movwf	mode_tree@six_i_416& (0+255),b
  3278                           
  3279                           ; BSR set to: 3
  3280  0008BE  BF47               	btfsc	(mode_tree@six_i_416+1)& (0+255),7,b
  3281  0008C0  D008               	goto	l146
  3282  0008C2  5147               	movf	(mode_tree@six_i_416+1)& (0+255),w,b
  3283  0008C4  E105               	bnz	u4310
  3284  0008C6  0E06               	movlw	6
  3285  0008C8  5D46               	subwf	mode_tree@six_i_416& (0+255),w,b
  3286  0008CA  B0D8               	btfsc	status,0,c
  3287  0008CC  D08D               	goto	u4410
  3288  0008CE  D001               	goto	l146
  3289  0008D0                     u4310:
  3290                           
  3291                           ; BSR set to: 3
  3292  0008D0  D08B               	goto	u4410
  3293  0008D2                     l146:
  3294                           
  3295                           ; BSR set to: 3
  3296                           ;main2.c: 570: int* show = (int*)tree;
  3297                           
  3298                           ; BSR set to: 3
  3299  0008D2  0EB7               	movlw	low _tree
  3300  0008D4  6F26               	movwf	mode_tree@show_417& (0+255),b
  3301  0008D6  0E00               	movlw	high _tree
  3302  0008D8  6F27               	movwf	(mode_tree@show_417+1)& (0+255),b
  3303                           
  3304                           ; BSR set to: 3
  3305                           ;main2.c: 571: for(int i = 0; i < 21; ++i, ++show) {
  3306  0008DA  0E00               	movlw	0
  3307  0008DC  6F29               	movwf	(mode_tree@i_418+1)& (0+255),b
  3308  0008DE  0E00               	movlw	0
  3309  0008E0  6F28               	movwf	mode_tree@i_418& (0+255),b
  3310  0008E2                     l3406:
  3311                           
  3312                           ; BSR set to: 3
  3313  0008E2  BF29               	btfsc	(mode_tree@i_418+1)& (0+255),7,b
  3314  0008E4  D006               	goto	l148
  3315  0008E6  5129               	movf	(mode_tree@i_418+1)& (0+255),w,b
  3316  0008E8  E155               	bnz	l3432
  3317  0008EA  0E15               	movlw	21
  3318  0008EC  5D28               	subwf	mode_tree@i_418& (0+255),w,b
  3319  0008EE  B0D8               	btfsc	status,0,c
  3320  0008F0  D051               	goto	u4370
  3321  0008F2                     l148:
  3322                           
  3323                           ; BSR set to: 3
  3324                           ;main2.c: 572: if(*six_ptr) {
  3325                           
  3326                           ; BSR set to: 3
  3327  0008F2  C31C  FFD9         	movff	mode_tree@six_ptr_415,fsr2l
  3328  0008F6  C31D  FFDA         	movff	mode_tree@six_ptr_415+1,fsr2h
  3329  0008FA  50DE               	movf	postinc2,w,c
  3330  0008FC  10DE               	iorwf	postinc2,w,c
  3331  0008FE  B4D8               	btfsc	status,2,c
  3332  000900  D016               	goto	l150
  3333                           
  3334                           ; BSR set to: 3
  3335                           ;main2.c: 573: LATA = *show;
  3336  000902  C326  FFD9         	movff	mode_tree@show_417,fsr2l
  3337  000906  C327  FFDA         	movff	mode_tree@show_417+1,fsr2h
  3338  00090A  50DF               	movf	indf2,w,c
  3339  00090C  6E89               	movwf	3977,c	;volatile
  3340                           
  3341                           ;main2.c: 574: LATD = *show >> 8;
  3342  00090E  C326  FFD9         	movff	mode_tree@show_417,fsr2l
  3343  000912  C327  FFDA         	movff	mode_tree@show_417+1,fsr2h
  3344  000916  CFDE F013          	movff	postinc2,??_mode_tree
  3345  00091A  CFDD F014          	movff	postdec2,??_mode_tree+1
  3346  00091E  C014  F013         	movff	??_mode_tree+1,??_mode_tree
  3347  000922  6A14               	clrf	??_mode_tree+1,c
  3348  000924  BE13               	btfsc	??_mode_tree,7,c
  3349  000926  6814               	setf	??_mode_tree+1,c
  3350  000928  5013               	movf	??_mode_tree,w,c
  3351  00092A  6E8C               	movwf	3980,c	;volatile
  3352                           
  3353                           ;main2.c: 575: } else {
  3354  00092C  D010               	goto	u4340
  3355  00092E                     l150:
  3356                           
  3357                           ; BSR set to: 3
  3358                           ;main2.c: 576: LATA = 0;
  3359                           
  3360                           ; BSR set to: 3
  3361  00092E  0E00               	movlw	0
  3362  000930  6E89               	movwf	3977,c	;volatile
  3363                           
  3364                           ;main2.c: 577: LATD = 0;
  3365  000932  0E00               	movlw	0
  3366  000934  6E8C               	movwf	3980,c	;volatile
  3367                           
  3368                           ;main2.c: 578: int wait = 1;
  3369  000936  0E00               	movlw	0
  3370  000938  6F09               	movwf	(mode_tree@wait+1)& (0+255),b
  3371  00093A  0E01               	movlw	1
  3372  00093C  6F08               	movwf	mode_tree@wait& (0+255),b
  3373  00093E                     l3416:
  3374                           
  3375                           ; BSR set to: 3
  3376  00093E  0708               	decf	mode_tree@wait& (0+255),f,b
  3377  000940  A0D8               	btfss	status,0,c
  3378  000942  0709               	decf	(mode_tree@wait+1)& (0+255),f,b
  3379  000944  2908               	incf	mode_tree@wait& (0+255),w,b
  3380  000946  E1FB               	bnz	l3416
  3381  000948  2909               	incf	(mode_tree@wait+1)& (0+255),w,b
  3382  00094A  A4D8               	btfss	status,2,c
  3383  00094C  D7F8               	goto	l153
  3384  00094E                     u4340:
  3385                           
  3386                           ; BSR set to: 3
  3387                           ;main2.c: 580: }
  3388                           ;main2.c: 581: int bright = 30;
  3389                           
  3390                           ; BSR set to: 3
  3391                           
  3392                           ; BSR set to: 3
  3393  00094E  0E00               	movlw	0
  3394  000950  6F0B               	movwf	(mode_tree@bright_420+1)& (0+255),b
  3395  000952  0E1E               	movlw	30
  3396  000954  6F0A               	movwf	mode_tree@bright_420& (0+255),b
  3397  000956                     l3420:
  3398                           
  3399                           ; BSR set to: 3
  3400  000956  070A               	decf	mode_tree@bright_420& (0+255),f,b
  3401  000958  A0D8               	btfss	status,0,c
  3402  00095A  070B               	decf	(mode_tree@bright_420+1)& (0+255),f,b
  3403  00095C  290A               	incf	mode_tree@bright_420& (0+255),w,b
  3404  00095E  E1FB               	bnz	l3420
  3405  000960  290B               	incf	(mode_tree@bright_420+1)& (0+255),w,b
  3406  000962  A4D8               	btfss	status,2,c
  3407  000964  D7F8               	goto	l156
  3408                           
  3409                           ; BSR set to: 3
  3410                           ;main2.c: 583: LATA = LATD = 0;
  3411                           
  3412                           ; BSR set to: 3
  3413  000966  0E00               	movlw	0
  3414  000968  6E8C               	movwf	3980,c	;volatile
  3415  00096A  CF8C FF89          	movff	3980,3977	;volatile
  3416                           
  3417                           ;main2.c: 584: int dark = 30;
  3418  00096E  0E00               	movlw	0
  3419  000970  6F0D               	movwf	(mode_tree@dark_421+1)& (0+255),b
  3420  000972  0E1E               	movlw	30
  3421  000974  6F0C               	movwf	mode_tree@dark_421& (0+255),b
  3422  000976                     l3424:
  3423                           
  3424                           ; BSR set to: 3
  3425  000976  070C               	decf	mode_tree@dark_421& (0+255),f,b
  3426  000978  A0D8               	btfss	status,0,c
  3427  00097A  070D               	decf	(mode_tree@dark_421+1)& (0+255),f,b
  3428  00097C  290C               	incf	mode_tree@dark_421& (0+255),w,b
  3429  00097E  E1FB               	bnz	l3424
  3430  000980  290D               	incf	(mode_tree@dark_421+1)& (0+255),w,b
  3431  000982  A4D8               	btfss	status,2,c
  3432  000984  D7F8               	goto	l159
  3433                           
  3434                           ; BSR set to: 3
  3435                           
  3436                           ; BSR set to: 3
  3437  000986  4B28               	infsnz	mode_tree@i_418& (0+255),f,b
  3438  000988  2B29               	incf	(mode_tree@i_418+1)& (0+255),f,b
  3439                           
  3440                           ; BSR set to: 3
  3441  00098A  0E02               	movlw	2
  3442  00098C  2726               	addwf	mode_tree@show_417& (0+255),f,b
  3443  00098E  0E00               	movlw	0
  3444  000990  2327               	addwfc	(mode_tree@show_417+1)& (0+255),f,b
  3445  000992  D7A7               	goto	l3406
  3446  000994                     u4370:
  3447  000994                     l3432:
  3448                           
  3449                           ; BSR set to: 3
  3450                           ;main2.c: 586: }
  3451                           ;main2.c: 587: delay = 510;
  3452  000994  0E01               	movlw	1
  3453  000996  6F4D               	movwf	(mode_tree@delay+1)& (0+255),b
  3454  000998  0EFE               	movlw	254
  3455  00099A  6F4C               	movwf	mode_tree@delay& (0+255),b
  3456                           
  3457                           ; BSR set to: 3
  3458                           ;main2.c: 588: if(six_i == 0) {
  3459  00099C  5146               	movf	mode_tree@six_i_416& (0+255),w,b
  3460  00099E  1147               	iorwf	(mode_tree@six_i_416+1)& (0+255),w,b
  3461  0009A0  A4D8               	btfss	status,2,c
  3462  0009A2  D00F               	goto	l161
  3463                           
  3464                           ; BSR set to: 3
  3465                           ;main2.c: 589: if(cycle & 1)
  3466  0009A4  A144               	btfss	mode_tree@cycle& (0+255),0,b
  3467  0009A6  D005               	goto	l162
  3468                           
  3469                           ; BSR set to: 3
  3470                           ;main2.c: 590: delay += move;
  3471  0009A8  5124               	movf	mode_tree@move& (0+255),w,b
  3472  0009AA  274C               	addwf	mode_tree@delay& (0+255),f,b
  3473  0009AC  5125               	movf	(mode_tree@move+1)& (0+255),w,b
  3474  0009AE  234D               	addwfc	(mode_tree@delay+1)& (0+255),f,b
  3475  0009B0  D004               	goto	l163
  3476  0009B2                     l162:
  3477                           
  3478                           ; BSR set to: 3
  3479                           ;main2.c: 591: else
  3480                           ;main2.c: 592: delay -= move;
  3481                           
  3482                           ; BSR set to: 3
  3483  0009B2  5124               	movf	mode_tree@move& (0+255),w,b
  3484  0009B4  5F4C               	subwf	mode_tree@delay& (0+255),f,b
  3485  0009B6  5125               	movf	(mode_tree@move+1)& (0+255),w,b
  3486  0009B8  5B4D               	subwfb	(mode_tree@delay+1)& (0+255),f,b
  3487  0009BA                     l163:
  3488                           
  3489                           ; BSR set to: 3
  3490                           ;main2.c: 593: move += 33;
  3491  0009BA  0E21               	movlw	33
  3492  0009BC  2724               	addwf	mode_tree@move& (0+255),f,b
  3493  0009BE  0E00               	movlw	0
  3494  0009C0  2325               	addwfc	(mode_tree@move+1)& (0+255),f,b
  3495  0009C2                     l161:
  3496  0009C2                     l3442:
  3497                           
  3498                           ; BSR set to: 3
  3499  0009C2  074C               	decf	mode_tree@delay& (0+255),f,b
  3500  0009C4  A0D8               	btfss	status,0,c
  3501  0009C6  074D               	decf	(mode_tree@delay+1)& (0+255),f,b
  3502  0009C8  294C               	incf	mode_tree@delay& (0+255),w,b
  3503  0009CA  E1FB               	bnz	l3442
  3504  0009CC  294D               	incf	(mode_tree@delay+1)& (0+255),w,b
  3505  0009CE  A4D8               	btfss	status,2,c
  3506  0009D0  D7F8               	goto	l161
  3507                           
  3508                           ; BSR set to: 3
  3509                           
  3510                           ; BSR set to: 3
  3511  0009D2  4B46               	infsnz	mode_tree@six_i_416& (0+255),f,b
  3512  0009D4  2B47               	incf	(mode_tree@six_i_416+1)& (0+255),f,b
  3513                           
  3514                           ; BSR set to: 3
  3515  0009D6  0E02               	movlw	2
  3516  0009D8  271C               	addwf	mode_tree@six_ptr_415& (0+255),f,b
  3517  0009DA  0E00               	movlw	0
  3518  0009DC  231D               	addwfc	(mode_tree@six_ptr_415+1)& (0+255),f,b
  3519                           
  3520                           ; BSR set to: 3
  3521  0009DE  BF47               	btfsc	(mode_tree@six_i_416+1)& (0+255),7,b
  3522  0009E0  D778               	goto	l146
  3523  0009E2  5147               	movf	(mode_tree@six_i_416+1)& (0+255),w,b
  3524  0009E4  E101               	bnz	l3450
  3525  0009E6  D76F               	goto	L6
  3526  0009E8                     u4410:
  3527  0009E8                     l3450:
  3528                           
  3529                           ; BSR set to: 3
  3530  0009E8  0744               	decf	mode_tree@cycle& (0+255),f,b
  3531  0009EA  A0D8               	btfss	status,0,c
  3532  0009EC  0745               	decf	(mode_tree@cycle+1)& (0+255),f,b
  3533  0009EE  2944               	incf	mode_tree@cycle& (0+255),w,b
  3534  0009F0  E103               	bnz	u4421
  3535  0009F2  2945               	incf	(mode_tree@cycle+1)& (0+255),w,b
  3536  0009F4  B4D8               	btfsc	status,2,c
  3537  0009F6  D02B               	goto	l168
  3538  0009F8                     u4421:
  3539  0009F8  D75A               	goto	l145
  3540  0009FA                     
  3541                           ; BSR set to: 3
  3542                           ;main2.c: 600: six[0] = 0;
  3543                           
  3544                           ; BSR set to: 3
  3545  0009FA  0E00               	movlw	0
  3546  0009FC  6F39               	movwf	(mode_tree@six+1)& (0+255),b
  3547  0009FE  0E00               	movlw	0
  3548  000A00  6F38               	movwf	mode_tree@six& (0+255),b
  3549                           
  3550                           ;main2.c: 601: six[1] = six[5] = 1;
  3551  000A02  0E00               	movlw	0
  3552  000A04  6F43               	movwf	(mode_tree@six+11)& (0+255),b
  3553  000A06  0E01               	movlw	1
  3554  000A08  D00F               	goto	L7
  3555  000A0A                     
  3556                           ; BSR set to: 3
  3557                           ;main2.c: 604: six[0] = six[2] = six[4] = 1;
  3558                           
  3559                           ; BSR set to: 3
  3560  000A0A  0E00               	movlw	0
  3561  000A0C  6F41               	movwf	(mode_tree@six+9)& (0+255),b
  3562  000A0E  0E01               	movlw	1
  3563  000A10  6F40               	movwf	(mode_tree@six+8)& (0+255),b
  3564  000A12  C340  F33C         	movff	mode_tree@six+8,mode_tree@six+4
  3565  000A16  C341  F33D         	movff	mode_tree@six+9,mode_tree@six+5
  3566  000A1A  C33C  F338         	movff	mode_tree@six+4,mode_tree@six
  3567  000A1E  C33D  F339         	movff	mode_tree@six+5,mode_tree@six+1
  3568                           
  3569                           ;main2.c: 605: six[1] = six[5] = 0;
  3570  000A22  0E00               	movlw	0
  3571  000A24  6F43               	movwf	(mode_tree@six+11)& (0+255),b
  3572  000A26  0E00               	movlw	0
  3573  000A28                     L7:
  3574  000A28  6F42               	movwf	(mode_tree@six+10)& (0+255),b
  3575  000A2A  C342  F33A         	movff	mode_tree@six+10,mode_tree@six+2
  3576  000A2E  C343  F33B         	movff	mode_tree@six+11,mode_tree@six+3
  3577                           
  3578                           ;main2.c: 606: break;
  3579  000A32  D021               	goto	l170
  3580  000A34                     
  3581                           ; BSR set to: 3
  3582                           ;main2.c: 608: six[1] = six[3] = six[5] = 1;
  3583                           
  3584                           ; BSR set to: 3
  3585  000A34  0E00               	movlw	0
  3586  000A36  6F43               	movwf	(mode_tree@six+11)& (0+255),b
  3587  000A38  0E01               	movlw	1
  3588  000A3A  6F42               	movwf	(mode_tree@six+10)& (0+255),b
  3589  000A3C  C342  F33E         	movff	mode_tree@six+10,mode_tree@six+6
  3590  000A40  C343  F33F         	movff	mode_tree@six+11,mode_tree@six+7
  3591  000A44  C33E  F33A         	movff	mode_tree@six+6,mode_tree@six+2
  3592  000A48  C33F  F33B         	movff	mode_tree@six+7,mode_tree@six+3
  3593                           
  3594                           ; BSR set to: 3
  3595                           ;main2.c: 610: }
  3596                           
  3597                           ;main2.c: 609: break;
  3598  000A4C  D014               	goto	l170
  3599  000A4E                     l168:
  3600                           
  3601                           ; BSR set to: 3
  3602                           
  3603                           ; BSR set to: 3
  3604  000A4E  4B02               	infsnz	mode_tree@state& (0+255),f,b
  3605  000A50  2B03               	incf	(mode_tree@state+1)& (0+255),f,b
  3606  000A52  C302  F013         	movff	mode_tree@state,??_mode_tree
  3607  000A56  C303  F014         	movff	mode_tree@state+1,??_mode_tree+1
  3608                           
  3609                           ; Switch on 2 bytes has been partitioned into a top level switch of size 1, and 1 sub-sw
      +                          itches
  3610                           ; Switch size 1, requested type "space"
  3611                           ; Number of cases is 1, Range of values is 0 to 0
  3612                           ; switch strategies available:
  3613                           ; Name         Instructions Cycles
  3614                           ; simple_byte            4     3 (average)
  3615                           ;	Chosen strategy is simple_byte
  3616  000A5A  5014               	movf	??_mode_tree+1,w,c
  3617  000A5C  0A00               	xorlw	0	; case 0
  3618  000A5E  A4D8               	btfss	status,2,c
  3619  000A60  D00A               	goto	l170
  3620                           
  3621                           ; BSR set to: 3
  3622                           ; Switch size 1, requested type "space"
  3623                           ; Number of cases is 3, Range of values is 1 to 3
  3624                           ; switch strategies available:
  3625                           ; Name         Instructions Cycles
  3626                           ; simple_byte           10     6 (average)
  3627                           ;	Chosen strategy is simple_byte
  3628  000A62  5013               	movf	??_mode_tree,w,c
  3629  000A64  0A01               	xorlw	1	; case 1
  3630  000A66  B4D8               	btfsc	status,2,c
  3631  000A68  D7C8               	goto	l169
  3632  000A6A  0A03               	xorlw	3	; case 2
  3633  000A6C  B4D8               	btfsc	status,2,c
  3634  000A6E  D7CD               	goto	l171
  3635  000A70  0A01               	xorlw	1	; case 3
  3636  000A72  B4D8               	btfsc	status,2,c
  3637  000A74  D7DF               	goto	l172
  3638  000A76                     l170:
  3639                           
  3640                           ; BSR set to: 3
  3641                           
  3642                           ; BSR set to: 3
  3643                           
  3644                           ; BSR set to: 3
  3645  000A76  0700               	decf	mode_tree@count_4& (0+255),f,b
  3646  000A78  A0D8               	btfss	status,0,c
  3647  000A7A  0701               	decf	(mode_tree@count_4+1)& (0+255),f,b
  3648  000A7C  2900               	incf	mode_tree@count_4& (0+255),w,b
  3649  000A7E  E102               	bnz	u4431
  3650  000A80  2901               	incf	(mode_tree@count_4+1)& (0+255),w,b
  3651  000A82  A4D8               	btfss	status,2,c
  3652  000A84                     u4431:
  3653  000A84  D676               	goto	l122
  3654                           
  3655                           ; BSR set to: 3
  3656                           ;main2.c: 611: }
  3657                           ;main2.c: 612: int count = 15;
  3658                           
  3659                           ; BSR set to: 3
  3660  000A86  0E00               	movlw	0
  3661  000A88  6F4B               	movwf	(mode_tree@count+1)& (0+255),b
  3662  000A8A  0E0F               	movlw	15
  3663  000A8C  6F4A               	movwf	mode_tree@count& (0+255),b
  3664                           
  3665                           ;main2.c: 613: while(count--) {
  3666  000A8E  D054               	goto	u4480
  3667  000A90                     l3466:
  3668                           
  3669                           ; BSR set to: 3
  3670                           ;main2.c: 614: int* show = (int*)tree;
  3671  000A90  0EB7               	movlw	low _tree
  3672  000A92  6F2A               	movwf	mode_tree@show_423& (0+255),b
  3673  000A94  0E00               	movlw	high _tree
  3674  000A96  6F2B               	movwf	(mode_tree@show_423+1)& (0+255),b
  3675                           
  3676                           ; BSR set to: 3
  3677                           ;main2.c: 615: for(int i = 0; i < 21; ++i, ++show) {
  3678  000A98  0E00               	movlw	0
  3679  000A9A  6F2D               	movwf	(mode_tree@i_424+1)& (0+255),b
  3680  000A9C  0E00               	movlw	0
  3681  000A9E  6F2C               	movwf	mode_tree@i_424& (0+255),b
  3682  000AA0                     l3470:
  3683                           
  3684                           ; BSR set to: 3
  3685  000AA0  BF2D               	btfsc	(mode_tree@i_424+1)& (0+255),7,b
  3686  000AA2  D006               	goto	l176
  3687  000AA4  512D               	movf	(mode_tree@i_424+1)& (0+255),w,b
  3688  000AA6  E13C               	bnz	l3490
  3689  000AA8  0E15               	movlw	21
  3690  000AAA  5D2C               	subwf	mode_tree@i_424& (0+255),w,b
  3691  000AAC  B0D8               	btfsc	status,0,c
  3692  000AAE  D038               	goto	u4470
  3693  000AB0                     l176:
  3694                           
  3695                           ; BSR set to: 3
  3696                           ;main2.c: 616: LATA = *show;
  3697                           
  3698                           ; BSR set to: 3
  3699  000AB0  C32A  FFD9         	movff	mode_tree@show_423,fsr2l
  3700  000AB4  C32B  FFDA         	movff	mode_tree@show_423+1,fsr2h
  3701  000AB8  50DF               	movf	indf2,w,c
  3702  000ABA  6E89               	movwf	3977,c	;volatile
  3703                           
  3704                           ;main2.c: 617: LATD = *show >> 8;
  3705  000ABC  C32A  FFD9         	movff	mode_tree@show_423,fsr2l
  3706  000AC0  C32B  FFDA         	movff	mode_tree@show_423+1,fsr2h
  3707  000AC4  CFDE F013          	movff	postinc2,??_mode_tree
  3708  000AC8  CFDD F014          	movff	postdec2,??_mode_tree+1
  3709  000ACC  C014  F013         	movff	??_mode_tree+1,??_mode_tree
  3710  000AD0  6A14               	clrf	??_mode_tree+1,c
  3711  000AD2  BE13               	btfsc	??_mode_tree,7,c
  3712  000AD4  6814               	setf	??_mode_tree+1,c
  3713  000AD6  5013               	movf	??_mode_tree,w,c
  3714  000AD8  6E8C               	movwf	3980,c	;volatile
  3715                           
  3716                           ; BSR set to: 3
  3717                           ;main2.c: 618: int bright = 30;
  3718  000ADA  0E00               	movlw	0
  3719  000ADC  6F0F               	movwf	(mode_tree@bright_425+1)& (0+255),b
  3720  000ADE  0E1E               	movlw	30
  3721  000AE0  6F0E               	movwf	mode_tree@bright_425& (0+255),b
  3722  000AE2                     l3478:
  3723                           
  3724                           ; BSR set to: 3
  3725  000AE2  070E               	decf	mode_tree@bright_425& (0+255),f,b
  3726  000AE4  A0D8               	btfss	status,0,c
  3727  000AE6  070F               	decf	(mode_tree@bright_425+1)& (0+255),f,b
  3728  000AE8  290E               	incf	mode_tree@bright_425& (0+255),w,b
  3729  000AEA  E1FB               	bnz	l3478
  3730  000AEC  290F               	incf	(mode_tree@bright_425+1)& (0+255),w,b
  3731  000AEE  A4D8               	btfss	status,2,c
  3732  000AF0  D7F8               	goto	l179
  3733                           
  3734                           ; BSR set to: 3
  3735                           ;main2.c: 620: LATA = LATD = 0;
  3736                           
  3737                           ; BSR set to: 3
  3738  000AF2  0E00               	movlw	0
  3739  000AF4  6E8C               	movwf	3980,c	;volatile
  3740  000AF6  CF8C FF89          	movff	3980,3977	;volatile
  3741                           
  3742                           ;main2.c: 621: int dark = 30;
  3743  000AFA  0E00               	movlw	0
  3744  000AFC  6F11               	movwf	(mode_tree@dark_426+1)& (0+255),b
  3745  000AFE  0E1E               	movlw	30
  3746  000B00  6F10               	movwf	mode_tree@dark_426& (0+255),b
  3747  000B02                     l3482:
  3748                           
  3749                           ; BSR set to: 3
  3750  000B02  0710               	decf	mode_tree@dark_426& (0+255),f,b
  3751  000B04  A0D8               	btfss	status,0,c
  3752  000B06  0711               	decf	(mode_tree@dark_426+1)& (0+255),f,b
  3753  000B08  2910               	incf	mode_tree@dark_426& (0+255),w,b
  3754  000B0A  E1FB               	bnz	l3482
  3755  000B0C  2911               	incf	(mode_tree@dark_426+1)& (0+255),w,b
  3756  000B0E  A4D8               	btfss	status,2,c
  3757  000B10  D7F8               	goto	l182
  3758                           
  3759                           ; BSR set to: 3
  3760                           
  3761                           ; BSR set to: 3
  3762  000B12  4B2C               	infsnz	mode_tree@i_424& (0+255),f,b
  3763  000B14  2B2D               	incf	(mode_tree@i_424+1)& (0+255),f,b
  3764                           
  3765                           ; BSR set to: 3
  3766  000B16  0E02               	movlw	2
  3767  000B18  272A               	addwf	mode_tree@show_423& (0+255),f,b
  3768  000B1A  0E00               	movlw	0
  3769  000B1C  232B               	addwfc	(mode_tree@show_423+1)& (0+255),f,b
  3770  000B1E  D7C0               	goto	l3470
  3771  000B20                     u4470:
  3772  000B20                     l3490:
  3773                           
  3774                           ; BSR set to: 3
  3775                           ;main2.c: 623: }
  3776                           ;main2.c: 624: delay = 15500;
  3777  000B20  0E3C               	movlw	60
  3778  000B22  6F4D               	movwf	(mode_tree@delay+1)& (0+255),b
  3779  000B24  0E8C               	movlw	140
  3780  000B26  6F4C               	movwf	mode_tree@delay& (0+255),b
  3781  000B28                     l3492:
  3782                           
  3783                           ; BSR set to: 3
  3784  000B28  074C               	decf	mode_tree@delay& (0+255),f,b
  3785  000B2A  A0D8               	btfss	status,0,c
  3786  000B2C  074D               	decf	(mode_tree@delay+1)& (0+255),f,b
  3787  000B2E  294C               	incf	mode_tree@delay& (0+255),w,b
  3788  000B30  E1FB               	bnz	l3492
  3789  000B32  294D               	incf	(mode_tree@delay+1)& (0+255),w,b
  3790  000B34  A4D8               	btfss	status,2,c
  3791  000B36  D7F8               	goto	l185
  3792  000B38                     u4480:
  3793                           
  3794                           ; BSR set to: 3
  3795                           
  3796                           ; BSR set to: 3
  3797                           
  3798                           ; BSR set to: 3
  3799  000B38  074A               	decf	mode_tree@count& (0+255),f,b
  3800  000B3A  A0D8               	btfss	status,0,c
  3801  000B3C  074B               	decf	(mode_tree@count+1)& (0+255),f,b
  3802  000B3E  294A               	incf	mode_tree@count& (0+255),w,b
  3803  000B40  E1A7               	bnz	l3466
  3804  000B42  294B               	incf	(mode_tree@count+1)& (0+255),w,b
  3805  000B44  A4D8               	btfss	status,2,c
  3806  000B46  D7A4               	goto	l175
  3807                           
  3808                           ; BSR set to: 3
  3809                           ;main2.c: 626: }
  3810                           ;main2.c: 627: count = 20;
  3811                           
  3812                           ; BSR set to: 3
  3813  000B48  0E00               	movlw	0
  3814  000B4A  6F4B               	movwf	(mode_tree@count+1)& (0+255),b
  3815  000B4C  0E14               	movlw	20
  3816  000B4E  6F4A               	movwf	mode_tree@count& (0+255),b
  3817                           
  3818                           ;main2.c: 628: while(count--) {
  3819  000B50  D054               	goto	u4540
  3820  000B52                     l3498:
  3821                           
  3822                           ; BSR set to: 3
  3823                           ;main2.c: 629: int* show = (int*)tree;
  3824  000B52  0EB7               	movlw	low _tree
  3825  000B54  6F2E               	movwf	mode_tree@show_427& (0+255),b
  3826  000B56  0E00               	movlw	high _tree
  3827  000B58  6F2F               	movwf	(mode_tree@show_427+1)& (0+255),b
  3828                           
  3829                           ; BSR set to: 3
  3830                           ;main2.c: 630: for(int i = 0; i < 21; ++i, ++show) {
  3831  000B5A  0E00               	movlw	0
  3832  000B5C  6F31               	movwf	(mode_tree@i_428+1)& (0+255),b
  3833  000B5E  0E00               	movlw	0
  3834  000B60  6F30               	movwf	mode_tree@i_428& (0+255),b
  3835  000B62                     l3502:
  3836                           
  3837                           ; BSR set to: 3
  3838  000B62  BF31               	btfsc	(mode_tree@i_428+1)& (0+255),7,b
  3839  000B64  D006               	goto	l190
  3840  000B66  5131               	movf	(mode_tree@i_428+1)& (0+255),w,b
  3841  000B68  E13C               	bnz	l3522
  3842  000B6A  0E15               	movlw	21
  3843  000B6C  5D30               	subwf	mode_tree@i_428& (0+255),w,b
  3844  000B6E  B0D8               	btfsc	status,0,c
  3845  000B70  D038               	goto	u4530
  3846  000B72                     l190:
  3847                           
  3848                           ; BSR set to: 3
  3849                           ;main2.c: 631: LATA = *show;
  3850                           
  3851                           ; BSR set to: 3
  3852  000B72  C32E  FFD9         	movff	mode_tree@show_427,fsr2l
  3853  000B76  C32F  FFDA         	movff	mode_tree@show_427+1,fsr2h
  3854  000B7A  50DF               	movf	indf2,w,c
  3855  000B7C  6E89               	movwf	3977,c	;volatile
  3856                           
  3857                           ;main2.c: 632: LATD = *show >> 8;
  3858  000B7E  C32E  FFD9         	movff	mode_tree@show_427,fsr2l
  3859  000B82  C32F  FFDA         	movff	mode_tree@show_427+1,fsr2h
  3860  000B86  CFDE F013          	movff	postinc2,??_mode_tree
  3861  000B8A  CFDD F014          	movff	postdec2,??_mode_tree+1
  3862  000B8E  C014  F013         	movff	??_mode_tree+1,??_mode_tree
  3863  000B92  6A14               	clrf	??_mode_tree+1,c
  3864  000B94  BE13               	btfsc	??_mode_tree,7,c
  3865  000B96  6814               	setf	??_mode_tree+1,c
  3866  000B98  5013               	movf	??_mode_tree,w,c
  3867  000B9A  6E8C               	movwf	3980,c	;volatile
  3868                           
  3869                           ; BSR set to: 3
  3870                           ;main2.c: 633: int bright = 30;
  3871  000B9C  0E00               	movlw	0
  3872  000B9E  6F13               	movwf	(mode_tree@bright_429+1)& (0+255),b
  3873  000BA0  0E1E               	movlw	30
  3874  000BA2  6F12               	movwf	mode_tree@bright_429& (0+255),b
  3875  000BA4                     l3510:
  3876                           
  3877                           ; BSR set to: 3
  3878  000BA4  0712               	decf	mode_tree@bright_429& (0+255),f,b
  3879  000BA6  A0D8               	btfss	status,0,c
  3880  000BA8  0713               	decf	(mode_tree@bright_429+1)& (0+255),f,b
  3881  000BAA  2912               	incf	mode_tree@bright_429& (0+255),w,b
  3882  000BAC  E1FB               	bnz	l3510
  3883  000BAE  2913               	incf	(mode_tree@bright_429+1)& (0+255),w,b
  3884  000BB0  A4D8               	btfss	status,2,c
  3885  000BB2  D7F8               	goto	l193
  3886                           
  3887                           ; BSR set to: 3
  3888                           ;main2.c: 635: LATA = LATD = 0;
  3889                           
  3890                           ; BSR set to: 3
  3891  000BB4  0E00               	movlw	0
  3892  000BB6  6E8C               	movwf	3980,c	;volatile
  3893  000BB8  CF8C FF89          	movff	3980,3977	;volatile
  3894                           
  3895                           ;main2.c: 636: int dark = 30;
  3896  000BBC  0E00               	movlw	0
  3897  000BBE  6F15               	movwf	(mode_tree@dark_430+1)& (0+255),b
  3898  000BC0  0E1E               	movlw	30
  3899  000BC2  6F14               	movwf	mode_tree@dark_430& (0+255),b
  3900  000BC4                     l3514:
  3901                           
  3902                           ; BSR set to: 3
  3903  000BC4  0714               	decf	mode_tree@dark_430& (0+255),f,b
  3904  000BC6  A0D8               	btfss	status,0,c
  3905  000BC8  0715               	decf	(mode_tree@dark_430+1)& (0+255),f,b
  3906  000BCA  2914               	incf	mode_tree@dark_430& (0+255),w,b
  3907  000BCC  E1FB               	bnz	l3514
  3908  000BCE  2915               	incf	(mode_tree@dark_430+1)& (0+255),w,b
  3909  000BD0  A4D8               	btfss	status,2,c
  3910  000BD2  D7F8               	goto	l196
  3911                           
  3912                           ; BSR set to: 3
  3913                           
  3914                           ; BSR set to: 3
  3915  000BD4  4B30               	infsnz	mode_tree@i_428& (0+255),f,b
  3916  000BD6  2B31               	incf	(mode_tree@i_428+1)& (0+255),f,b
  3917                           
  3918                           ; BSR set to: 3
  3919  000BD8  0E02               	movlw	2
  3920  000BDA  272E               	addwf	mode_tree@show_427& (0+255),f,b
  3921  000BDC  0E00               	movlw	0
  3922  000BDE  232F               	addwfc	(mode_tree@show_427+1)& (0+255),f,b
  3923  000BE0  D7C0               	goto	l3502
  3924  000BE2                     u4530:
  3925  000BE2                     l3522:
  3926                           
  3927                           ; BSR set to: 3
  3928                           ;main2.c: 638: }
  3929                           ;main2.c: 639: delay = 10000;
  3930  000BE2  0E27               	movlw	39
  3931  000BE4  6F4D               	movwf	(mode_tree@delay+1)& (0+255),b
  3932  000BE6  0E10               	movlw	16
  3933  000BE8  6F4C               	movwf	mode_tree@delay& (0+255),b
  3934  000BEA                     l3524:
  3935                           
  3936                           ; BSR set to: 3
  3937  000BEA  074C               	decf	mode_tree@delay& (0+255),f,b
  3938  000BEC  A0D8               	btfss	status,0,c
  3939  000BEE  074D               	decf	(mode_tree@delay+1)& (0+255),f,b
  3940  000BF0  294C               	incf	mode_tree@delay& (0+255),w,b
  3941  000BF2  E1FB               	bnz	l3524
  3942  000BF4  294D               	incf	(mode_tree@delay+1)& (0+255),w,b
  3943  000BF6  A4D8               	btfss	status,2,c
  3944  000BF8  D7F8               	goto	l199
  3945  000BFA                     u4540:
  3946                           
  3947                           ; BSR set to: 3
  3948                           
  3949                           ; BSR set to: 3
  3950                           
  3951                           ; BSR set to: 3
  3952  000BFA  074A               	decf	mode_tree@count& (0+255),f,b
  3953  000BFC  A0D8               	btfss	status,0,c
  3954  000BFE  074B               	decf	(mode_tree@count+1)& (0+255),f,b
  3955  000C00  294A               	incf	mode_tree@count& (0+255),w,b
  3956  000C02  E1A7               	bnz	l3498
  3957  000C04  294B               	incf	(mode_tree@count+1)& (0+255),w,b
  3958  000C06  A4D8               	btfss	status,2,c
  3959  000C08  D7A4               	goto	l189
  3960                           
  3961                           ; BSR set to: 3
  3962                           ;main2.c: 641: }
  3963                           ;main2.c: 642: count = 40;
  3964                           
  3965                           ; BSR set to: 3
  3966  000C0A  0E00               	movlw	0
  3967  000C0C  6F4B               	movwf	(mode_tree@count+1)& (0+255),b
  3968  000C0E  0E28               	movlw	40
  3969  000C10  6F4A               	movwf	mode_tree@count& (0+255),b
  3970                           
  3971                           ;main2.c: 643: int interval = 0;
  3972  000C12  0E00               	movlw	0
  3973  000C14  6F49               	movwf	(mode_tree@interval+1)& (0+255),b
  3974  000C16  0E00               	movlw	0
  3975  000C18  6F48               	movwf	mode_tree@interval& (0+255),b
  3976                           
  3977                           ;main2.c: 644: while(count--) {
  3978  000C1A  D071               	goto	u4630
  3979  000C1C                     
  3980                           ; BSR set to: 3
  3981                           ;main2.c: 645: if(interval < 20)
  3982                           
  3983                           ; BSR set to: 3
  3984  000C1C  BF49               	btfsc	(mode_tree@interval+1)& (0+255),7,b
  3985  000C1E  D006               	goto	u4560
  3986  000C20  5149               	movf	(mode_tree@interval+1)& (0+255),w,b
  3987  000C22  E106               	bnz	l3534
  3988  000C24  0E14               	movlw	20
  3989  000C26  5D48               	subwf	mode_tree@interval& (0+255),w,b
  3990  000C28  B0D8               	btfsc	status,0,c
  3991  000C2A  D002               	goto	l204
  3992  000C2C                     u4560:
  3993                           
  3994                           ; BSR set to: 3
  3995                           ;main2.c: 646: ++interval;
  3996  000C2C  4B48               	infsnz	mode_tree@interval& (0+255),f,b
  3997  000C2E  2B49               	incf	(mode_tree@interval+1)& (0+255),f,b
  3998  000C30                     l204:
  3999  000C30                     l3534:
  4000                           
  4001                           ; BSR set to: 3
  4002                           ;main2.c: 647: for(int tree_i = 0; tree_i < 11; ++tree_i) {
  4003  000C30  0E00               	movlw	0
  4004  000C32  6F33               	movwf	(mode_tree@tree_i+1)& (0+255),b
  4005  000C34  0E00               	movlw	0
  4006  000C36  6F32               	movwf	mode_tree@tree_i& (0+255),b
  4007                           
  4008                           ; BSR set to: 3
  4009  000C38  BF33               	btfsc	(mode_tree@tree_i+1)& (0+255),7,b
  4010  000C3A  D006               	goto	l205
  4011  000C3C  5133               	movf	(mode_tree@tree_i+1)& (0+255),w,b
  4012  000C3E  E15F               	bnz	l202
  4013  000C40  0E0B               	movlw	11
  4014  000C42  5D32               	subwf	mode_tree@tree_i& (0+255),w,b
  4015  000C44  B0D8               	btfsc	status,0,c
  4016  000C46  D05B               	goto	u4630
  4017  000C48                     l205:
  4018                           
  4019                           ; BSR set to: 3
  4020                           ;main2.c: 648: int* show = (int*)tree;
  4021                           
  4022                           ; BSR set to: 3
  4023  000C48  0EB7               	movlw	low _tree
  4024  000C4A  6F34               	movwf	mode_tree@show_433& (0+255),b
  4025  000C4C  0E00               	movlw	high _tree
  4026  000C4E  6F35               	movwf	(mode_tree@show_433+1)& (0+255),b
  4027                           
  4028                           ; BSR set to: 3
  4029                           ;main2.c: 649: for(int i = 0; i < 21; ++i, ++show) {
  4030  000C50  0E00               	movlw	0
  4031  000C52  6F37               	movwf	(mode_tree@i_434+1)& (0+255),b
  4032  000C54  0E00               	movlw	0
  4033  000C56  6F36               	movwf	mode_tree@i_434& (0+255),b
  4034  000C58                     l3544:
  4035                           
  4036                           ; BSR set to: 3
  4037  000C58  BF37               	btfsc	(mode_tree@i_434+1)& (0+255),7,b
  4038  000C5A  D006               	goto	l207
  4039  000C5C  5137               	movf	(mode_tree@i_434+1)& (0+255),w,b
  4040  000C5E  E13C               	bnz	l3566
  4041  000C60  0E15               	movlw	21
  4042  000C62  5D36               	subwf	mode_tree@i_434& (0+255),w,b
  4043  000C64  B0D8               	btfsc	status,0,c
  4044  000C66  D038               	goto	u4610
  4045  000C68                     l207:
  4046                           
  4047                           ; BSR set to: 3
  4048                           ;main2.c: 650: LATA = *show;
  4049                           
  4050                           ; BSR set to: 3
  4051  000C68  C334  FFD9         	movff	mode_tree@show_433,fsr2l
  4052  000C6C  C335  FFDA         	movff	mode_tree@show_433+1,fsr2h
  4053  000C70  50DF               	movf	indf2,w,c
  4054  000C72  6E89               	movwf	3977,c	;volatile
  4055                           
  4056                           ;main2.c: 651: LATD = *show >> 8;
  4057  000C74  C334  FFD9         	movff	mode_tree@show_433,fsr2l
  4058  000C78  C335  FFDA         	movff	mode_tree@show_433+1,fsr2h
  4059  000C7C  CFDE F013          	movff	postinc2,??_mode_tree
  4060  000C80  CFDD F014          	movff	postdec2,??_mode_tree+1
  4061  000C84  C014  F013         	movff	??_mode_tree+1,??_mode_tree
  4062  000C88  6A14               	clrf	??_mode_tree+1,c
  4063  000C8A  BE13               	btfsc	??_mode_tree,7,c
  4064  000C8C  6814               	setf	??_mode_tree+1,c
  4065  000C8E  5013               	movf	??_mode_tree,w,c
  4066  000C90  6E8C               	movwf	3980,c	;volatile
  4067                           
  4068                           ; BSR set to: 3
  4069                           ;main2.c: 652: int bright = interval;
  4070  000C92  C348  F316         	movff	mode_tree@interval,mode_tree@bright_435
  4071  000C96  C349  F317         	movff	mode_tree@interval+1,mode_tree@bright_435+1
  4072  000C9A                     l3552:
  4073                           
  4074                           ; BSR set to: 3
  4075  000C9A  0716               	decf	mode_tree@bright_435& (0+255),f,b
  4076  000C9C  A0D8               	btfss	status,0,c
  4077  000C9E  0717               	decf	(mode_tree@bright_435+1)& (0+255),f,b
  4078  000CA0  2916               	incf	mode_tree@bright_435& (0+255),w,b
  4079  000CA2  E1FB               	bnz	l3552
  4080  000CA4  2917               	incf	(mode_tree@bright_435+1)& (0+255),w,b
  4081  000CA6  A4D8               	btfss	status,2,c
  4082  000CA8  D7F8               	goto	l210
  4083                           
  4084                           ; BSR set to: 3
  4085                           ;main2.c: 654: LATA = LATD = 0;
  4086                           
  4087                           ; BSR set to: 3
  4088  000CAA  0E00               	movlw	0
  4089  000CAC  6E8C               	movwf	3980,c	;volatile
  4090  000CAE  CF8C FF89          	movff	3980,3977	;volatile
  4091                           
  4092                           ; BSR set to: 3
  4093                           ;main2.c: 655: int dark = interval;
  4094  000CB2  C348  F318         	movff	mode_tree@interval,mode_tree@dark_436
  4095  000CB6  C349  F319         	movff	mode_tree@interval+1,mode_tree@dark_436+1
  4096  000CBA                     l3558:
  4097                           
  4098                           ; BSR set to: 3
  4099  000CBA  0718               	decf	mode_tree@dark_436& (0+255),f,b
  4100  000CBC  A0D8               	btfss	status,0,c
  4101  000CBE  0719               	decf	(mode_tree@dark_436+1)& (0+255),f,b
  4102  000CC0  2918               	incf	mode_tree@dark_436& (0+255),w,b
  4103  000CC2  E1FB               	bnz	l3558
  4104  000CC4  2919               	incf	(mode_tree@dark_436+1)& (0+255),w,b
  4105  000CC6  A4D8               	btfss	status,2,c
  4106  000CC8  D7F8               	goto	l213
  4107                           
  4108                           ; BSR set to: 3
  4109                           
  4110                           ; BSR set to: 3
  4111  000CCA  4B36               	infsnz	mode_tree@i_434& (0+255),f,b
  4112  000CCC  2B37               	incf	(mode_tree@i_434+1)& (0+255),f,b
  4113                           
  4114                           ; BSR set to: 3
  4115  000CCE  0E02               	movlw	2
  4116  000CD0  2734               	addwf	mode_tree@show_433& (0+255),f,b
  4117  000CD2  0E00               	movlw	0
  4118  000CD4  2335               	addwfc	(mode_tree@show_433+1)& (0+255),f,b
  4119  000CD6  D7C0               	goto	l3544
  4120  000CD8                     u4610:
  4121  000CD8                     l3566:
  4122                           
  4123                           ; BSR set to: 3
  4124                           ;main2.c: 657: }
  4125                           ;main2.c: 658: delay = 35;
  4126  000CD8  0E00               	movlw	0
  4127  000CDA  6F4D               	movwf	(mode_tree@delay+1)& (0+255),b
  4128  000CDC  0E23               	movlw	35
  4129  000CDE  6F4C               	movwf	mode_tree@delay& (0+255),b
  4130  000CE0                     l3568:
  4131                           
  4132                           ; BSR set to: 3
  4133  000CE0  074C               	decf	mode_tree@delay& (0+255),f,b
  4134  000CE2  A0D8               	btfss	status,0,c
  4135  000CE4  074D               	decf	(mode_tree@delay+1)& (0+255),f,b
  4136  000CE6  294C               	incf	mode_tree@delay& (0+255),w,b
  4137  000CE8  E1FB               	bnz	l3568
  4138  000CEA  294D               	incf	(mode_tree@delay+1)& (0+255),w,b
  4139  000CEC  A4D8               	btfss	status,2,c
  4140  000CEE  D7F8               	goto	l216
  4141                           
  4142                           ; BSR set to: 3
  4143                           
  4144                           ; BSR set to: 3
  4145  000CF0  4B32               	infsnz	mode_tree@tree_i& (0+255),f,b
  4146  000CF2  2B33               	incf	(mode_tree@tree_i+1)& (0+255),f,b
  4147                           
  4148                           ; BSR set to: 3
  4149  000CF4  BF33               	btfsc	(mode_tree@tree_i+1)& (0+255),7,b
  4150  000CF6  D7A8               	goto	l205
  4151  000CF8  5133               	movf	(mode_tree@tree_i+1)& (0+255),w,b
  4152  000CFA  E101               	bnz	l3574
  4153  000CFC  D7A1               	goto	L8
  4154  000CFE                     u4630:
  4155  000CFE                     l202:
  4156  000CFE                     l3574:
  4157                           
  4158                           ; BSR set to: 3
  4159  000CFE  074A               	decf	mode_tree@count& (0+255),f,b
  4160  000D00  A0D8               	btfss	status,0,c
  4161  000D02  074B               	decf	(mode_tree@count+1)& (0+255),f,b
  4162  000D04  294A               	incf	mode_tree@count& (0+255),w,b
  4163  000D06  E18A               	bnz	l203
  4164  000D08  294B               	incf	(mode_tree@count+1)& (0+255),w,b
  4165  000D0A  B4D8               	btfsc	status,2,c
  4166  000D0C  0012               	return	
  4167  000D0E  D786               	goto	l203
  4168  000D10                     __end_of_mode_tree:
  4169                           	opt stack 0
  4170                           tblptru	equ	0xFF8
  4171                           tblptrh	equ	0xFF7
  4172                           tblptrl	equ	0xFF6
  4173                           tablat	equ	0xFF5
  4174                           intcon	equ	0xFF2
  4175                           postinc0	equ	0xFEE
  4176                           wreg	equ	0xFE8
  4177                           postdec1	equ	0xFE5
  4178                           plusw1	equ	0xFE3
  4179                           fsr1l	equ	0xFE1
  4180                           indf2	equ	0xFDF
  4181                           postinc2	equ	0xFDE
  4182                           postdec2	equ	0xFDD
  4183                           plusw2	equ	0xFDB
  4184                           fsr2h	equ	0xFDA
  4185                           fsr2l	equ	0xFD9
  4186                           status	equ	0xFD8
  4187                           
  4188 ;; *************** function _mode_snow *****************
  4189 ;; Defined at:
  4190 ;;		line 465 in file "main2.c"
  4191 ;; Parameters:    Size  Location     Type
  4192 ;;		None
  4193 ;; Auto vars:     Size  Location     Type
  4194 ;;  i               2   38[COMRAM] int 
  4195 ;;  i               2   36[COMRAM] int 
  4196 ;;  i               2   40[COMRAM] int 
  4197 ;;  delay           2   44[COMRAM] int 
  4198 ;;  show            2   42[COMRAM] PTR int 
  4199 ;;		 -> elk(72), snow_car(86), walker(108), 
  4200 ;;  elk_pic_i       2   34[COMRAM] int 
  4201 ;;  walker_pic_i    2   32[COMRAM] int 
  4202 ;;  count_elk       2   30[COMRAM] int 
  4203 ;;  count_walker    2   28[COMRAM] int 
  4204 ;;  display_cycl    2   26[COMRAM] int 
  4205 ;; Return value:  Size  Location     Type
  4206 ;;                  1    wreg      void 
  4207 ;; Registers used:
  4208 ;;		wreg, fsr2l, fsr2h, status,2, status,0, prodl, prodh, cstack
  4209 ;; Tracked objects:
  4210 ;;		On entry : 0/0
  4211 ;;		On exit  : 0/0
  4212 ;;		Unchanged: 0/0
  4213 ;; Data sizes:     COMRAM   BANK0   BANK1   BANK2   BANK3   BANK4   BANK5
  4214 ;;      Params:         0       0       0       0       0       0       0
  4215 ;;      Locals:        20       0       0       0       0       0       0
  4216 ;;      Temps:          2       0       0       0       0       0       0
  4217 ;;      Totals:        22       0       0       0       0       0       0
  4218 ;;Total ram usage:       22 bytes
  4219 ;; Hardware stack levels used:    1
  4220 ;; Hardware stack levels required when called:    3
  4221 ;; This function calls:
  4222 ;;		___wmul
  4223 ;; This function is called by:
  4224 ;;		_main
  4225 ;; This function uses a non-reentrant model
  4226 ;;
  4227                           
  4228                           	psect	text3
  4229  001626                     __ptext3:
  4230                           	opt stack 0
  4231  001626                     _mode_snow:
  4232                           	opt stack 27
  4233                           
  4234                           ;main2.c: 467: int display_cycle;
  4235                           ;main2.c: 468: int delay;
  4236                           ;main2.c: 469: int* show;
  4237                           ;main2.c: 470: int count_walker = 0;
  4238                           
  4239                           ; BSR set to: 3
  4240                           ;incstack = 0
  4241  001626  0E00               	movlw	0
  4242  001628  6E1E               	movwf	mode_snow@count_walker+1,c
  4243  00162A  0E00               	movlw	0
  4244  00162C  6E1D               	movwf	mode_snow@count_walker,c
  4245                           
  4246                           ;main2.c: 471: int count_elk = 0;
  4247  00162E  0E00               	movlw	0
  4248  001630  6E20               	movwf	mode_snow@count_elk+1,c
  4249  001632  0E00               	movlw	0
  4250  001634  6E1F               	movwf	mode_snow@count_elk,c
  4251                           
  4252                           ;main2.c: 472: int walker_pic_i = 0;
  4253  001636  0E00               	movlw	0
  4254  001638  6E22               	movwf	mode_snow@walker_pic_i+1,c
  4255  00163A  0E00               	movlw	0
  4256  00163C  6E21               	movwf	mode_snow@walker_pic_i,c
  4257                           
  4258                           ;main2.c: 473: int elk_pic_i = 0;
  4259  00163E  0E00               	movlw	0
  4260  001640  6E24               	movwf	mode_snow@elk_pic_i+1,c
  4261  001642  0E00               	movlw	0
  4262  001644  6E23               	movwf	mode_snow@elk_pic_i,c
  4263                           
  4264                           ;main2.c: 475: display_cycle = 500;
  4265  001646  0E01               	movlw	1
  4266  001648  6E1C               	movwf	mode_snow@display_cycle+1,c
  4267  00164A  0EF4               	movlw	244
  4268  00164C  6E1B               	movwf	mode_snow@display_cycle,c
  4269                           
  4270                           ;main2.c: 476: while(display_cycle--) {
  4271  00164E  D138               	goto	u4180
  4272  001650                     
  4273                           ;main2.c: 478: show = (int*)walker[walker_pic_i] + 9 - 1;
  4274  001650  C021  F013         	movff	mode_snow@walker_pic_i,___wmul@multiplier
  4275  001654  C022  F014         	movff	mode_snow@walker_pic_i+1,___wmul@multiplier+1
  4276  001658  0E00               	movlw	0
  4277  00165A  6E16               	movwf	___wmul@multiplicand+1,c
  4278  00165C  0E12               	movlw	18
  4279  00165E  6E15               	movwf	___wmul@multiplicand,c
  4280  001660  EC3F  F00F         	call	___wmul	;wreg free
  4281  001664  0E10               	movlw	16
  4282  001666  2613               	addwf	?___wmul,f,c
  4283  001668  0E00               	movlw	0
  4284  00166A  2214               	addwfc	?___wmul+1,f,c
  4285  00166C  0E20               	movlw	low _walker
  4286  00166E  2413               	addwf	?___wmul,w,c
  4287  001670  6E2B               	movwf	mode_snow@show,c
  4288  001672  0E01               	movlw	high _walker
  4289  001674  2014               	addwfc	?___wmul+1,w,c
  4290  001676  6E2C               	movwf	mode_snow@show+1,c
  4291                           
  4292                           ;main2.c: 479: for(int i = 0; i < 9; ++i, --show) {
  4293  001678  0E00               	movlw	0
  4294  00167A  6E2A               	movwf	mode_snow@i+1,c
  4295  00167C  0E00               	movlw	0
  4296  00167E  6E29               	movwf	mode_snow@i,c
  4297  001680                     l3236:
  4298  001680  BE2A               	btfsc	mode_snow@i+1,7,c
  4299  001682  D006               	goto	l83
  4300  001684  502A               	movf	mode_snow@i+1,w,c
  4301  001686  E146               	bnz	l3264
  4302  001688  0E09               	movlw	9
  4303  00168A  5C29               	subwf	mode_snow@i,w,c
  4304  00168C  B0D8               	btfsc	status,0,c
  4305  00168E  D042               	goto	u4050
  4306  001690                     l83:
  4307                           
  4308                           ;main2.c: 480: LATA = *show;
  4309  001690  C02B  FFD9         	movff	mode_snow@show,fsr2l
  4310  001694  C02C  FFDA         	movff	mode_snow@show+1,fsr2h
  4311  001698  50DF               	movf	indf2,w,c
  4312  00169A  6E89               	movwf	3977,c	;volatile
  4313                           
  4314                           ;main2.c: 481: LATD = (*show >> 8) | 0b10;
  4315  00169C  C02B  FFD9         	movff	mode_snow@show,fsr2l
  4316  0016A0  C02C  FFDA         	movff	mode_snow@show+1,fsr2h
  4317  0016A4  CFDE F019          	movff	postinc2,??_mode_snow
  4318  0016A8  CFDD F01A          	movff	postdec2,??_mode_snow+1
  4319  0016AC  C01A  F019         	movff	??_mode_snow+1,??_mode_snow
  4320  0016B0  6A1A               	clrf	??_mode_snow+1,c
  4321  0016B2  BE19               	btfsc	??_mode_snow,7,c
  4322  0016B4  681A               	setf	??_mode_snow+1,c
  4323  0016B6  5019               	movf	??_mode_snow,w,c
  4324  0016B8  0902               	iorlw	2
  4325  0016BA  6E8C               	movwf	3980,c	;volatile
  4326                           
  4327                           ;main2.c: 482: if(i&0b1100)
  4328  0016BC  0E0C               	movlw	12
  4329  0016BE  1429               	andwf	mode_snow@i,w,c
  4330  0016C0  6E19               	movwf	??_mode_snow& (0+255),c
  4331  0016C2  0E00               	movlw	0
  4332  0016C4  142A               	andwf	mode_snow@i+1,w,c
  4333  0016C6  6E1A               	movwf	(??_mode_snow+1)& (0+255),c
  4334  0016C8  5019               	movf	??_mode_snow,w,c
  4335  0016CA  101A               	iorwf	??_mode_snow+1,w,c
  4336  0016CC  A4D8               	btfss	status,2,c
  4337                           
  4338                           ;main2.c: 483: LATAbits.LATA4 = 1;
  4339  0016CE  8889               	bsf	3977,4,c	;volatile
  4340                           
  4341                           ;main2.c: 485: delay = 60;
  4342  0016D0  0E00               	movlw	0
  4343  0016D2  6E2E               	movwf	mode_snow@delay+1,c
  4344  0016D4  0E3C               	movlw	60
  4345  0016D6  6E2D               	movwf	mode_snow@delay,c
  4346  0016D8                     l3250:
  4347  0016D8  062D               	decf	mode_snow@delay,f,c
  4348  0016DA  A0D8               	btfss	status,0,c
  4349  0016DC  062E               	decf	mode_snow@delay+1,f,c
  4350  0016DE  282D               	incf	mode_snow@delay,w,c
  4351  0016E0  E1FB               	bnz	l3250
  4352  0016E2  282E               	incf	mode_snow@delay+1,w,c
  4353  0016E4  A4D8               	btfss	status,2,c
  4354  0016E6  D7F8               	goto	l87
  4355                           
  4356                           ;main2.c: 487: LATA = 0;
  4357  0016E8  0E00               	movlw	0
  4358  0016EA  6E89               	movwf	3977,c	;volatile
  4359                           
  4360                           ;main2.c: 488: LATDbits.LATD0 = 0;
  4361  0016EC  908C               	bcf	3980,0,c	;volatile
  4362                           
  4363                           ;main2.c: 489: delay = 60;
  4364  0016EE  0E00               	movlw	0
  4365  0016F0  6E2E               	movwf	mode_snow@delay+1,c
  4366  0016F2  0E3C               	movlw	60
  4367  0016F4  6E2D               	movwf	mode_snow@delay,c
  4368  0016F6                     l3256:
  4369  0016F6  062D               	decf	mode_snow@delay,f,c
  4370  0016F8  A0D8               	btfss	status,0,c
  4371  0016FA  062E               	decf	mode_snow@delay+1,f,c
  4372  0016FC  282D               	incf	mode_snow@delay,w,c
  4373  0016FE  E1FB               	bnz	l3256
  4374  001700  282E               	incf	mode_snow@delay+1,w,c
  4375  001702  A4D8               	btfss	status,2,c
  4376  001704  D7F8               	goto	l90
  4377  001706  4A29               	infsnz	mode_snow@i,f,c
  4378  001708  2A2A               	incf	mode_snow@i+1,f,c
  4379  00170A  0E02               	movlw	2
  4380  00170C  5E2B               	subwf	mode_snow@show,f,c
  4381  00170E  0E00               	movlw	0
  4382  001710  5A2C               	subwfb	mode_snow@show+1,f,c
  4383  001712  D7B6               	goto	l3236
  4384  001714                     u4050:
  4385  001714                     l3264:
  4386                           
  4387                           ;main2.c: 491: }
  4388                           ;main2.c: 492: if(!(++count_walker & 0b11))
  4389  001714  0E03               	movlw	3
  4390  001716  4A1D               	infsnz	mode_snow@count_walker,f,c
  4391  001718  2A1E               	incf	mode_snow@count_walker+1,f,c
  4392  00171A  141D               	andwf	mode_snow@count_walker,w,c
  4393  00171C  6E19               	movwf	??_mode_snow& (0+255),c
  4394  00171E  0E00               	movlw	0
  4395  001720  141E               	andwf	mode_snow@count_walker+1,w,c
  4396  001722  6E1A               	movwf	(??_mode_snow+1)& (0+255),c
  4397  001724  5019               	movf	??_mode_snow,w,c
  4398  001726  101A               	iorwf	??_mode_snow+1,w,c
  4399  001728  A4D8               	btfss	status,2,c
  4400  00172A  D00B               	goto	l93
  4401                           
  4402                           ;main2.c: 493: if(++walker_pic_i == 6)
  4403  00172C  4A21               	infsnz	mode_snow@walker_pic_i,f,c
  4404  00172E  2A22               	incf	mode_snow@walker_pic_i+1,f,c
  4405  001730  0E06               	movlw	6
  4406  001732  1821               	xorwf	mode_snow@walker_pic_i,w,c
  4407  001734  1022               	iorwf	mode_snow@walker_pic_i+1,w,c
  4408  001736  A4D8               	btfss	status,2,c
  4409  001738  D004               	goto	l93
  4410                           
  4411                           ;main2.c: 494: walker_pic_i = 0;
  4412  00173A  0E00               	movlw	0
  4413  00173C  6E22               	movwf	mode_snow@walker_pic_i+1,c
  4414  00173E  0E00               	movlw	0
  4415  001740  6E21               	movwf	mode_snow@walker_pic_i,c
  4416  001742                     l93:
  4417                           
  4418                           ;main2.c: 497: show = (int*)snow_car;
  4419  001742  0E00               	movlw	low _snow_car
  4420  001744  6E2B               	movwf	mode_snow@show,c
  4421  001746  0E02               	movlw	high _snow_car
  4422  001748  6E2C               	movwf	mode_snow@show+1,c
  4423                           
  4424                           ;main2.c: 498: for(int i = 0; i < 43; ++i, ++show) {
  4425  00174A  0E00               	movlw	0
  4426  00174C  6E26               	movwf	mode_snow@i_399+1,c
  4427  00174E  0E00               	movlw	0
  4428  001750  6E25               	movwf	mode_snow@i_399,c
  4429  001752  BE26               	btfsc	mode_snow@i_399+1,7,c
  4430  001754  D006               	goto	l94
  4431  001756  5026               	movf	mode_snow@i_399+1,w,c
  4432  001758  E13C               	bnz	l3296
  4433  00175A  0E2B               	movlw	43
  4434  00175C  5C25               	subwf	mode_snow@i_399,w,c
  4435  00175E  B0D8               	btfsc	status,0,c
  4436  001760  D038               	goto	u4110
  4437  001762                     l94:
  4438                           
  4439                           ;main2.c: 499: LATA = *show;
  4440  001762  C02B  FFD9         	movff	mode_snow@show,fsr2l
  4441  001766  C02C  FFDA         	movff	mode_snow@show+1,fsr2h
  4442  00176A  50DF               	movf	indf2,w,c
  4443  00176C  6E89               	movwf	3977,c	;volatile
  4444                           
  4445                           ;main2.c: 500: LATD = (*show >> 8) | 0b10;
  4446  00176E  C02B  FFD9         	movff	mode_snow@show,fsr2l
  4447  001772  C02C  FFDA         	movff	mode_snow@show+1,fsr2h
  4448  001776  CFDE F019          	movff	postinc2,??_mode_snow
  4449  00177A  CFDD F01A          	movff	postdec2,??_mode_snow+1
  4450  00177E  C01A  F019         	movff	??_mode_snow+1,??_mode_snow
  4451  001782  6A1A               	clrf	??_mode_snow+1,c
  4452  001784  BE19               	btfsc	??_mode_snow,7,c
  4453  001786  681A               	setf	??_mode_snow+1,c
  4454  001788  5019               	movf	??_mode_snow,w,c
  4455  00178A  0902               	iorlw	2
  4456  00178C  6E8C               	movwf	3980,c	;volatile
  4457                           
  4458                           ;main2.c: 501: delay = 60;
  4459  00178E  0E00               	movlw	0
  4460  001790  6E2E               	movwf	mode_snow@delay+1,c
  4461  001792  0E3C               	movlw	60
  4462  001794  6E2D               	movwf	mode_snow@delay,c
  4463  001796                     l3282:
  4464  001796  062D               	decf	mode_snow@delay,f,c
  4465  001798  A0D8               	btfss	status,0,c
  4466  00179A  062E               	decf	mode_snow@delay+1,f,c
  4467  00179C  282D               	incf	mode_snow@delay,w,c
  4468  00179E  E1FB               	bnz	l3282
  4469  0017A0  282E               	incf	mode_snow@delay+1,w,c
  4470  0017A2  A4D8               	btfss	status,2,c
  4471  0017A4  D7F8               	goto	l97
  4472                           
  4473                           ;main2.c: 503: LATA = 0;
  4474  0017A6  0E00               	movlw	0
  4475  0017A8  6E89               	movwf	3977,c	;volatile
  4476                           
  4477                           ;main2.c: 504: LATDbits.LATD0 = 0;
  4478  0017AA  908C               	bcf	3980,0,c	;volatile
  4479                           
  4480                           ;main2.c: 505: delay = 60;
  4481  0017AC  0E00               	movlw	0
  4482  0017AE  6E2E               	movwf	mode_snow@delay+1,c
  4483  0017B0  0E3C               	movlw	60
  4484  0017B2  6E2D               	movwf	mode_snow@delay,c
  4485  0017B4                     l3288:
  4486  0017B4  062D               	decf	mode_snow@delay,f,c
  4487  0017B6  A0D8               	btfss	status,0,c
  4488  0017B8  062E               	decf	mode_snow@delay+1,f,c
  4489  0017BA  282D               	incf	mode_snow@delay,w,c
  4490  0017BC  E1FB               	bnz	l3288
  4491  0017BE  282E               	incf	mode_snow@delay+1,w,c
  4492  0017C0  A4D8               	btfss	status,2,c
  4493  0017C2  D7F8               	goto	l100
  4494  0017C4  4A25               	infsnz	mode_snow@i_399,f,c
  4495  0017C6  2A26               	incf	mode_snow@i_399+1,f,c
  4496  0017C8  0E02               	movlw	2
  4497  0017CA  262B               	addwf	mode_snow@show,f,c
  4498  0017CC  0E00               	movlw	0
  4499  0017CE  222C               	addwfc	mode_snow@show+1,f,c
  4500  0017D0  D7C0               	goto	L9
  4501  0017D2                     u4110:
  4502  0017D2                     l3296:
  4503                           
  4504                           ;main2.c: 507: }
  4505                           ;main2.c: 510: show = (int*)elk[elk_pic_i];
  4506  0017D2  C023  F013         	movff	mode_snow@elk_pic_i,___wmul@multiplier
  4507  0017D6  C024  F014         	movff	mode_snow@elk_pic_i+1,___wmul@multiplier+1
  4508  0017DA  0E00               	movlw	0
  4509  0017DC  6E16               	movwf	___wmul@multiplicand+1,c
  4510  0017DE  0E18               	movlw	24
  4511  0017E0  6E15               	movwf	___wmul@multiplicand,c
  4512  0017E2  EC3F  F00F         	call	___wmul	;wreg free
  4513  0017E6  0EA6               	movlw	low _elk
  4514  0017E8  2413               	addwf	?___wmul,w,c
  4515  0017EA  6E2B               	movwf	mode_snow@show,c
  4516  0017EC  0E02               	movlw	high _elk
  4517  0017EE  2014               	addwfc	?___wmul+1,w,c
  4518  0017F0  6E2C               	movwf	mode_snow@show+1,c
  4519                           
  4520                           ;main2.c: 511: for(int i = 0; i < 12; ++i, ++show) {
  4521  0017F2  0E00               	movlw	0
  4522  0017F4  6E28               	movwf	mode_snow@i_400+1,c
  4523  0017F6  0E00               	movlw	0
  4524  0017F8  6E27               	movwf	mode_snow@i_400,c
  4525  0017FA                     l3300:
  4526  0017FA  BE28               	btfsc	mode_snow@i_400+1,7,c
  4527  0017FC  D006               	goto	l102
  4528  0017FE  5028               	movf	mode_snow@i_400+1,w,c
  4529  001800  E13C               	bnz	l3324
  4530  001802  0E0C               	movlw	12
  4531  001804  5C27               	subwf	mode_snow@i_400,w,c
  4532  001806  B0D8               	btfsc	status,0,c
  4533  001808  D038               	goto	u4150
  4534  00180A                     l102:
  4535                           
  4536                           ;main2.c: 512: LATA = *show;
  4537  00180A  C02B  FFD9         	movff	mode_snow@show,fsr2l
  4538  00180E  C02C  FFDA         	movff	mode_snow@show+1,fsr2h
  4539  001812  50DF               	movf	indf2,w,c
  4540  001814  6E89               	movwf	3977,c	;volatile
  4541                           
  4542                           ;main2.c: 513: LATD = (*show >> 8) | 0b10;
  4543  001816  C02B  FFD9         	movff	mode_snow@show,fsr2l
  4544  00181A  C02C  FFDA         	movff	mode_snow@show+1,fsr2h
  4545  00181E  CFDE F019          	movff	postinc2,??_mode_snow
  4546  001822  CFDD F01A          	movff	postdec2,??_mode_snow+1
  4547  001826  C01A  F019         	movff	??_mode_snow+1,??_mode_snow
  4548  00182A  6A1A               	clrf	??_mode_snow+1,c
  4549  00182C  BE19               	btfsc	??_mode_snow,7,c
  4550  00182E  681A               	setf	??_mode_snow+1,c
  4551  001830  5019               	movf	??_mode_snow,w,c
  4552  001832  0902               	iorlw	2
  4553  001834  6E8C               	movwf	3980,c	;volatile
  4554                           
  4555                           ;main2.c: 515: delay = 60;
  4556  001836  0E00               	movlw	0
  4557  001838  6E2E               	movwf	mode_snow@delay+1,c
  4558  00183A  0E3C               	movlw	60
  4559  00183C  6E2D               	movwf	mode_snow@delay,c
  4560  00183E                     l3310:
  4561  00183E  062D               	decf	mode_snow@delay,f,c
  4562  001840  A0D8               	btfss	status,0,c
  4563  001842  062E               	decf	mode_snow@delay+1,f,c
  4564  001844  282D               	incf	mode_snow@delay,w,c
  4565  001846  E1FB               	bnz	l3310
  4566  001848  282E               	incf	mode_snow@delay+1,w,c
  4567  00184A  A4D8               	btfss	status,2,c
  4568  00184C  D7F8               	goto	l105
  4569                           
  4570                           ;main2.c: 517: LATA = 0;
  4571  00184E  0E00               	movlw	0
  4572  001850  6E89               	movwf	3977,c	;volatile
  4573                           
  4574                           ;main2.c: 518: LATDbits.LATD0 = 0;
  4575  001852  908C               	bcf	3980,0,c	;volatile
  4576                           
  4577                           ;main2.c: 519: delay = 60;
  4578  001854  0E00               	movlw	0
  4579  001856  6E2E               	movwf	mode_snow@delay+1,c
  4580  001858  0E3C               	movlw	60
  4581  00185A  6E2D               	movwf	mode_snow@delay,c
  4582  00185C                     l3316:
  4583  00185C  062D               	decf	mode_snow@delay,f,c
  4584  00185E  A0D8               	btfss	status,0,c
  4585  001860  062E               	decf	mode_snow@delay+1,f,c
  4586  001862  282D               	incf	mode_snow@delay,w,c
  4587  001864  E1FB               	bnz	l3316
  4588  001866  282E               	incf	mode_snow@delay+1,w,c
  4589  001868  A4D8               	btfss	status,2,c
  4590  00186A  D7F8               	goto	l108
  4591  00186C  4A27               	infsnz	mode_snow@i_400,f,c
  4592  00186E  2A28               	incf	mode_snow@i_400+1,f,c
  4593  001870  0E02               	movlw	2
  4594  001872  262B               	addwf	mode_snow@show,f,c
  4595  001874  0E00               	movlw	0
  4596  001876  222C               	addwfc	mode_snow@show+1,f,c
  4597  001878  D7C0               	goto	l3300
  4598  00187A                     u4150:
  4599  00187A                     l3324:
  4600                           
  4601                           ;main2.c: 521: }
  4602                           ;main2.c: 522: if(!(++count_elk & 0b11))
  4603  00187A  0E03               	movlw	3
  4604  00187C  4A1F               	infsnz	mode_snow@count_elk,f,c
  4605  00187E  2A20               	incf	mode_snow@count_elk+1,f,c
  4606  001880  141F               	andwf	mode_snow@count_elk,w,c
  4607  001882  6E19               	movwf	??_mode_snow& (0+255),c
  4608  001884  0E00               	movlw	0
  4609  001886  1420               	andwf	mode_snow@count_elk+1,w,c
  4610  001888  6E1A               	movwf	(??_mode_snow+1)& (0+255),c
  4611  00188A  5019               	movf	??_mode_snow,w,c
  4612  00188C  101A               	iorwf	??_mode_snow+1,w,c
  4613  00188E  A4D8               	btfss	status,2,c
  4614  001890  D00B               	goto	l111
  4615                           
  4616                           ;main2.c: 523: if(++elk_pic_i == 3)
  4617  001892  4A23               	infsnz	mode_snow@elk_pic_i,f,c
  4618  001894  2A24               	incf	mode_snow@elk_pic_i+1,f,c
  4619  001896  0E03               	movlw	3
  4620  001898  1823               	xorwf	mode_snow@elk_pic_i,w,c
  4621  00189A  1024               	iorwf	mode_snow@elk_pic_i+1,w,c
  4622  00189C  A4D8               	btfss	status,2,c
  4623  00189E  D004               	goto	l111
  4624                           
  4625                           ;main2.c: 524: elk_pic_i = 0;
  4626  0018A0  0E00               	movlw	0
  4627  0018A2  6E24               	movwf	mode_snow@elk_pic_i+1,c
  4628  0018A4  0E00               	movlw	0
  4629  0018A6  6E23               	movwf	mode_snow@elk_pic_i,c
  4630  0018A8                     l111:
  4631                           
  4632                           ;main2.c: 526: delay = 3820;
  4633  0018A8  0E0E               	movlw	14
  4634  0018AA  6E2E               	movwf	mode_snow@delay+1,c
  4635  0018AC  0EEC               	movlw	236
  4636  0018AE  6E2D               	movwf	mode_snow@delay,c
  4637  0018B0                     l3330:
  4638  0018B0  062D               	decf	mode_snow@delay,f,c
  4639  0018B2  A0D8               	btfss	status,0,c
  4640  0018B4  062E               	decf	mode_snow@delay+1,f,c
  4641  0018B6  282D               	incf	mode_snow@delay,w,c
  4642  0018B8  E1FB               	bnz	l3330
  4643  0018BA  282E               	incf	mode_snow@delay+1,w,c
  4644  0018BC  A4D8               	btfss	status,2,c
  4645  0018BE  D7F8               	goto	l113
  4646  0018C0                     u4180:
  4647  0018C0  061B               	decf	mode_snow@display_cycle,f,c
  4648  0018C2  A0D8               	btfss	status,0,c
  4649  0018C4  061C               	decf	mode_snow@display_cycle+1,f,c
  4650  0018C6  281B               	incf	mode_snow@display_cycle,w,c
  4651  0018C8  E103               	bnz	u4191
  4652  0018CA  281C               	incf	mode_snow@display_cycle+1,w,c
  4653  0018CC  B4D8               	btfsc	status,2,c
  4654  0018CE  0012               	return	
  4655  0018D0                     u4191:
  4656  0018D0  D6BF               	goto	l82
  4657  0018D2                     __end_of_mode_snow:
  4658                           	opt stack 0
  4659                           tblptru	equ	0xFF8
  4660                           tblptrh	equ	0xFF7
  4661                           tblptrl	equ	0xFF6
  4662                           tablat	equ	0xFF5
  4663                           intcon	equ	0xFF2
  4664                           postinc0	equ	0xFEE
  4665                           wreg	equ	0xFE8
  4666                           postdec1	equ	0xFE5
  4667                           plusw1	equ	0xFE3
  4668                           fsr1l	equ	0xFE1
  4669                           indf2	equ	0xFDF
  4670                           postinc2	equ	0xFDE
  4671                           postdec2	equ	0xFDD
  4672                           plusw2	equ	0xFDB
  4673                           fsr2h	equ	0xFDA
  4674                           fsr2l	equ	0xFD9
  4675                           status	equ	0xFD8
  4676                           
  4677 ;; *************** function _mode_clock *****************
  4678 ;; Defined at:
  4679 ;;		line 961 in file "main2.c"
  4680 ;; Parameters:    Size  Location     Type
  4681 ;;		None
  4682 ;; Auto vars:     Size  Location     Type
  4683 ;;  dark            2   54[COMRAM] int 
  4684 ;;  bright          2   52[COMRAM] int 
  4685 ;;  j               2   64[COMRAM] int 
  4686 ;;  dark            2   58[COMRAM] int 
  4687 ;;  bright          2   56[COMRAM] int 
  4688 ;;  dark            2   50[COMRAM] int 
  4689 ;;  bright          2   48[COMRAM] int 
  4690 ;;  i               2   68[COMRAM] int 
  4691 ;;  i               2   70[COMRAM] int 
  4692 ;;  i               2   62[COMRAM] int 
  4693 ;;  delay           2   74[COMRAM] int 
  4694 ;;  show            2   72[COMRAM] PTR int 
  4695 ;;		 -> MAS(80), X(28), 
  4696 ;;  face_i          2   66[COMRAM] PTR int 
  4697 ;;		 -> face(26), 
  4698 ;;  secL            2   46[COMRAM] int 
  4699 ;;  secH            2   44[COMRAM] int 
  4700 ;;  minL            2   42[COMRAM] int 
  4701 ;;  minH            2   40[COMRAM] int 
  4702 ;;  state           2   60[COMRAM] int 
  4703 ;;  display_cycl    2   38[COMRAM] int 
  4704 ;; Return value:  Size  Location     Type
  4705 ;;                  1    wreg      void 
  4706 ;; Registers used:
  4707 ;;		wreg, fsr2l, fsr2h, status,2, status,0, prodl, prodh, cstack
  4708 ;; Tracked objects:
  4709 ;;		On entry : 0/0
  4710 ;;		On exit  : 0/0
  4711 ;;		Unchanged: 0/0
  4712 ;; Data sizes:     COMRAM   BANK0   BANK1   BANK2   BANK3   BANK4   BANK5
  4713 ;;      Params:         0       0       0       0       0       0       0
  4714 ;;      Locals:        38       0       0       0       0       0       0
  4715 ;;      Temps:          2       0       0       0       0       0       0
  4716 ;;      Totals:        40       0       0       0       0       0       0
  4717 ;;Total ram usage:       40 bytes
  4718 ;; Hardware stack levels used:    1
  4719 ;; Hardware stack levels required when called:    4
  4720 ;; This function calls:
  4721 ;;		___awdiv
  4722 ;;		___awmod
  4723 ;;		___wmul
  4724 ;;		_display_num
  4725 ;; This function is called by:
  4726 ;;		_main
  4727 ;; This function uses a non-reentrant model
  4728 ;;
  4729                           
  4730                           	psect	text4
  4731  001252                     __ptext4:
  4732                           	opt stack 0
  4733  001252                     _mode_clock:
  4734                           	opt stack 26
  4735                           
  4736                           ;main2.c: 963: int state = 0;
  4737                           
  4738                           ;incstack = 0
  4739  001252  0E00               	movlw	0
  4740  001254  6E3E               	movwf	mode_clock@state+1,c
  4741  001256  0E00               	movlw	0
  4742  001258  6E3D               	movwf	mode_clock@state,c
  4743                           
  4744                           ;main2.c: 964: int display_cycle = 500;
  4745  00125A  0E01               	movlw	1
  4746  00125C  6E28               	movwf	mode_clock@display_cycle+1,c
  4747  00125E  0EF4               	movlw	244
  4748  001260  6E27               	movwf	mode_clock@display_cycle,c
  4749                           
  4750                           ;main2.c: 965: while(--display_cycle) {
  4751  001262  D1D9               	goto	u5440
  4752  001264                     
  4753                           ;main2.c: 968: display_num(hours/10);
  4754  001264  C067  F013         	movff	_hours,___awdiv@dividend
  4755  001268  C068  F014         	movff	_hours+1,___awdiv@dividend+1
  4756  00126C  0E00               	movlw	0
  4757  00126E  6E16               	movwf	___awdiv@divisor+1,c
  4758  001270  0E0A               	movlw	10
  4759  001272  6E15               	movwf	___awdiv@divisor,c
  4760  001274  EC3C  F00E         	call	___awdiv	;wreg free
  4761  001278  C013  F01B         	movff	?___awdiv,display_num@n
  4762  00127C  C014  F01C         	movff	?___awdiv+1,display_num@n+1
  4763  001280  ECFA  F00D         	call	_display_num	;wreg free
  4764                           
  4765                           ;main2.c: 969: display_num(hours%10);
  4766  001284  C067  F013         	movff	_hours,___awmod@dividend
  4767  001288  C068  F014         	movff	_hours+1,___awmod@dividend+1
  4768  00128C  0E00               	movlw	0
  4769  00128E  6E16               	movwf	___awmod@divisor+1,c
  4770  001290  0E0A               	movlw	10
  4771  001292  6E15               	movwf	___awmod@divisor,c
  4772  001294  ECBC  F00E         	call	___awmod	;wreg free
  4773  001298  C013  F01B         	movff	?___awmod,display_num@n
  4774  00129C  C014  F01C         	movff	?___awmod+1,display_num@n+1
  4775  0012A0  ECFA  F00D         	call	_display_num	;wreg free
  4776                           
  4777                           ;main2.c: 972: int delay = 80;
  4778  0012A4  0E00               	movlw	0
  4779  0012A6  6E4C               	movwf	mode_clock@delay+1,c
  4780  0012A8  0E50               	movlw	80
  4781  0012AA  6E4B               	movwf	mode_clock@delay,c
  4782  0012AC                     l3864:
  4783  0012AC  064B               	decf	mode_clock@delay,f,c
  4784  0012AE  A0D8               	btfss	status,0,c
  4785  0012B0  064C               	decf	mode_clock@delay+1,f,c
  4786  0012B2  284B               	incf	mode_clock@delay,w,c
  4787  0012B4  E1FB               	bnz	l3864
  4788  0012B6  284C               	incf	mode_clock@delay+1,w,c
  4789  0012B8  A4D8               	btfss	status,2,c
  4790  0012BA  D7F8               	goto	l409
  4791                           
  4792                           ;main2.c: 974: if(++state & 0b1000)
  4793  0012BC  4A3D               	infsnz	mode_clock@state,f,c
  4794  0012BE  2A3E               	incf	mode_clock@state+1,f,c
  4795  0012C0  A63D               	btfss	mode_clock@state,3,c
  4796  0012C2  D002               	goto	l411
  4797                           
  4798                           ;main2.c: 975: LATA = 0b00001010;
  4799  0012C4  0E0A               	movlw	10
  4800  0012C6  D001               	goto	L10
  4801  0012C8                     l411:
  4802                           
  4803                           ;main2.c: 976: else
  4804                           ;main2.c: 977: LATA = 0;
  4805  0012C8  0E00               	movlw	0
  4806  0012CA                     L10:
  4807  0012CA  6E89               	movwf	3977,c	;volatile
  4808                           
  4809                           ;main2.c: 978: int minH = minutes / 10;
  4810  0012CC  C061  F013         	movff	_minutes,___awdiv@dividend
  4811  0012D0  C062  F014         	movff	_minutes+1,___awdiv@dividend+1
  4812  0012D4  0E00               	movlw	0
  4813  0012D6  6E16               	movwf	___awdiv@divisor+1,c
  4814  0012D8  0E0A               	movlw	10
  4815  0012DA  6E15               	movwf	___awdiv@divisor,c
  4816  0012DC  EC3C  F00E         	call	___awdiv	;wreg free
  4817  0012E0  C013  F029         	movff	?___awdiv,mode_clock@minH
  4818  0012E4  C014  F02A         	movff	?___awdiv+1,mode_clock@minH+1
  4819                           
  4820                           ;main2.c: 979: LATA = 0;
  4821  0012E8  0E00               	movlw	0
  4822  0012EA  6E89               	movwf	3977,c	;volatile
  4823                           
  4824                           ;main2.c: 980: int minL = minutes % 10;
  4825  0012EC  C061  F013         	movff	_minutes,___awmod@dividend
  4826  0012F0  C062  F014         	movff	_minutes+1,___awmod@dividend+1
  4827  0012F4  0E00               	movlw	0
  4828  0012F6  6E16               	movwf	___awmod@divisor+1,c
  4829  0012F8  0E0A               	movlw	10
  4830  0012FA  6E15               	movwf	___awmod@divisor,c
  4831  0012FC  ECBC  F00E         	call	___awmod	;wreg free
  4832  001300  C013  F02B         	movff	?___awmod,mode_clock@minL
  4833  001304  C014  F02C         	movff	?___awmod+1,mode_clock@minL+1
  4834                           
  4835                           ;main2.c: 981: delay = 80;
  4836  001308  0E00               	movlw	0
  4837  00130A  6E4C               	movwf	mode_clock@delay+1,c
  4838  00130C  0E50               	movlw	80
  4839  00130E  6E4B               	movwf	mode_clock@delay,c
  4840  001310                     l3878:
  4841  001310  064B               	decf	mode_clock@delay,f,c
  4842  001312  A0D8               	btfss	status,0,c
  4843  001314  064C               	decf	mode_clock@delay+1,f,c
  4844  001316  284B               	incf	mode_clock@delay,w,c
  4845  001318  E1FB               	bnz	l3878
  4846  00131A  284C               	incf	mode_clock@delay+1,w,c
  4847  00131C  A4D8               	btfss	status,2,c
  4848  00131E  D7F8               	goto	l414
  4849                           
  4850                           ;main2.c: 985: display_num(minH);
  4851  001320  C029  F01B         	movff	mode_clock@minH,display_num@n
  4852  001324  C02A  F01C         	movff	mode_clock@minH+1,display_num@n+1
  4853  001328  ECFA  F00D         	call	_display_num	;wreg free
  4854                           
  4855                           ;main2.c: 986: display_num(minL);
  4856  00132C  C02B  F01B         	movff	mode_clock@minL,display_num@n
  4857  001330  C02C  F01C         	movff	mode_clock@minL+1,display_num@n+1
  4858  001334  ECFA  F00D         	call	_display_num	;wreg free
  4859                           
  4860                           ;main2.c: 989: delay = 80;
  4861  001338  0E00               	movlw	0
  4862  00133A  6E4C               	movwf	mode_clock@delay+1,c
  4863  00133C  0E50               	movlw	80
  4864  00133E  6E4B               	movwf	mode_clock@delay,c
  4865  001340                     l3884:
  4866  001340  064B               	decf	mode_clock@delay,f,c
  4867  001342  A0D8               	btfss	status,0,c
  4868  001344  064C               	decf	mode_clock@delay+1,f,c
  4869  001346  284B               	incf	mode_clock@delay,w,c
  4870  001348  E1FB               	bnz	l3884
  4871  00134A  284C               	incf	mode_clock@delay+1,w,c
  4872  00134C  A4D8               	btfss	status,2,c
  4873  00134E  D7F8               	goto	l417
  4874                           
  4875                           ;main2.c: 991: if(state & 0b1000)
  4876  001350  A63D               	btfss	mode_clock@state,3,c
  4877  001352  D002               	goto	l419
  4878                           
  4879                           ;main2.c: 992: LATA = 0b00001010;
  4880  001354  0E0A               	movlw	10
  4881  001356  D001               	goto	L11
  4882  001358                     l419:
  4883                           
  4884                           ;main2.c: 993: else
  4885                           ;main2.c: 994: LATA = 0;
  4886  001358  0E00               	movlw	0
  4887  00135A                     L11:
  4888  00135A  6E89               	movwf	3977,c	;volatile
  4889                           
  4890                           ;main2.c: 995: int secH = seconds / 10;
  4891  00135C  C063  F013         	movff	_seconds,___awdiv@dividend
  4892  001360  C064  F014         	movff	_seconds+1,___awdiv@dividend+1
  4893  001364  0E00               	movlw	0
  4894  001366  6E16               	movwf	___awdiv@divisor+1,c
  4895  001368  0E0A               	movlw	10
  4896  00136A  6E15               	movwf	___awdiv@divisor,c
  4897  00136C  EC3C  F00E         	call	___awdiv	;wreg free
  4898  001370  C013  F02D         	movff	?___awdiv,mode_clock@secH
  4899  001374  C014  F02E         	movff	?___awdiv+1,mode_clock@secH+1
  4900                           
  4901                           ;main2.c: 996: LATA = 0;
  4902  001378  0E00               	movlw	0
  4903  00137A  6E89               	movwf	3977,c	;volatile
  4904                           
  4905                           ;main2.c: 997: int secL = seconds % 10;
  4906  00137C  C063  F013         	movff	_seconds,___awmod@dividend
  4907  001380  C064  F014         	movff	_seconds+1,___awmod@dividend+1
  4908  001384  0E00               	movlw	0
  4909  001386  6E16               	movwf	___awmod@divisor+1,c
  4910  001388  0E0A               	movlw	10
  4911  00138A  6E15               	movwf	___awmod@divisor,c
  4912  00138C  ECBC  F00E         	call	___awmod	;wreg free
  4913  001390  C013  F02F         	movff	?___awmod,mode_clock@secL
  4914  001394  C014  F030         	movff	?___awmod+1,mode_clock@secL+1
  4915                           
  4916                           ;main2.c: 998: delay = 80;
  4917  001398  0E00               	movlw	0
  4918  00139A  6E4C               	movwf	mode_clock@delay+1,c
  4919  00139C  0E50               	movlw	80
  4920  00139E  6E4B               	movwf	mode_clock@delay,c
  4921  0013A0                     l3896:
  4922  0013A0  064B               	decf	mode_clock@delay,f,c
  4923  0013A2  A0D8               	btfss	status,0,c
  4924  0013A4  064C               	decf	mode_clock@delay+1,f,c
  4925  0013A6  284B               	incf	mode_clock@delay,w,c
  4926  0013A8  E1FB               	bnz	l3896
  4927  0013AA  284C               	incf	mode_clock@delay+1,w,c
  4928  0013AC  A4D8               	btfss	status,2,c
  4929  0013AE  D7F8               	goto	l422
  4930                           
  4931                           ;main2.c: 1002: display_num(secH);
  4932  0013B0  C02D  F01B         	movff	mode_clock@secH,display_num@n
  4933  0013B4  C02E  F01C         	movff	mode_clock@secH+1,display_num@n+1
  4934  0013B8  ECFA  F00D         	call	_display_num	;wreg free
  4935                           
  4936                           ;main2.c: 1003: display_num(secL);
  4937  0013BC  C02F  F01B         	movff	mode_clock@secL,display_num@n
  4938  0013C0  C030  F01C         	movff	mode_clock@secL+1,display_num@n+1
  4939  0013C4  ECFA  F00D         	call	_display_num	;wreg free
  4940                           
  4941                           ;main2.c: 1006: delay = 980;
  4942  0013C8  0E03               	movlw	3
  4943  0013CA  6E4C               	movwf	mode_clock@delay+1,c
  4944  0013CC  0ED4               	movlw	212
  4945  0013CE  6E4B               	movwf	mode_clock@delay,c
  4946  0013D0                     l3902:
  4947  0013D0  064B               	decf	mode_clock@delay,f,c
  4948  0013D2  A0D8               	btfss	status,0,c
  4949  0013D4  064C               	decf	mode_clock@delay+1,f,c
  4950  0013D6  284B               	incf	mode_clock@delay,w,c
  4951  0013D8  E1FB               	bnz	l3902
  4952  0013DA  284C               	incf	mode_clock@delay+1,w,c
  4953  0013DC  A4D8               	btfss	status,2,c
  4954  0013DE  D7F8               	goto	l425
  4955                           
  4956                           ;main2.c: 1010: int *show = (int*) X;
  4957  0013E0  0EBE               	movlw	low _X
  4958  0013E2  6E49               	movwf	mode_clock@show,c
  4959  0013E4  0E01               	movlw	high _X
  4960  0013E6  6E4A               	movwf	mode_clock@show+1,c
  4961                           
  4962                           ;main2.c: 1011: for(int i = 0; i < 14; ++i, ++show) {
  4963  0013E8  0E00               	movlw	0
  4964  0013EA  6E40               	movwf	mode_clock@i+1,c
  4965  0013EC  0E00               	movlw	0
  4966  0013EE  6E3F               	movwf	mode_clock@i,c
  4967  0013F0                     l3908:
  4968  0013F0  BE40               	btfsc	mode_clock@i+1,7,c
  4969  0013F2  D006               	goto	l427
  4970  0013F4  5040               	movf	mode_clock@i+1,w,c
  4971  0013F6  E13C               	bnz	l3928
  4972  0013F8  0E0E               	movlw	14
  4973  0013FA  5C3F               	subwf	mode_clock@i,w,c
  4974  0013FC  B0D8               	btfsc	status,0,c
  4975  0013FE  D038               	goto	u5310
  4976  001400                     l427:
  4977                           
  4978                           ;main2.c: 1012: LATA = *show;
  4979  001400  C049  FFD9         	movff	mode_clock@show,fsr2l
  4980  001404  C04A  FFDA         	movff	mode_clock@show+1,fsr2h
  4981  001408  50DF               	movf	indf2,w,c
  4982  00140A  6E89               	movwf	3977,c	;volatile
  4983                           
  4984                           ;main2.c: 1013: LATD = *show >> 8;
  4985  00140C  C049  FFD9         	movff	mode_clock@show,fsr2l
  4986  001410  C04A  FFDA         	movff	mode_clock@show+1,fsr2h
  4987  001414  CFDE F025          	movff	postinc2,??_mode_clock
  4988  001418  CFDD F026          	movff	postdec2,??_mode_clock+1
  4989  00141C  C026  F025         	movff	??_mode_clock+1,??_mode_clock
  4990  001420  6A26               	clrf	??_mode_clock+1,c
  4991  001422  BE25               	btfsc	??_mode_clock,7,c
  4992  001424  6826               	setf	??_mode_clock+1,c
  4993  001426  5025               	movf	??_mode_clock,w,c
  4994  001428  6E8C               	movwf	3980,c	;volatile
  4995                           
  4996                           ;main2.c: 1014: int bright = 40;
  4997  00142A  0E00               	movlw	0
  4998  00142C  6E32               	movwf	mode_clock@bright+1,c
  4999  00142E  0E28               	movlw	40
  5000  001430  6E31               	movwf	mode_clock@bright,c
  5001  001432                     l3916:
  5002  001432  0631               	decf	mode_clock@bright,f,c
  5003  001434  A0D8               	btfss	status,0,c
  5004  001436  0632               	decf	mode_clock@bright+1,f,c
  5005  001438  2831               	incf	mode_clock@bright,w,c
  5006  00143A  E1FB               	bnz	l3916
  5007  00143C  2832               	incf	mode_clock@bright+1,w,c
  5008  00143E  A4D8               	btfss	status,2,c
  5009  001440  D7F8               	goto	l430
  5010                           
  5011                           ;main2.c: 1016: LATA = 0;
  5012  001442  0E00               	movlw	0
  5013  001444  6E89               	movwf	3977,c	;volatile
  5014                           
  5015                           ;main2.c: 1017: LATD = 0;
  5016  001446  0E00               	movlw	0
  5017  001448  6E8C               	movwf	3980,c	;volatile
  5018                           
  5019                           ;main2.c: 1018: int dark = 40;
  5020  00144A  0E00               	movlw	0
  5021  00144C  6E34               	movwf	mode_clock@dark+1,c
  5022  00144E  0E28               	movlw	40
  5023  001450  6E33               	movwf	mode_clock@dark,c
  5024  001452                     l3920:
  5025  001452  0633               	decf	mode_clock@dark,f,c
  5026  001454  A0D8               	btfss	status,0,c
  5027  001456  0634               	decf	mode_clock@dark+1,f,c
  5028  001458  2833               	incf	mode_clock@dark,w,c
  5029  00145A  E1FB               	bnz	l3920
  5030  00145C  2834               	incf	mode_clock@dark+1,w,c
  5031  00145E  A4D8               	btfss	status,2,c
  5032  001460  D7F8               	goto	l433
  5033  001462  4A3F               	infsnz	mode_clock@i,f,c
  5034  001464  2A40               	incf	mode_clock@i+1,f,c
  5035  001466  0E02               	movlw	2
  5036  001468  2649               	addwf	mode_clock@show,f,c
  5037  00146A  0E00               	movlw	0
  5038  00146C  224A               	addwfc	mode_clock@show+1,f,c
  5039  00146E  D7C0               	goto	l3908
  5040  001470                     u5310:
  5041  001470                     l3928:
  5042                           
  5043                           ;main2.c: 1020: }
  5044                           ;main2.c: 1023: for(int i = 0; i < 4; ++i) {
  5045  001470  0E00               	movlw	0
  5046  001472  6E48               	movwf	mode_clock@i_491+1,c
  5047  001474  0E00               	movlw	0
  5048  001476  6E47               	movwf	mode_clock@i_491,c
  5049  001478  BE48               	btfsc	mode_clock@i_491+1,7,c
  5050  00147A  D006               	goto	l435
  5051  00147C  5048               	movf	mode_clock@i_491+1,w,c
  5052  00147E  E16B               	bnz	l436
  5053  001480  0E04               	movlw	4
  5054  001482  5C47               	subwf	mode_clock@i_491,w,c
  5055  001484  B0D8               	btfsc	status,0,c
  5056  001486  D067               	goto	u5380
  5057  001488                     l435:
  5058                           
  5059                           ;main2.c: 1024: show = (int*)MAS[i];
  5060  001488  C047  F013         	movff	mode_clock@i_491,___wmul@multiplier
  5061  00148C  C048  F014         	movff	mode_clock@i_491+1,___wmul@multiplier+1
  5062  001490  0E00               	movlw	0
  5063  001492  6E16               	movwf	___wmul@multiplicand+1,c
  5064  001494  0E14               	movlw	20
  5065  001496  6E15               	movwf	___wmul@multiplicand,c
  5066  001498  EC3F  F00F         	call	___wmul	;wreg free
  5067  00149C  0E56               	movlw	low _MAS
  5068  00149E  2413               	addwf	?___wmul,w,c
  5069  0014A0  6E49               	movwf	mode_clock@show,c
  5070  0014A2  0E02               	movlw	high _MAS
  5071  0014A4  2014               	addwfc	?___wmul+1,w,c
  5072  0014A6  6E4A               	movwf	mode_clock@show+1,c
  5073                           
  5074                           ;main2.c: 1025: for(int j = 0; j < 10; ++j, ++show) {
  5075  0014A8  0E00               	movlw	0
  5076  0014AA  6E42               	movwf	mode_clock@j+1,c
  5077  0014AC  0E00               	movlw	0
  5078  0014AE  6E41               	movwf	mode_clock@j,c
  5079  0014B0                     l3938:
  5080  0014B0  BE42               	btfsc	mode_clock@j+1,7,c
  5081  0014B2  D006               	goto	l437
  5082  0014B4  5042               	movf	mode_clock@j+1,w,c
  5083  0014B6  E13C               	bnz	l3958
  5084  0014B8  0E0A               	movlw	10
  5085  0014BA  5C41               	subwf	mode_clock@j,w,c
  5086  0014BC  B0D8               	btfsc	status,0,c
  5087  0014BE  D038               	goto	u5360
  5088  0014C0                     l437:
  5089                           
  5090                           ;main2.c: 1026: LATA = *show;
  5091  0014C0  C049  FFD9         	movff	mode_clock@show,fsr2l
  5092  0014C4  C04A  FFDA         	movff	mode_clock@show+1,fsr2h
  5093  0014C8  50DF               	movf	indf2,w,c
  5094  0014CA  6E89               	movwf	3977,c	;volatile
  5095                           
  5096                           ;main2.c: 1027: LATD = *show >> 8;
  5097  0014CC  C049  FFD9         	movff	mode_clock@show,fsr2l
  5098  0014D0  C04A  FFDA         	movff	mode_clock@show+1,fsr2h
  5099  0014D4  CFDE F025          	movff	postinc2,??_mode_clock
  5100  0014D8  CFDD F026          	movff	postdec2,??_mode_clock+1
  5101  0014DC  C026  F025         	movff	??_mode_clock+1,??_mode_clock
  5102  0014E0  6A26               	clrf	??_mode_clock+1,c
  5103  0014E2  BE25               	btfsc	??_mode_clock,7,c
  5104  0014E4  6826               	setf	??_mode_clock+1,c
  5105  0014E6  5025               	movf	??_mode_clock,w,c
  5106  0014E8  6E8C               	movwf	3980,c	;volatile
  5107                           
  5108                           ;main2.c: 1028: int bright = 40;
  5109  0014EA  0E00               	movlw	0
  5110  0014EC  6E36               	movwf	mode_clock@bright_493+1,c
  5111  0014EE  0E28               	movlw	40
  5112  0014F0  6E35               	movwf	mode_clock@bright_493,c
  5113  0014F2                     l3946:
  5114  0014F2  0635               	decf	mode_clock@bright_493,f,c
  5115  0014F4  A0D8               	btfss	status,0,c
  5116  0014F6  0636               	decf	mode_clock@bright_493+1,f,c
  5117  0014F8  2835               	incf	mode_clock@bright_493,w,c
  5118  0014FA  E1FB               	bnz	l3946
  5119  0014FC  2836               	incf	mode_clock@bright_493+1,w,c
  5120  0014FE  A4D8               	btfss	status,2,c
  5121  001500  D7F8               	goto	l440
  5122                           
  5123                           ;main2.c: 1030: LATA = 0;
  5124  001502  0E00               	movlw	0
  5125  001504  6E89               	movwf	3977,c	;volatile
  5126                           
  5127                           ;main2.c: 1031: LATD = 0;
  5128  001506  0E00               	movlw	0
  5129  001508  6E8C               	movwf	3980,c	;volatile
  5130                           
  5131                           ;main2.c: 1032: int dark = 40;
  5132  00150A  0E00               	movlw	0
  5133  00150C  6E38               	movwf	mode_clock@dark_494+1,c
  5134  00150E  0E28               	movlw	40
  5135  001510  6E37               	movwf	mode_clock@dark_494,c
  5136  001512                     l3950:
  5137  001512  0637               	decf	mode_clock@dark_494,f,c
  5138  001514  A0D8               	btfss	status,0,c
  5139  001516  0638               	decf	mode_clock@dark_494+1,f,c
  5140  001518  2837               	incf	mode_clock@dark_494,w,c
  5141  00151A  E1FB               	bnz	l3950
  5142  00151C  2838               	incf	mode_clock@dark_494+1,w,c
  5143  00151E  A4D8               	btfss	status,2,c
  5144  001520  D7F8               	goto	l443
  5145  001522  4A41               	infsnz	mode_clock@j,f,c
  5146  001524  2A42               	incf	mode_clock@j+1,f,c
  5147  001526  0E02               	movlw	2
  5148  001528  2649               	addwf	mode_clock@show,f,c
  5149  00152A  0E00               	movlw	0
  5150  00152C  224A               	addwfc	mode_clock@show+1,f,c
  5151  00152E  D7C0               	goto	l3938
  5152  001530                     u5360:
  5153  001530                     l3958:
  5154                           
  5155                           ;main2.c: 1034: }
  5156                           ;main2.c: 1035: delay = 100;
  5157  001530  0E00               	movlw	0
  5158  001532  6E4C               	movwf	mode_clock@delay+1,c
  5159  001534  0E64               	movlw	100
  5160  001536  6E4B               	movwf	mode_clock@delay,c
  5161  001538                     l3960:
  5162  001538  064B               	decf	mode_clock@delay,f,c
  5163  00153A  A0D8               	btfss	status,0,c
  5164  00153C  064C               	decf	mode_clock@delay+1,f,c
  5165  00153E  284B               	incf	mode_clock@delay,w,c
  5166  001540  E1FB               	bnz	l3960
  5167  001542  284C               	incf	mode_clock@delay+1,w,c
  5168  001544  A4D8               	btfss	status,2,c
  5169  001546  D7F8               	goto	l446
  5170  001548  4A47               	infsnz	mode_clock@i_491,f,c
  5171  00154A  2A48               	incf	mode_clock@i_491+1,f,c
  5172  00154C  BE48               	btfsc	mode_clock@i_491+1,7,c
  5173  00154E  D79C               	goto	l435
  5174  001550  5048               	movf	mode_clock@i_491+1,w,c
  5175  001552  E101               	bnz	l3966
  5176  001554  D795               	goto	L12
  5177  001556                     u5380:
  5178  001556                     l436:
  5179  001556                     l3966:
  5180                           
  5181                           ;main2.c: 1037: }
  5182                           ;main2.c: 1038: delay = 300;
  5183  001556  0E01               	movlw	1
  5184  001558  6E4C               	movwf	mode_clock@delay+1,c
  5185  00155A  0E2C               	movlw	44
  5186  00155C  6E4B               	movwf	mode_clock@delay,c
  5187  00155E                     l3968:
  5188  00155E  064B               	decf	mode_clock@delay,f,c
  5189  001560  A0D8               	btfss	status,0,c
  5190  001562  064C               	decf	mode_clock@delay+1,f,c
  5191  001564  284B               	incf	mode_clock@delay,w,c
  5192  001566  E1FB               	bnz	l3968
  5193  001568  284C               	incf	mode_clock@delay+1,w,c
  5194  00156A  A4D8               	btfss	status,2,c
  5195  00156C  D7F8               	goto	l449
  5196                           
  5197                           ;main2.c: 1040: int *face_i = (int*)face;
  5198  00156E  0EE1               	movlw	low _face
  5199  001570  6E43               	movwf	mode_clock@face_i,c
  5200  001572  0E00               	movlw	high _face
  5201  001574  6E44               	movwf	mode_clock@face_i+1,c
  5202                           
  5203                           ;main2.c: 1041: for(int i = 0; i < 13; ++i, ++face_i) {
  5204  001576  0E00               	movlw	0
  5205  001578  6E46               	movwf	mode_clock@i_496+1,c
  5206  00157A  0E00               	movlw	0
  5207  00157C  6E45               	movwf	mode_clock@i_496,c
  5208  00157E                     l3974:
  5209  00157E  BE46               	btfsc	mode_clock@i_496+1,7,c
  5210  001580  D006               	goto	l451
  5211  001582  5046               	movf	mode_clock@i_496+1,w,c
  5212  001584  E13C               	bnz	l3994
  5213  001586  0E0D               	movlw	13
  5214  001588  5C45               	subwf	mode_clock@i_496,w,c
  5215  00158A  B0D8               	btfsc	status,0,c
  5216  00158C  D038               	goto	u5430
  5217  00158E                     l451:
  5218                           
  5219                           ;main2.c: 1042: LATA = *face_i;
  5220  00158E  C043  FFD9         	movff	mode_clock@face_i,fsr2l
  5221  001592  C044  FFDA         	movff	mode_clock@face_i+1,fsr2h
  5222  001596  50DF               	movf	indf2,w,c
  5223  001598  6E89               	movwf	3977,c	;volatile
  5224                           
  5225                           ;main2.c: 1043: LATD = *face_i >> 8;
  5226  00159A  C043  FFD9         	movff	mode_clock@face_i,fsr2l
  5227  00159E  C044  FFDA         	movff	mode_clock@face_i+1,fsr2h
  5228  0015A2  CFDE F025          	movff	postinc2,??_mode_clock
  5229  0015A6  CFDD F026          	movff	postdec2,??_mode_clock+1
  5230  0015AA  C026  F025         	movff	??_mode_clock+1,??_mode_clock
  5231  0015AE  6A26               	clrf	??_mode_clock+1,c
  5232  0015B0  BE25               	btfsc	??_mode_clock,7,c
  5233  0015B2  6826               	setf	??_mode_clock+1,c
  5234  0015B4  5025               	movf	??_mode_clock,w,c
  5235  0015B6  6E8C               	movwf	3980,c	;volatile
  5236                           
  5237                           ;main2.c: 1044: int bright = 40;
  5238  0015B8  0E00               	movlw	0
  5239  0015BA  6E3A               	movwf	mode_clock@bright_497+1,c
  5240  0015BC  0E28               	movlw	40
  5241  0015BE  6E39               	movwf	mode_clock@bright_497,c
  5242  0015C0                     l3982:
  5243  0015C0  0639               	decf	mode_clock@bright_497,f,c
  5244  0015C2  A0D8               	btfss	status,0,c
  5245  0015C4  063A               	decf	mode_clock@bright_497+1,f,c
  5246  0015C6  2839               	incf	mode_clock@bright_497,w,c
  5247  0015C8  E1FB               	bnz	l3982
  5248  0015CA  283A               	incf	mode_clock@bright_497+1,w,c
  5249  0015CC  A4D8               	btfss	status,2,c
  5250  0015CE  D7F8               	goto	l454
  5251                           
  5252                           ;main2.c: 1046: LATA = 0;
  5253  0015D0  0E00               	movlw	0
  5254  0015D2  6E89               	movwf	3977,c	;volatile
  5255                           
  5256                           ;main2.c: 1047: LATD = 0;
  5257  0015D4  0E00               	movlw	0
  5258  0015D6  6E8C               	movwf	3980,c	;volatile
  5259                           
  5260                           ;main2.c: 1048: int dark = 40;
  5261  0015D8  0E00               	movlw	0
  5262  0015DA  6E3C               	movwf	mode_clock@dark_498+1,c
  5263  0015DC  0E28               	movlw	40
  5264  0015DE  6E3B               	movwf	mode_clock@dark_498,c
  5265  0015E0                     l3986:
  5266  0015E0  063B               	decf	mode_clock@dark_498,f,c
  5267  0015E2  A0D8               	btfss	status,0,c
  5268  0015E4  063C               	decf	mode_clock@dark_498+1,f,c
  5269  0015E6  283B               	incf	mode_clock@dark_498,w,c
  5270  0015E8  E1FB               	bnz	l3986
  5271  0015EA  283C               	incf	mode_clock@dark_498+1,w,c
  5272  0015EC  A4D8               	btfss	status,2,c
  5273  0015EE  D7F8               	goto	l457
  5274  0015F0  4A45               	infsnz	mode_clock@i_496,f,c
  5275  0015F2  2A46               	incf	mode_clock@i_496+1,f,c
  5276  0015F4  0E02               	movlw	2
  5277  0015F6  2643               	addwf	mode_clock@face_i,f,c
  5278  0015F8  0E00               	movlw	0
  5279  0015FA  2244               	addwfc	mode_clock@face_i+1,f,c
  5280  0015FC  D7C0               	goto	l3974
  5281  0015FE                     u5430:
  5282  0015FE                     l3994:
  5283                           
  5284                           ;main2.c: 1050: }
  5285                           ;main2.c: 1052: delay = 980;
  5286  0015FE  0E03               	movlw	3
  5287  001600  6E4C               	movwf	mode_clock@delay+1,c
  5288  001602  0ED4               	movlw	212
  5289  001604  6E4B               	movwf	mode_clock@delay,c
  5290  001606                     l3996:
  5291  001606  064B               	decf	mode_clock@delay,f,c
  5292  001608  A0D8               	btfss	status,0,c
  5293  00160A  064C               	decf	mode_clock@delay+1,f,c
  5294  00160C  284B               	incf	mode_clock@delay,w,c
  5295  00160E  E1FB               	bnz	l3996
  5296  001610  284C               	incf	mode_clock@delay+1,w,c
  5297  001612  A4D8               	btfss	status,2,c
  5298  001614  D7F8               	goto	l460
  5299  001616                     u5440:
  5300  001616  0627               	decf	mode_clock@display_cycle,f,c
  5301  001618  A0D8               	btfss	status,0,c
  5302  00161A  0628               	decf	mode_clock@display_cycle+1,f,c
  5303  00161C  5027               	movf	mode_clock@display_cycle,w,c
  5304  00161E  1028               	iorwf	mode_clock@display_cycle+1,w,c
  5305  001620  B4D8               	btfsc	status,2,c
  5306  001622  0012               	return	
  5307  001624  D61F               	goto	l407
  5308  001626                     __end_of_mode_clock:
  5309                           	opt stack 0
  5310                           tblptru	equ	0xFF8
  5311                           tblptrh	equ	0xFF7
  5312                           tblptrl	equ	0xFF6
  5313                           tablat	equ	0xFF5
  5314                           intcon	equ	0xFF2
  5315                           postinc0	equ	0xFEE
  5316                           wreg	equ	0xFE8
  5317                           postdec1	equ	0xFE5
  5318                           plusw1	equ	0xFE3
  5319                           fsr1l	equ	0xFE1
  5320                           indf2	equ	0xFDF
  5321                           postinc2	equ	0xFDE
  5322                           postdec2	equ	0xFDD
  5323                           plusw2	equ	0xFDB
  5324                           fsr2h	equ	0xFDA
  5325                           fsr2l	equ	0xFD9
  5326                           status	equ	0xFD8
  5327                           
  5328 ;; *************** function _display_num *****************
  5329 ;; Defined at:
  5330 ;;		line 948 in file "main2.c"
  5331 ;; Parameters:    Size  Location     Type
  5332 ;;  n               2   26[COMRAM] int 
  5333 ;; Auto vars:     Size  Location     Type
  5334 ;;  dark_i          2   30[COMRAM] int 
  5335 ;;  bright_i        2   28[COMRAM] int 
  5336 ;;  i               2   34[COMRAM] int 
  5337 ;;  iter            2   32[COMRAM] PTR unsigned char 
  5338 ;;		 -> num(50), 
  5339 ;; Return value:  Size  Location     Type
  5340 ;;                  1    wreg      void 
  5341 ;; Registers used:
  5342 ;;		wreg, fsr2l, fsr2h, status,2, status,0, prodl, prodh, cstack
  5343 ;; Tracked objects:
  5344 ;;		On entry : 0/0
  5345 ;;		On exit  : 0/0
  5346 ;;		Unchanged: 0/0
  5347 ;; Data sizes:     COMRAM   BANK0   BANK1   BANK2   BANK3   BANK4   BANK5
  5348 ;;      Params:         2       0       0       0       0       0       0
  5349 ;;      Locals:         8       0       0       0       0       0       0
  5350 ;;      Temps:          0       0       0       0       0       0       0
  5351 ;;      Totals:        10       0       0       0       0       0       0
  5352 ;;Total ram usage:       10 bytes
  5353 ;; Hardware stack levels used:    1
  5354 ;; Hardware stack levels required when called:    3
  5355 ;; This function calls:
  5356 ;;		___wmul
  5357 ;; This function is called by:
  5358 ;;		_mode_clock
  5359 ;; This function uses a non-reentrant model
  5360 ;;
  5361                           
  5362                           	psect	text5
  5363  001BF4                     __ptext5:
  5364                           	opt stack 0
  5365  001BF4                     _display_num:
  5366                           	opt stack 26
  5367                           
  5368                           ;main2.c: 950: unsigned char *iter = (unsigned char*)num[n];
  5369                           
  5370                           ;incstack = 0
  5371  001BF4  C01B  F013         	movff	display_num@n,___wmul@multiplier
  5372  001BF8  C01C  F014         	movff	display_num@n+1,___wmul@multiplier+1
  5373  001BFC  0E00               	movlw	0
  5374  001BFE  6E16               	movwf	___wmul@multiplicand+1,c
  5375  001C00  0E05               	movlw	5
  5376  001C02  6E15               	movwf	___wmul@multiplicand,c
  5377  001C04  EC3F  F00F         	call	___wmul	;wreg free
  5378  001C08  0E8C               	movlw	low _num
  5379  001C0A  2413               	addwf	?___wmul,w,c
  5380  001C0C  6E21               	movwf	display_num@iter,c
  5381  001C0E  0E01               	movlw	high _num
  5382  001C10  2014               	addwfc	?___wmul+1,w,c
  5383  001C12  6E22               	movwf	display_num@iter+1,c
  5384                           
  5385                           ;main2.c: 951: for(int i = 0; i < 5; ++i, ++iter) {
  5386  001C14  0E00               	movlw	0
  5387  001C16  6E24               	movwf	display_num@i+1,c
  5388  001C18  0E00               	movlw	0
  5389  001C1A  6E23               	movwf	display_num@i,c
  5390  001C1C                     l3212:
  5391  001C1C  BE24               	btfsc	display_num@i+1,7,c
  5392  001C1E  D006               	goto	l395
  5393  001C20  5024               	movf	display_num@i+1,w,c
  5394  001C22  E129               	bnz	l403
  5395  001C24  0E05               	movlw	5
  5396  001C26  5C23               	subwf	display_num@i,w,c
  5397  001C28  B0D8               	btfsc	status,0,c
  5398  001C2A  0012               	return	
  5399  001C2C                     l395:
  5400                           
  5401                           ;main2.c: 952: LATA = *iter;
  5402  001C2C  C021  FFD9         	movff	display_num@iter,fsr2l
  5403  001C30  C022  FFDA         	movff	display_num@iter+1,fsr2h
  5404  001C34  50DF               	movf	indf2,w,c
  5405  001C36  6E89               	movwf	3977,c	;volatile
  5406                           
  5407                           ;main2.c: 953: int bright_i = 40;
  5408  001C38  0E00               	movlw	0
  5409  001C3A  6E1E               	movwf	display_num@bright_i+1,c
  5410  001C3C  0E28               	movlw	40
  5411  001C3E  6E1D               	movwf	display_num@bright_i,c
  5412  001C40                     l3220:
  5413  001C40  061D               	decf	display_num@bright_i,f,c
  5414  001C42  A0D8               	btfss	status,0,c
  5415  001C44  061E               	decf	display_num@bright_i+1,f,c
  5416  001C46  281D               	incf	display_num@bright_i,w,c
  5417  001C48  E1FB               	bnz	l3220
  5418  001C4A  281E               	incf	display_num@bright_i+1,w,c
  5419  001C4C  A4D8               	btfss	status,2,c
  5420  001C4E  D7F8               	goto	l398
  5421                           
  5422                           ;main2.c: 955: LATA = 0;
  5423  001C50  0E00               	movlw	0
  5424  001C52  6E89               	movwf	3977,c	;volatile
  5425                           
  5426                           ;main2.c: 956: int dark_i = 40;
  5427  001C54  0E00               	movlw	0
  5428  001C56  6E20               	movwf	display_num@dark_i+1,c
  5429  001C58  0E28               	movlw	40
  5430  001C5A  6E1F               	movwf	display_num@dark_i,c
  5431  001C5C                     l3224:
  5432  001C5C  061F               	decf	display_num@dark_i,f,c
  5433  001C5E  A0D8               	btfss	status,0,c
  5434  001C60  0620               	decf	display_num@dark_i+1,f,c
  5435  001C62  281F               	incf	display_num@dark_i,w,c
  5436  001C64  E1FB               	bnz	l3224
  5437  001C66  2820               	incf	display_num@dark_i+1,w,c
  5438  001C68  A4D8               	btfss	status,2,c
  5439  001C6A  D7F8               	goto	l401
  5440  001C6C  4A23               	infsnz	display_num@i,f,c
  5441  001C6E  2A24               	incf	display_num@i+1,f,c
  5442  001C70  4A21               	infsnz	display_num@iter,f,c
  5443  001C72  2A22               	incf	display_num@iter+1,f,c
  5444  001C74  D7D3               	goto	l3212
  5445  001C76                     l403:
  5446  001C76  0012               	return		;funcret
  5447  001C78                     __end_of_display_num:
  5448                           	opt stack 0
  5449                           tblptru	equ	0xFF8
  5450                           tblptrh	equ	0xFF7
  5451                           tblptrl	equ	0xFF6
  5452                           tablat	equ	0xFF5
  5453                           intcon	equ	0xFF2
  5454                           postinc0	equ	0xFEE
  5455                           wreg	equ	0xFE8
  5456                           postdec1	equ	0xFE5
  5457                           plusw1	equ	0xFE3
  5458                           fsr1l	equ	0xFE1
  5459                           indf2	equ	0xFDF
  5460                           postinc2	equ	0xFDE
  5461                           postdec2	equ	0xFDD
  5462                           plusw2	equ	0xFDB
  5463                           fsr2h	equ	0xFDA
  5464                           fsr2l	equ	0xFD9
  5465                           status	equ	0xFD8
  5466                           
  5467 ;; *************** function ___wmul *****************
  5468 ;; Defined at:
  5469 ;;		line 15 in file "C:\Program Files (x86)\Microchip\xc8\v1.44\sources\common\Umul16.c"
  5470 ;; Parameters:    Size  Location     Type
  5471 ;;  multiplier      2   18[COMRAM] unsigned int 
  5472 ;;  multiplicand    2   20[COMRAM] unsigned int 
  5473 ;; Auto vars:     Size  Location     Type
  5474 ;;  product         2   22[COMRAM] unsigned int 
  5475 ;; Return value:  Size  Location     Type
  5476 ;;                  2   18[COMRAM] unsigned int 
  5477 ;; Registers used:
  5478 ;;		wreg, status,2, status,0, prodl, prodh
  5479 ;; Tracked objects:
  5480 ;;		On entry : 0/0
  5481 ;;		On exit  : 0/0
  5482 ;;		Unchanged: 0/0
  5483 ;; Data sizes:     COMRAM   BANK0   BANK1   BANK2   BANK3   BANK4   BANK5
  5484 ;;      Params:         4       0       0       0       0       0       0
  5485 ;;      Locals:         2       0       0       0       0       0       0
  5486 ;;      Temps:          0       0       0       0       0       0       0
  5487 ;;      Totals:         6       0       0       0       0       0       0
  5488 ;;Total ram usage:        6 bytes
  5489 ;; Hardware stack levels used:    1
  5490 ;; Hardware stack levels required when called:    2
  5491 ;; This function calls:
  5492 ;;		Nothing
  5493 ;; This function is called by:
  5494 ;;		_mode_snow
  5495 ;;		_mode_walker
  5496 ;;		_display_num
  5497 ;;		_mode_clock
  5498 ;; This function uses a non-reentrant model
  5499 ;;
  5500                           
  5501                           	psect	text6
  5502  001E7E                     __ptext6:
  5503                           	opt stack 0
  5504  001E7E                     ___wmul:
  5505                           	opt stack 27
  5506                           
  5507                           ;incstack = 0
  5508  001E7E  5013               	movf	___wmul@multiplier,w,c
  5509  001E80  0215               	mulwf	___wmul@multiplicand,c
  5510  001E82  CFF3 F017          	movff	prodl,___wmul@product
  5511  001E86  CFF4 F018          	movff	prodh,___wmul@product+1
  5512  001E8A  5013               	movf	___wmul@multiplier,w,c
  5513  001E8C  0216               	mulwf	___wmul@multiplicand+1,c
  5514  001E8E  50F3               	movf	prodl,w,c
  5515  001E90  2618               	addwf	___wmul@product+1,f,c
  5516  001E92  5014               	movf	___wmul@multiplier+1,w,c
  5517  001E94  0215               	mulwf	___wmul@multiplicand,c
  5518  001E96  50F3               	movf	prodl,w,c
  5519  001E98  2618               	addwf	___wmul@product+1,f,c
  5520  001E9A  C017  F013         	movff	___wmul@product,?___wmul
  5521  001E9E  C018  F014         	movff	___wmul@product+1,?___wmul+1
  5522  001EA2  0012               	return	
  5523  001EA4                     __end_of___wmul:
  5524                           	opt stack 0
  5525                           tblptru	equ	0xFF8
  5526                           tblptrh	equ	0xFF7
  5527                           tblptrl	equ	0xFF6
  5528                           tablat	equ	0xFF5
  5529                           prodh	equ	0xFF4
  5530                           prodl	equ	0xFF3
  5531                           intcon	equ	0xFF2
  5532                           postinc0	equ	0xFEE
  5533                           wreg	equ	0xFE8
  5534                           postdec1	equ	0xFE5
  5535                           plusw1	equ	0xFE3
  5536                           fsr1l	equ	0xFE1
  5537                           indf2	equ	0xFDF
  5538                           postinc2	equ	0xFDE
  5539                           postdec2	equ	0xFDD
  5540                           plusw2	equ	0xFDB
  5541                           fsr2h	equ	0xFDA
  5542                           fsr2l	equ	0xFD9
  5543                           status	equ	0xFD8
  5544                           
  5545 ;; *************** function ___awmod *****************
  5546 ;; Defined at:
  5547 ;;		line 8 in file "C:\Program Files (x86)\Microchip\xc8\v1.44\sources\common\awmod.c"
  5548 ;; Parameters:    Size  Location     Type
  5549 ;;  dividend        2   18[COMRAM] int 
  5550 ;;  divisor         2   20[COMRAM] int 
  5551 ;; Auto vars:     Size  Location     Type
  5552 ;;  sign            1   23[COMRAM] unsigned char 
  5553 ;;  counter         1   22[COMRAM] unsigned char 
  5554 ;; Return value:  Size  Location     Type
  5555 ;;                  2   18[COMRAM] int 
  5556 ;; Registers used:
  5557 ;;		wreg, status,2, status,0
  5558 ;; Tracked objects:
  5559 ;;		On entry : 0/0
  5560 ;;		On exit  : 0/0
  5561 ;;		Unchanged: 0/0
  5562 ;; Data sizes:     COMRAM   BANK0   BANK1   BANK2   BANK3   BANK4   BANK5
  5563 ;;      Params:         4       0       0       0       0       0       0
  5564 ;;      Locals:         2       0       0       0       0       0       0
  5565 ;;      Temps:          0       0       0       0       0       0       0
  5566 ;;      Totals:         6       0       0       0       0       0       0
  5567 ;;Total ram usage:        6 bytes
  5568 ;; Hardware stack levels used:    1
  5569 ;; Hardware stack levels required when called:    2
  5570 ;; This function calls:
  5571 ;;		Nothing
  5572 ;; This function is called by:
  5573 ;;		_mode_clock
  5574 ;; This function uses a non-reentrant model
  5575 ;;
  5576                           
  5577                           	psect	text7
  5578  001D78                     __ptext7:
  5579                           	opt stack 0
  5580  001D78                     ___awmod:
  5581                           	opt stack 27
  5582                           
  5583                           ;incstack = 0
  5584  001D78  0E00               	movlw	0
  5585  001D7A  6E18               	movwf	___awmod@sign,c
  5586  001D7C  AE14               	btfss	___awmod@dividend+1,7,c
  5587  001D7E  D006               	goto	l665
  5588  001D80  6C13               	negf	___awmod@dividend,c
  5589  001D82  1E14               	comf	___awmod@dividend+1,f,c
  5590  001D84  B0D8               	btfsc	status,0,c
  5591  001D86  2A14               	incf	___awmod@dividend+1,f,c
  5592  001D88  0E01               	movlw	1
  5593  001D8A  6E18               	movwf	___awmod@sign,c
  5594  001D8C                     l665:
  5595  001D8C  AE16               	btfss	___awmod@divisor+1,7,c
  5596  001D8E  D004               	goto	l666
  5597  001D90  6C15               	negf	___awmod@divisor,c
  5598  001D92  1E16               	comf	___awmod@divisor+1,f,c
  5599  001D94  B0D8               	btfsc	status,0,c
  5600  001D96  2A16               	incf	___awmod@divisor+1,f,c
  5601  001D98                     l666:
  5602  001D98  5015               	movf	___awmod@divisor,w,c
  5603  001D9A  1016               	iorwf	___awmod@divisor+1,w,c
  5604  001D9C  B4D8               	btfsc	status,2,c
  5605  001D9E  D018               	goto	l673
  5606  001DA0  0E01               	movlw	1
  5607  001DA2  6E17               	movwf	___awmod@counter,c
  5608  001DA4  D004               	goto	l668
  5609  001DA6  90D8               	bcf	status,0,c
  5610  001DA8  3615               	rlcf	___awmod@divisor,f,c
  5611  001DAA  3616               	rlcf	___awmod@divisor+1,f,c
  5612  001DAC  2A17               	incf	___awmod@counter,f,c
  5613  001DAE                     l668:
  5614  001DAE  AE16               	btfss	___awmod@divisor+1,7,c
  5615  001DB0  D7FA               	goto	l669
  5616  001DB2                     u2150:
  5617  001DB2  5015               	movf	___awmod@divisor,w,c
  5618  001DB4  5C13               	subwf	___awmod@dividend,w,c
  5619  001DB6  5016               	movf	___awmod@divisor+1,w,c
  5620  001DB8  5814               	subwfb	___awmod@dividend+1,w,c
  5621  001DBA  A0D8               	btfss	status,0,c
  5622  001DBC  D004               	goto	l672
  5623  001DBE  5015               	movf	___awmod@divisor,w,c
  5624  001DC0  5E13               	subwf	___awmod@dividend,f,c
  5625  001DC2  5016               	movf	___awmod@divisor+1,w,c
  5626  001DC4  5A14               	subwfb	___awmod@dividend+1,f,c
  5627  001DC6                     l672:
  5628  001DC6  90D8               	bcf	status,0,c
  5629  001DC8  3216               	rrcf	___awmod@divisor+1,f,c
  5630  001DCA  3215               	rrcf	___awmod@divisor,f,c
  5631  001DCC  2E17               	decfsz	___awmod@counter,f,c
  5632  001DCE  D7F1               	goto	u2150
  5633  001DD0                     l673:
  5634  001DD0  5018               	movf	___awmod@sign,w,c
  5635  001DD2  B4D8               	btfsc	status,2,c
  5636  001DD4  D004               	goto	l674
  5637  001DD6  6C13               	negf	___awmod@dividend,c
  5638  001DD8  1E14               	comf	___awmod@dividend+1,f,c
  5639  001DDA  B0D8               	btfsc	status,0,c
  5640  001DDC  2A14               	incf	___awmod@dividend+1,f,c
  5641  001DDE                     l674:
  5642  001DDE  C013  F013         	movff	___awmod@dividend,?___awmod
  5643  001DE2  C014  F014         	movff	___awmod@dividend+1,?___awmod+1
  5644  001DE6  0012               	return	
  5645  001DE8                     __end_of___awmod:
  5646                           	opt stack 0
  5647                           tblptru	equ	0xFF8
  5648                           tblptrh	equ	0xFF7
  5649                           tblptrl	equ	0xFF6
  5650                           tablat	equ	0xFF5
  5651                           prodh	equ	0xFF4
  5652                           prodl	equ	0xFF3
  5653                           intcon	equ	0xFF2
  5654                           postinc0	equ	0xFEE
  5655                           wreg	equ	0xFE8
  5656                           postdec1	equ	0xFE5
  5657                           plusw1	equ	0xFE3
  5658                           fsr1l	equ	0xFE1
  5659                           indf2	equ	0xFDF
  5660                           postinc2	equ	0xFDE
  5661                           postdec2	equ	0xFDD
  5662                           plusw2	equ	0xFDB
  5663                           fsr2h	equ	0xFDA
  5664                           fsr2l	equ	0xFD9
  5665                           status	equ	0xFD8
  5666                           
  5667 ;; *************** function ___awdiv *****************
  5668 ;; Defined at:
  5669 ;;		line 8 in file "C:\Program Files (x86)\Microchip\xc8\v1.44\sources\common\awdiv.c"
  5670 ;; Parameters:    Size  Location     Type
  5671 ;;  dividend        2   18[COMRAM] int 
  5672 ;;  divisor         2   20[COMRAM] int 
  5673 ;; Auto vars:     Size  Location     Type
  5674 ;;  quotient        2   24[COMRAM] int 
  5675 ;;  sign            1   23[COMRAM] unsigned char 
  5676 ;;  counter         1   22[COMRAM] unsigned char 
  5677 ;; Return value:  Size  Location     Type
  5678 ;;                  2   18[COMRAM] int 
  5679 ;; Registers used:
  5680 ;;		wreg, status,2, status,0
  5681 ;; Tracked objects:
  5682 ;;		On entry : 0/0
  5683 ;;		On exit  : 0/0
  5684 ;;		Unchanged: 0/0
  5685 ;; Data sizes:     COMRAM   BANK0   BANK1   BANK2   BANK3   BANK4   BANK5
  5686 ;;      Params:         4       0       0       0       0       0       0
  5687 ;;      Locals:         4       0       0       0       0       0       0
  5688 ;;      Temps:          0       0       0       0       0       0       0
  5689 ;;      Totals:         8       0       0       0       0       0       0
  5690 ;;Total ram usage:        8 bytes
  5691 ;; Hardware stack levels used:    1
  5692 ;; Hardware stack levels required when called:    2
  5693 ;; This function calls:
  5694 ;;		Nothing
  5695 ;; This function is called by:
  5696 ;;		_mode_clock
  5697 ;; This function uses a non-reentrant model
  5698 ;;
  5699                           
  5700                           	psect	text8
  5701  001C78                     __ptext8:
  5702                           	opt stack 0
  5703  001C78                     ___awdiv:
  5704                           	opt stack 27
  5705                           
  5706                           ;incstack = 0
  5707  001C78  0E00               	movlw	0
  5708  001C7A  6E18               	movwf	___awdiv@sign,c
  5709  001C7C  AE16               	btfss	___awdiv@divisor+1,7,c
  5710  001C7E  D006               	goto	l652
  5711  001C80  6C15               	negf	___awdiv@divisor,c
  5712  001C82  1E16               	comf	___awdiv@divisor+1,f,c
  5713  001C84  B0D8               	btfsc	status,0,c
  5714  001C86  2A16               	incf	___awdiv@divisor+1,f,c
  5715  001C88  0E01               	movlw	1
  5716  001C8A  6E18               	movwf	___awdiv@sign,c
  5717  001C8C                     l652:
  5718  001C8C  AE14               	btfss	___awdiv@dividend+1,7,c
  5719  001C8E  D006               	goto	l653
  5720  001C90  6C13               	negf	___awdiv@dividend,c
  5721  001C92  1E14               	comf	___awdiv@dividend+1,f,c
  5722  001C94  B0D8               	btfsc	status,0,c
  5723  001C96  2A14               	incf	___awdiv@dividend+1,f,c
  5724  001C98  0E01               	movlw	1
  5725  001C9A  1A18               	xorwf	___awdiv@sign,f,c
  5726  001C9C                     l653:
  5727  001C9C  0E00               	movlw	0
  5728  001C9E  6E1A               	movwf	___awdiv@quotient+1,c
  5729  001CA0  0E00               	movlw	0
  5730  001CA2  6E19               	movwf	___awdiv@quotient,c
  5731  001CA4  5015               	movf	___awdiv@divisor,w,c
  5732  001CA6  1016               	iorwf	___awdiv@divisor+1,w,c
  5733  001CA8  B4D8               	btfsc	status,2,c
  5734  001CAA  D01C               	goto	l660
  5735  001CAC  0E01               	movlw	1
  5736  001CAE  6E17               	movwf	___awdiv@counter,c
  5737  001CB0  D004               	goto	l655
  5738  001CB2  90D8               	bcf	status,0,c
  5739  001CB4  3615               	rlcf	___awdiv@divisor,f,c
  5740  001CB6  3616               	rlcf	___awdiv@divisor+1,f,c
  5741  001CB8  2A17               	incf	___awdiv@counter,f,c
  5742  001CBA                     l655:
  5743  001CBA  AE16               	btfss	___awdiv@divisor+1,7,c
  5744  001CBC  D7FA               	goto	l656
  5745  001CBE                     u2090:
  5746  001CBE  90D8               	bcf	status,0,c
  5747  001CC0  3619               	rlcf	___awdiv@quotient,f,c
  5748  001CC2  361A               	rlcf	___awdiv@quotient+1,f,c
  5749  001CC4  5015               	movf	___awdiv@divisor,w,c
  5750  001CC6  5C13               	subwf	___awdiv@dividend,w,c
  5751  001CC8  5016               	movf	___awdiv@divisor+1,w,c
  5752  001CCA  5814               	subwfb	___awdiv@dividend+1,w,c
  5753  001CCC  A0D8               	btfss	status,0,c
  5754  001CCE  D005               	goto	l659
  5755  001CD0  5015               	movf	___awdiv@divisor,w,c
  5756  001CD2  5E13               	subwf	___awdiv@dividend,f,c
  5757  001CD4  5016               	movf	___awdiv@divisor+1,w,c
  5758  001CD6  5A14               	subwfb	___awdiv@dividend+1,f,c
  5759  001CD8  8019               	bsf	___awdiv@quotient,0,c
  5760  001CDA                     l659:
  5761  001CDA  90D8               	bcf	status,0,c
  5762  001CDC  3216               	rrcf	___awdiv@divisor+1,f,c
  5763  001CDE  3215               	rrcf	___awdiv@divisor,f,c
  5764  001CE0  2E17               	decfsz	___awdiv@counter,f,c
  5765  001CE2  D7ED               	goto	u2090
  5766  001CE4                     l660:
  5767  001CE4  5018               	movf	___awdiv@sign,w,c
  5768  001CE6  B4D8               	btfsc	status,2,c
  5769  001CE8  D004               	goto	l661
  5770  001CEA  6C19               	negf	___awdiv@quotient,c
  5771  001CEC  1E1A               	comf	___awdiv@quotient+1,f,c
  5772  001CEE  B0D8               	btfsc	status,0,c
  5773  001CF0  2A1A               	incf	___awdiv@quotient+1,f,c
  5774  001CF2                     l661:
  5775  001CF2  C019  F013         	movff	___awdiv@quotient,?___awdiv
  5776  001CF6  C01A  F014         	movff	___awdiv@quotient+1,?___awdiv+1
  5777  001CFA  0012               	return	
  5778  001CFC                     __end_of___awdiv:
  5779                           	opt stack 0
  5780                           tblptru	equ	0xFF8
  5781                           tblptrh	equ	0xFF7
  5782                           tblptrl	equ	0xFF6
  5783                           tablat	equ	0xFF5
  5784                           prodh	equ	0xFF4
  5785                           prodl	equ	0xFF3
  5786                           intcon	equ	0xFF2
  5787                           postinc0	equ	0xFEE
  5788                           wreg	equ	0xFE8
  5789                           postdec1	equ	0xFE5
  5790                           plusw1	equ	0xFE3
  5791                           fsr1l	equ	0xFE1
  5792                           indf2	equ	0xFDF
  5793                           postinc2	equ	0xFDE
  5794                           postdec2	equ	0xFDD
  5795                           plusw2	equ	0xFDB
  5796                           fsr2h	equ	0xFDA
  5797                           fsr2l	equ	0xFD9
  5798                           status	equ	0xFD8
  5799                           
  5800 ;; *************** function _mode_TransLove *****************
  5801 ;; Defined at:
  5802 ;;		line 858 in file "main2.c"
  5803 ;; Parameters:    Size  Location     Type
  5804 ;;		None
  5805 ;; Auto vars:     Size  Location     Type
  5806 ;;  delay           2   32[COMRAM] int 
  5807 ;;  dark            2   26[COMRAM] int 
  5808 ;;  bright          2   24[COMRAM] int 
  5809 ;;  i               2   36[COMRAM] int 
  5810 ;;  arrow_i         2   34[COMRAM] int 
  5811 ;;  arrow_speed     2   30[COMRAM] int 
  5812 ;;  stop_arrow      2   28[COMRAM] int 
  5813 ;;  cycle           2   22[COMRAM] int 
  5814 ;; Return value:  Size  Location     Type
  5815 ;;                  1    wreg      void 
  5816 ;; Registers used:
  5817 ;;		wreg, fsr2l, fsr2h, status,2, status,0
  5818 ;; Tracked objects:
  5819 ;;		On entry : 0/0
  5820 ;;		On exit  : 0/0
  5821 ;;		Unchanged: 0/0
  5822 ;; Data sizes:     COMRAM   BANK0   BANK1   BANK2   BANK3   BANK4   BANK5
  5823 ;;      Params:         0       0       0       0       0       0       0
  5824 ;;      Locals:        16       0       0       0       0       0       0
  5825 ;;      Temps:          4       0       0       0       0       0       0
  5826 ;;      Totals:        20       0       0       0       0       0       0
  5827 ;;Total ram usage:       20 bytes
  5828 ;; Hardware stack levels used:    1
  5829 ;; Hardware stack levels required when called:    2
  5830 ;; This function calls:
  5831 ;;		Nothing
  5832 ;; This function is called by:
  5833 ;;		_main
  5834 ;; This function uses a non-reentrant model
  5835 ;;
  5836                           
  5837                           	psect	text9
  5838  000D10                     __ptext9:
  5839                           	opt stack 0
  5840  000D10                     _mode_TransLove:
  5841                           	opt stack 28
  5842                           
  5843                           ;main2.c: 867: int arrow_speed = 3;
  5844                           
  5845                           ;incstack = 0
  5846  000D10  0E00               	movlw	0
  5847  000D12  6E20               	movwf	mode_TransLove@arrow_speed+1,c
  5848  000D14  0E03               	movlw	3
  5849  000D16  6E1F               	movwf	mode_TransLove@arrow_speed,c
  5850                           
  5851                           ;main2.c: 868: int stop_arrow = 120;
  5852  000D18  0E00               	movlw	0
  5853  000D1A  6E1E               	movwf	mode_TransLove@stop_arrow+1,c
  5854  000D1C  0E78               	movlw	120
  5855  000D1E  6E1D               	movwf	mode_TransLove@stop_arrow,c
  5856                           
  5857                           ;main2.c: 869: int arrow_i = -15;
  5858  000D20  0EFF               	movlw	255
  5859  000D22  6E24               	movwf	mode_TransLove@arrow_i+1,c
  5860  000D24  0EF1               	movlw	241
  5861  000D26  6E23               	movwf	mode_TransLove@arrow_i,c
  5862                           
  5863                           ;main2.c: 870: int cycle = 666;
  5864  000D28  0E02               	movlw	2
  5865  000D2A  6E18               	movwf	mode_TransLove@cycle+1,c
  5866  000D2C  0E9A               	movlw	154
  5867  000D2E  6E17               	movwf	mode_TransLove@cycle,c
  5868                           
  5869                           ;main2.c: 871: while(cycle--) {
  5870  000D30  D287               	goto	l390
  5871  000D32                     
  5872                           ;main2.c: 872: for(int i = 0; i < 100; ++i) {
  5873  000D32  0E00               	movlw	0
  5874  000D34  6E26               	movwf	mode_TransLove@i+1,c
  5875  000D36  0E00               	movlw	0
  5876  000D38  6E25               	movwf	mode_TransLove@i,c
  5877  000D3A  BE26               	btfsc	mode_TransLove@i+1,7,c
  5878  000D3C  D008               	goto	l353
  5879  000D3E  5026               	movf	mode_TransLove@i+1,w,c
  5880  000D40  E105               	bnz	u3380
  5881  000D42  0E64               	movlw	100
  5882  000D44  5C25               	subwf	mode_TransLove@i,w,c
  5883  000D46  B0D8               	btfsc	status,0,c
  5884  000D48  D24B               	goto	u3660
  5885  000D4A  D001               	goto	l353
  5886  000D4C                     u3380:
  5887  000D4C  D249               	goto	u3660
  5888  000D4E                     l353:
  5889                           
  5890                           ;main2.c: 873: int delay = 0;
  5891  000D4E  0E00               	movlw	0
  5892  000D50  6E22               	movwf	mode_TransLove@delay+1,c
  5893  000D52  0E00               	movlw	0
  5894  000D54  6E21               	movwf	mode_TransLove@delay,c
  5895                           
  5896                           ;main2.c: 874: switch(i) {
  5897  000D56  D02D               	goto	l355
  5898  000D58                     
  5899                           ;main2.c: 876: delay += 4;
  5900  000D58  0E04               	movlw	4
  5901  000D5A  2621               	addwf	mode_TransLove@delay,f,c
  5902  000D5C  0E00               	movlw	0
  5903  000D5E  2222               	addwfc	mode_TransLove@delay+1,f,c
  5904  000D60                     l357:
  5905                           
  5906                           ;main2.c: 878: delay += 4;
  5907  000D60  0E04               	movlw	4
  5908  000D62  2621               	addwf	mode_TransLove@delay,f,c
  5909  000D64  0E00               	movlw	0
  5910  000D66  2222               	addwfc	mode_TransLove@delay+1,f,c
  5911  000D68                     l358:
  5912                           
  5913                           ;main2.c: 880: delay += 4;
  5914  000D68  0E04               	movlw	4
  5915  000D6A  2621               	addwf	mode_TransLove@delay,f,c
  5916  000D6C  0E00               	movlw	0
  5917  000D6E  2222               	addwfc	mode_TransLove@delay+1,f,c
  5918  000D70                     l359:
  5919                           
  5920                           ;main2.c: 882: delay += 4;
  5921  000D70  0E04               	movlw	4
  5922  000D72  2621               	addwf	mode_TransLove@delay,f,c
  5923  000D74  0E00               	movlw	0
  5924  000D76  2222               	addwfc	mode_TransLove@delay+1,f,c
  5925  000D78                     l360:
  5926                           
  5927                           ;main2.c: 884: delay += 4;
  5928  000D78  0E04               	movlw	4
  5929  000D7A  2621               	addwf	mode_TransLove@delay,f,c
  5930  000D7C  0E00               	movlw	0
  5931  000D7E  2222               	addwfc	mode_TransLove@delay+1,f,c
  5932  000D80                     l361:
  5933                           
  5934                           ;main2.c: 886: delay += 4;
  5935  000D80  0E04               	movlw	4
  5936  000D82  2621               	addwf	mode_TransLove@delay,f,c
  5937  000D84  0E00               	movlw	0
  5938  000D86  2222               	addwfc	mode_TransLove@delay+1,f,c
  5939  000D88                     l362:
  5940                           
  5941                           ;main2.c: 888: delay += 4;
  5942  000D88  0E04               	movlw	4
  5943  000D8A  2621               	addwf	mode_TransLove@delay,f,c
  5944  000D8C  0E00               	movlw	0
  5945  000D8E  2222               	addwfc	mode_TransLove@delay+1,f,c
  5946  000D90                     l363:
  5947                           
  5948                           ;main2.c: 890: delay += 4;
  5949  000D90  0E04               	movlw	4
  5950  000D92  2621               	addwf	mode_TransLove@delay,f,c
  5951  000D94  0E00               	movlw	0
  5952  000D96  2222               	addwfc	mode_TransLove@delay+1,f,c
  5953  000D98                     l364:
  5954                           
  5955                           ;main2.c: 892: delay += 4;
  5956  000D98  0E04               	movlw	4
  5957  000D9A  2621               	addwf	mode_TransLove@delay,f,c
  5958  000D9C  0E00               	movlw	0
  5959  000D9E  2222               	addwfc	mode_TransLove@delay+1,f,c
  5960  000DA0                     l2908:
  5961  000DA0  0621               	decf	mode_TransLove@delay,f,c
  5962  000DA2  A0D8               	btfss	status,0,c
  5963  000DA4  0622               	decf	mode_TransLove@delay+1,f,c
  5964  000DA6  2821               	incf	mode_TransLove@delay,w,c
  5965  000DA8  E1FB               	bnz	l2908
  5966  000DAA  2822               	incf	mode_TransLove@delay+1,w,c
  5967  000DAC  B4D8               	btfsc	status,2,c
  5968  000DAE  D025               	goto	l368
  5969  000DB0  D7F7               	goto	l366
  5970  000DB2                     l355:
  5971  000DB2  C025  F013         	movff	mode_TransLove@i,??_mode_TransLove
  5972  000DB6  C026  F014         	movff	mode_TransLove@i+1,??_mode_TransLove+1
  5973                           
  5974                           ; Switch on 2 bytes has been partitioned into a top level switch of size 1, and 1 sub-sw
      +                          itches
  5975                           ; Switch size 1, requested type "space"
  5976                           ; Number of cases is 1, Range of values is 0 to 0
  5977                           ; switch strategies available:
  5978                           ; Name         Instructions Cycles
  5979                           ; simple_byte            4     3 (average)
  5980                           ;	Chosen strategy is simple_byte
  5981  000DBA  5014               	movf	??_mode_TransLove+1,w,c
  5982  000DBC  0A00               	xorlw	0	; case 0
  5983  000DBE  A4D8               	btfss	status,2,c
  5984  000DC0  D01C               	goto	l368
  5985                           
  5986                           ; Switch size 1, requested type "space"
  5987                           ; Number of cases is 9, Range of values is 10 to 58
  5988                           ; switch strategies available:
  5989                           ; Name         Instructions Cycles
  5990                           ; simple_byte           28    15 (average)
  5991                           ;	Chosen strategy is simple_byte
  5992  000DC2  5013               	movf	??_mode_TransLove,w,c
  5993  000DC4  0A0A               	xorlw	10	; case 10
  5994  000DC6  B4D8               	btfsc	status,2,c
  5995  000DC8  D7C7               	goto	l356
  5996  000DCA  0A1A               	xorlw	26	; case 16
  5997  000DCC  B4D8               	btfsc	status,2,c
  5998  000DCE  D7C8               	goto	l357
  5999  000DD0  0A06               	xorlw	6	; case 22
  6000  000DD2  B4D8               	btfsc	status,2,c
  6001  000DD4  D7C9               	goto	l358
  6002  000DD6  0A0A               	xorlw	10	; case 28
  6003  000DD8  B4D8               	btfsc	status,2,c
  6004  000DDA  D7CA               	goto	l359
  6005  000DDC  0A3E               	xorlw	62	; case 34
  6006  000DDE  B4D8               	btfsc	status,2,c
  6007  000DE0  D7CB               	goto	l360
  6008  000DE2  0A0A               	xorlw	10	; case 40
  6009  000DE4  B4D8               	btfsc	status,2,c
  6010  000DE6  D7CC               	goto	l361
  6011  000DE8  0A06               	xorlw	6	; case 46
  6012  000DEA  B4D8               	btfsc	status,2,c
  6013  000DEC  D7CD               	goto	l362
  6014  000DEE  0A1A               	xorlw	26	; case 52
  6015  000DF0  B4D8               	btfsc	status,2,c
  6016  000DF2  D7CE               	goto	l363
  6017  000DF4  0A0E               	xorlw	14	; case 58
  6018  000DF6  B4D8               	btfsc	status,2,c
  6019  000DF8  D7CF               	goto	l364
  6020  000DFA                     l368:
  6021                           
  6022                           ;main2.c: 895: if(i < 20 && i >= 15)
  6023  000DFA  BE26               	btfsc	mode_TransLove@i+1,7,c
  6024  000DFC  D006               	goto	u3400
  6025  000DFE  5026               	movf	mode_TransLove@i+1,w,c
  6026  000E00  E120               	bnz	l2918
  6027  000E02  0E14               	movlw	20
  6028  000E04  5C25               	subwf	mode_TransLove@i,w,c
  6029  000E06  B0D8               	btfsc	status,0,c
  6030  000E08  D01C               	goto	l369
  6031  000E0A                     u3400:
  6032  000E0A  BE26               	btfsc	mode_TransLove@i+1,7,c
  6033  000E0C  D01A               	goto	l369
  6034  000E0E  5026               	movf	mode_TransLove@i+1,w,c
  6035  000E10  E104               	bnz	u3410
  6036  000E12  0E0F               	movlw	15
  6037  000E14  5C25               	subwf	mode_TransLove@i,w,c
  6038  000E16  A0D8               	btfss	status,0,c
  6039  000E18  D014               	goto	l369
  6040  000E1A                     u3410:
  6041                           
  6042                           ;main2.c: 896: LATA |= T[i - 15];
  6043  000E1A  0EF1               	movlw	241
  6044  000E1C  6E13               	movwf	??_mode_TransLove& (0+255),c
  6045  000E1E  0EFF               	movlw	255
  6046  000E20  6E14               	movwf	(??_mode_TransLove+1)& (0+255),c
  6047  000E22  C025  F015         	movff	mode_TransLove@i,??_mode_TransLove+2
  6048  000E26  C026  F016         	movff	mode_TransLove@i+1,??_mode_TransLove+3
  6049  000E2A  5013               	movf	??_mode_TransLove,w,c
  6050  000E2C  2615               	addwf	??_mode_TransLove+2,f,c
  6051  000E2E  5014               	movf	??_mode_TransLove+1,w,c
  6052  000E30  2216               	addwfc	??_mode_TransLove+3,f,c
  6053  000E32  0E5C               	movlw	low _T
  6054  000E34  2415               	addwf	??_mode_TransLove+2,w,c
  6055  000E36  6ED9               	movwf	fsr2l,c
  6056  000E38  0E00               	movlw	high _T
  6057  000E3A  2016               	addwfc	??_mode_TransLove+3,w,c
  6058  000E3C  6EDA               	movwf	fsr2h,c
  6059  000E3E  50DF               	movf	indf2,w,c
  6060  000E40  1289               	iorwf	3977,f,c	;volatile
  6061  000E42                     l369:
  6062  000E42                     l2918:
  6063                           
  6064                           ;main2.c: 897: if(i < 26 && i >= 21)
  6065  000E42  BE26               	btfsc	mode_TransLove@i+1,7,c
  6066  000E44  D006               	goto	u3420
  6067  000E46  5026               	movf	mode_TransLove@i+1,w,c
  6068  000E48  E120               	bnz	l2924
  6069  000E4A  0E1A               	movlw	26
  6070  000E4C  5C25               	subwf	mode_TransLove@i,w,c
  6071  000E4E  B0D8               	btfsc	status,0,c
  6072  000E50  D01C               	goto	l370
  6073  000E52                     u3420:
  6074  000E52  BE26               	btfsc	mode_TransLove@i+1,7,c
  6075  000E54  D01A               	goto	l370
  6076  000E56  5026               	movf	mode_TransLove@i+1,w,c
  6077  000E58  E104               	bnz	u3430
  6078  000E5A  0E15               	movlw	21
  6079  000E5C  5C25               	subwf	mode_TransLove@i,w,c
  6080  000E5E  A0D8               	btfss	status,0,c
  6081  000E60  D014               	goto	l370
  6082  000E62                     u3430:
  6083                           
  6084                           ;main2.c: 898: LATA |= R[i - 21];
  6085  000E62  0EEB               	movlw	235
  6086  000E64  6E13               	movwf	??_mode_TransLove& (0+255),c
  6087  000E66  0EFF               	movlw	255
  6088  000E68  6E14               	movwf	(??_mode_TransLove+1)& (0+255),c
  6089  000E6A  C025  F015         	movff	mode_TransLove@i,??_mode_TransLove+2
  6090  000E6E  C026  F016         	movff	mode_TransLove@i+1,??_mode_TransLove+3
  6091  000E72  5013               	movf	??_mode_TransLove,w,c
  6092  000E74  2615               	addwf	??_mode_TransLove+2,f,c
  6093  000E76  5014               	movf	??_mode_TransLove+1,w,c
  6094  000E78  2216               	addwfc	??_mode_TransLove+3,f,c
  6095  000E7A  0E57               	movlw	low _R
  6096  000E7C  2415               	addwf	??_mode_TransLove+2,w,c
  6097  000E7E  6ED9               	movwf	fsr2l,c
  6098  000E80  0E00               	movlw	high _R
  6099  000E82  2016               	addwfc	??_mode_TransLove+3,w,c
  6100  000E84  6EDA               	movwf	fsr2h,c
  6101  000E86  50DF               	movf	indf2,w,c
  6102  000E88  1289               	iorwf	3977,f,c	;volatile
  6103  000E8A                     l370:
  6104  000E8A                     l2924:
  6105                           
  6106                           ;main2.c: 899: if(i < 32 && i >= 27)
  6107  000E8A  BE26               	btfsc	mode_TransLove@i+1,7,c
  6108  000E8C  D006               	goto	u3440
  6109  000E8E  5026               	movf	mode_TransLove@i+1,w,c
  6110  000E90  E120               	bnz	l2930
  6111  000E92  0E20               	movlw	32
  6112  000E94  5C25               	subwf	mode_TransLove@i,w,c
  6113  000E96  B0D8               	btfsc	status,0,c
  6114  000E98  D01C               	goto	l371
  6115  000E9A                     u3440:
  6116  000E9A  BE26               	btfsc	mode_TransLove@i+1,7,c
  6117  000E9C  D01A               	goto	l371
  6118  000E9E  5026               	movf	mode_TransLove@i+1,w,c
  6119  000EA0  E104               	bnz	u3450
  6120  000EA2  0E1B               	movlw	27
  6121  000EA4  5C25               	subwf	mode_TransLove@i,w,c
  6122  000EA6  A0D8               	btfss	status,0,c
  6123  000EA8  D014               	goto	l371
  6124  000EAA                     u3450:
  6125                           
  6126                           ;main2.c: 900: LATA |= A[i - 27];
  6127  000EAA  0EE5               	movlw	229
  6128  000EAC  6E13               	movwf	??_mode_TransLove& (0+255),c
  6129  000EAE  0EFF               	movlw	255
  6130  000EB0  6E14               	movwf	(??_mode_TransLove+1)& (0+255),c
  6131  000EB2  C025  F015         	movff	mode_TransLove@i,??_mode_TransLove+2
  6132  000EB6  C026  F016         	movff	mode_TransLove@i+1,??_mode_TransLove+3
  6133  000EBA  5013               	movf	??_mode_TransLove,w,c
  6134  000EBC  2615               	addwf	??_mode_TransLove+2,f,c
  6135  000EBE  5014               	movf	??_mode_TransLove+1,w,c
  6136  000EC0  2216               	addwfc	??_mode_TransLove+3,f,c
  6137  000EC2  0E52               	movlw	low _A
  6138  000EC4  2415               	addwf	??_mode_TransLove+2,w,c
  6139  000EC6  6ED9               	movwf	fsr2l,c
  6140  000EC8  0E00               	movlw	high _A
  6141  000ECA  2016               	addwfc	??_mode_TransLove+3,w,c
  6142  000ECC  6EDA               	movwf	fsr2h,c
  6143  000ECE  50DF               	movf	indf2,w,c
  6144  000ED0  1289               	iorwf	3977,f,c	;volatile
  6145  000ED2                     l371:
  6146  000ED2                     l2930:
  6147                           
  6148                           ;main2.c: 901: if(i >= 33 && i < 38)
  6149  000ED2  BE26               	btfsc	mode_TransLove@i+1,7,c
  6150  000ED4  D022               	goto	l372
  6151  000ED6  5026               	movf	mode_TransLove@i+1,w,c
  6152  000ED8  E104               	bnz	u3460
  6153  000EDA  0E21               	movlw	33
  6154  000EDC  5C25               	subwf	mode_TransLove@i,w,c
  6155  000EDE  A0D8               	btfss	status,0,c
  6156  000EE0  D01C               	goto	l372
  6157  000EE2                     u3460:
  6158  000EE2  BE26               	btfsc	mode_TransLove@i+1,7,c
  6159  000EE4  D006               	goto	u3470
  6160  000EE6  5026               	movf	mode_TransLove@i+1,w,c
  6161  000EE8  E118               	bnz	l2936
  6162  000EEA  0E26               	movlw	38
  6163  000EEC  5C25               	subwf	mode_TransLove@i,w,c
  6164  000EEE  B0D8               	btfsc	status,0,c
  6165  000EF0  D014               	goto	l372
  6166  000EF2                     u3470:
  6167                           
  6168                           ;main2.c: 902: LATA |= N[i - 33];
  6169  000EF2  0EDF               	movlw	223
  6170  000EF4  6E13               	movwf	??_mode_TransLove& (0+255),c
  6171  000EF6  0EFF               	movlw	255
  6172  000EF8  6E14               	movwf	(??_mode_TransLove+1)& (0+255),c
  6173  000EFA  C025  F015         	movff	mode_TransLove@i,??_mode_TransLove+2
  6174  000EFE  C026  F016         	movff	mode_TransLove@i+1,??_mode_TransLove+3
  6175  000F02  5013               	movf	??_mode_TransLove,w,c
  6176  000F04  2615               	addwf	??_mode_TransLove+2,f,c
  6177  000F06  5014               	movf	??_mode_TransLove+1,w,c
  6178  000F08  2216               	addwfc	??_mode_TransLove+3,f,c
  6179  000F0A  0E4D               	movlw	low _N
  6180  000F0C  2415               	addwf	??_mode_TransLove+2,w,c
  6181  000F0E  6ED9               	movwf	fsr2l,c
  6182  000F10  0E00               	movlw	high _N
  6183  000F12  2016               	addwfc	??_mode_TransLove+3,w,c
  6184  000F14  6EDA               	movwf	fsr2h,c
  6185  000F16  50DF               	movf	indf2,w,c
  6186  000F18  1289               	iorwf	3977,f,c	;volatile
  6187  000F1A                     l372:
  6188  000F1A                     l2936:
  6189                           
  6190                           ;main2.c: 903: if(i < 44 && i >= 39)
  6191  000F1A  BE26               	btfsc	mode_TransLove@i+1,7,c
  6192  000F1C  D006               	goto	u3480
  6193  000F1E  5026               	movf	mode_TransLove@i+1,w,c
  6194  000F20  E120               	bnz	l2942
  6195  000F22  0E2C               	movlw	44
  6196  000F24  5C25               	subwf	mode_TransLove@i,w,c
  6197  000F26  B0D8               	btfsc	status,0,c
  6198  000F28  D01C               	goto	l373
  6199  000F2A                     u3480:
  6200  000F2A  BE26               	btfsc	mode_TransLove@i+1,7,c
  6201  000F2C  D01A               	goto	l373
  6202  000F2E  5026               	movf	mode_TransLove@i+1,w,c
  6203  000F30  E104               	bnz	u3490
  6204  000F32  0E27               	movlw	39
  6205  000F34  5C25               	subwf	mode_TransLove@i,w,c
  6206  000F36  A0D8               	btfss	status,0,c
  6207  000F38  D014               	goto	l373
  6208  000F3A                     u3490:
  6209                           
  6210                           ;main2.c: 904: LATA |= S[i - 39];
  6211  000F3A  0ED9               	movlw	217
  6212  000F3C  6E13               	movwf	??_mode_TransLove& (0+255),c
  6213  000F3E  0EFF               	movlw	255
  6214  000F40  6E14               	movwf	(??_mode_TransLove+1)& (0+255),c
  6215  000F42  C025  F015         	movff	mode_TransLove@i,??_mode_TransLove+2
  6216  000F46  C026  F016         	movff	mode_TransLove@i+1,??_mode_TransLove+3
  6217  000F4A  5013               	movf	??_mode_TransLove,w,c
  6218  000F4C  2615               	addwf	??_mode_TransLove+2,f,c
  6219  000F4E  5014               	movf	??_mode_TransLove+1,w,c
  6220  000F50  2216               	addwfc	??_mode_TransLove+3,f,c
  6221  000F52  0EB2               	movlw	low _S
  6222  000F54  2415               	addwf	??_mode_TransLove+2,w,c
  6223  000F56  6ED9               	movwf	fsr2l,c
  6224  000F58  0E00               	movlw	high _S
  6225  000F5A  2016               	addwfc	??_mode_TransLove+3,w,c
  6226  000F5C  6EDA               	movwf	fsr2h,c
  6227  000F5E  50DF               	movf	indf2,w,c
  6228  000F60  1289               	iorwf	3977,f,c	;volatile
  6229  000F62                     l373:
  6230  000F62                     l2942:
  6231                           
  6232                           ;main2.c: 905: if(i >= 45 && i < 50)
  6233  000F62  BE26               	btfsc	mode_TransLove@i+1,7,c
  6234  000F64  D022               	goto	l374
  6235  000F66  5026               	movf	mode_TransLove@i+1,w,c
  6236  000F68  E104               	bnz	u3500
  6237  000F6A  0E2D               	movlw	45
  6238  000F6C  5C25               	subwf	mode_TransLove@i,w,c
  6239  000F6E  A0D8               	btfss	status,0,c
  6240  000F70  D01C               	goto	l374
  6241  000F72                     u3500:
  6242  000F72  BE26               	btfsc	mode_TransLove@i+1,7,c
  6243  000F74  D006               	goto	u3510
  6244  000F76  5026               	movf	mode_TransLove@i+1,w,c
  6245  000F78  E118               	bnz	l2948
  6246  000F7A  0E32               	movlw	50
  6247  000F7C  5C25               	subwf	mode_TransLove@i,w,c
  6248  000F7E  B0D8               	btfsc	status,0,c
  6249  000F80  D014               	goto	l374
  6250  000F82                     u3510:
  6251                           
  6252                           ;main2.c: 906: LATA |= L[i - 45];
  6253  000F82  0ED3               	movlw	211
  6254  000F84  6E13               	movwf	??_mode_TransLove& (0+255),c
  6255  000F86  0EFF               	movlw	255
  6256  000F88  6E14               	movwf	(??_mode_TransLove+1)& (0+255),c
  6257  000F8A  C025  F015         	movff	mode_TransLove@i,??_mode_TransLove+2
  6258  000F8E  C026  F016         	movff	mode_TransLove@i+1,??_mode_TransLove+3
  6259  000F92  5013               	movf	??_mode_TransLove,w,c
  6260  000F94  2615               	addwf	??_mode_TransLove+2,f,c
  6261  000F96  5014               	movf	??_mode_TransLove+1,w,c
  6262  000F98  2216               	addwfc	??_mode_TransLove+3,f,c
  6263  000F9A  0EAD               	movlw	low _L
  6264  000F9C  2415               	addwf	??_mode_TransLove+2,w,c
  6265  000F9E  6ED9               	movwf	fsr2l,c
  6266  000FA0  0E00               	movlw	high _L
  6267  000FA2  2016               	addwfc	??_mode_TransLove+3,w,c
  6268  000FA4  6EDA               	movwf	fsr2h,c
  6269  000FA6  50DF               	movf	indf2,w,c
  6270  000FA8  1289               	iorwf	3977,f,c	;volatile
  6271  000FAA                     l374:
  6272  000FAA                     l2948:
  6273                           
  6274                           ;main2.c: 907: if(i >= 51 && i < 56)
  6275  000FAA  BE26               	btfsc	mode_TransLove@i+1,7,c
  6276  000FAC  D022               	goto	l375
  6277  000FAE  5026               	movf	mode_TransLove@i+1,w,c
  6278  000FB0  E104               	bnz	u3520
  6279  000FB2  0E33               	movlw	51
  6280  000FB4  5C25               	subwf	mode_TransLove@i,w,c
  6281  000FB6  A0D8               	btfss	status,0,c
  6282  000FB8  D01C               	goto	l375
  6283  000FBA                     u3520:
  6284  000FBA  BE26               	btfsc	mode_TransLove@i+1,7,c
  6285  000FBC  D006               	goto	u3530
  6286  000FBE  5026               	movf	mode_TransLove@i+1,w,c
  6287  000FC0  E118               	bnz	l2954
  6288  000FC2  0E38               	movlw	56
  6289  000FC4  5C25               	subwf	mode_TransLove@i,w,c
  6290  000FC6  B0D8               	btfsc	status,0,c
  6291  000FC8  D014               	goto	l375
  6292  000FCA                     u3530:
  6293                           
  6294                           ;main2.c: 908: LATA |= O[i - 51];
  6295  000FCA  0ECD               	movlw	205
  6296  000FCC  6E13               	movwf	??_mode_TransLove& (0+255),c
  6297  000FCE  0EFF               	movlw	255
  6298  000FD0  6E14               	movwf	(??_mode_TransLove+1)& (0+255),c
  6299  000FD2  C025  F015         	movff	mode_TransLove@i,??_mode_TransLove+2
  6300  000FD6  C026  F016         	movff	mode_TransLove@i+1,??_mode_TransLove+3
  6301  000FDA  5013               	movf	??_mode_TransLove,w,c
  6302  000FDC  2615               	addwf	??_mode_TransLove+2,f,c
  6303  000FDE  5014               	movf	??_mode_TransLove+1,w,c
  6304  000FE0  2216               	addwfc	??_mode_TransLove+3,f,c
  6305  000FE2  0EA8               	movlw	low _O
  6306  000FE4  2415               	addwf	??_mode_TransLove+2,w,c
  6307  000FE6  6ED9               	movwf	fsr2l,c
  6308  000FE8  0E00               	movlw	high _O
  6309  000FEA  2016               	addwfc	??_mode_TransLove+3,w,c
  6310  000FEC  6EDA               	movwf	fsr2h,c
  6311  000FEE  50DF               	movf	indf2,w,c
  6312  000FF0  1289               	iorwf	3977,f,c	;volatile
  6313  000FF2                     l375:
  6314  000FF2                     l2954:
  6315                           
  6316                           ;main2.c: 909: if(i >= 57 && i < 62)
  6317  000FF2  BE26               	btfsc	mode_TransLove@i+1,7,c
  6318  000FF4  D022               	goto	l376
  6319  000FF6  5026               	movf	mode_TransLove@i+1,w,c
  6320  000FF8  E104               	bnz	u3540
  6321  000FFA  0E39               	movlw	57
  6322  000FFC  5C25               	subwf	mode_TransLove@i,w,c
  6323  000FFE  A0D8               	btfss	status,0,c
  6324  001000  D01C               	goto	l376
  6325  001002                     u3540:
  6326  001002  BE26               	btfsc	mode_TransLove@i+1,7,c
  6327  001004  D006               	goto	u3550
  6328  001006  5026               	movf	mode_TransLove@i+1,w,c
  6329  001008  E118               	bnz	l2960
  6330  00100A  0E3E               	movlw	62
  6331  00100C  5C25               	subwf	mode_TransLove@i,w,c
  6332  00100E  B0D8               	btfsc	status,0,c
  6333  001010  D014               	goto	l376
  6334  001012                     u3550:
  6335                           
  6336                           ;main2.c: 910: LATA |= V[i - 57];
  6337  001012  0EC7               	movlw	199
  6338  001014  6E13               	movwf	??_mode_TransLove& (0+255),c
  6339  001016  0EFF               	movlw	255
  6340  001018  6E14               	movwf	(??_mode_TransLove+1)& (0+255),c
  6341  00101A  C025  F015         	movff	mode_TransLove@i,??_mode_TransLove+2
  6342  00101E  C026  F016         	movff	mode_TransLove@i+1,??_mode_TransLove+3
  6343  001022  5013               	movf	??_mode_TransLove,w,c
  6344  001024  2615               	addwf	??_mode_TransLove+2,f,c
  6345  001026  5014               	movf	??_mode_TransLove+1,w,c
  6346  001028  2216               	addwfc	??_mode_TransLove+3,f,c
  6347  00102A  0EA3               	movlw	low _V
  6348  00102C  2415               	addwf	??_mode_TransLove+2,w,c
  6349  00102E  6ED9               	movwf	fsr2l,c
  6350  001030  0E00               	movlw	high _V
  6351  001032  2016               	addwfc	??_mode_TransLove+3,w,c
  6352  001034  6EDA               	movwf	fsr2h,c
  6353  001036  50DF               	movf	indf2,w,c
  6354  001038  1289               	iorwf	3977,f,c	;volatile
  6355  00103A                     l376:
  6356  00103A                     l2960:
  6357                           
  6358                           ;main2.c: 911: if(i >= 63 && i < 68)
  6359  00103A  BE26               	btfsc	mode_TransLove@i+1,7,c
  6360  00103C  D022               	goto	l377
  6361  00103E  5026               	movf	mode_TransLove@i+1,w,c
  6362  001040  E104               	bnz	u3560
  6363  001042  0E3F               	movlw	63
  6364  001044  5C25               	subwf	mode_TransLove@i,w,c
  6365  001046  A0D8               	btfss	status,0,c
  6366  001048  D01C               	goto	l377
  6367  00104A                     u3560:
  6368  00104A  BE26               	btfsc	mode_TransLove@i+1,7,c
  6369  00104C  D006               	goto	u3570
  6370  00104E  5026               	movf	mode_TransLove@i+1,w,c
  6371  001050  E118               	bnz	l2966
  6372  001052  0E44               	movlw	68
  6373  001054  5C25               	subwf	mode_TransLove@i,w,c
  6374  001056  B0D8               	btfsc	status,0,c
  6375  001058  D014               	goto	l377
  6376  00105A                     u3570:
  6377                           
  6378                           ;main2.c: 912: LATA |= E[i - 63];
  6379  00105A  0EC1               	movlw	193
  6380  00105C  6E13               	movwf	??_mode_TransLove& (0+255),c
  6381  00105E  0EFF               	movlw	255
  6382  001060  6E14               	movwf	(??_mode_TransLove+1)& (0+255),c
  6383  001062  C025  F015         	movff	mode_TransLove@i,??_mode_TransLove+2
  6384  001066  C026  F016         	movff	mode_TransLove@i+1,??_mode_TransLove+3
  6385  00106A  5013               	movf	??_mode_TransLove,w,c
  6386  00106C  2615               	addwf	??_mode_TransLove+2,f,c
  6387  00106E  5014               	movf	??_mode_TransLove+1,w,c
  6388  001070  2216               	addwfc	??_mode_TransLove+3,f,c
  6389  001072  0E9E               	movlw	low _E
  6390  001074  2415               	addwf	??_mode_TransLove+2,w,c
  6391  001076  6ED9               	movwf	fsr2l,c
  6392  001078  0E00               	movlw	high _E
  6393  00107A  2016               	addwfc	??_mode_TransLove+3,w,c
  6394  00107C  6EDA               	movwf	fsr2h,c
  6395  00107E  50DF               	movf	indf2,w,c
  6396  001080  1289               	iorwf	3977,f,c	;volatile
  6397  001082                     l377:
  6398  001082                     l2966:
  6399                           
  6400                           ;main2.c: 913: if(i >= 88 && i < 98)
  6401  001082  BE26               	btfsc	mode_TransLove@i+1,7,c
  6402  001084  D022               	goto	l378
  6403  001086  5026               	movf	mode_TransLove@i+1,w,c
  6404  001088  E104               	bnz	u3580
  6405  00108A  0E58               	movlw	88
  6406  00108C  5C25               	subwf	mode_TransLove@i,w,c
  6407  00108E  A0D8               	btfss	status,0,c
  6408  001090  D01C               	goto	l378
  6409  001092                     u3580:
  6410  001092  BE26               	btfsc	mode_TransLove@i+1,7,c
  6411  001094  D006               	goto	u3590
  6412  001096  5026               	movf	mode_TransLove@i+1,w,c
  6413  001098  E118               	bnz	l2972
  6414  00109A  0E62               	movlw	98
  6415  00109C  5C25               	subwf	mode_TransLove@i,w,c
  6416  00109E  B0D8               	btfsc	status,0,c
  6417  0010A0  D014               	goto	l378
  6418  0010A2                     u3590:
  6419                           
  6420                           ;main2.c: 914: LATA |= love[i-88];
  6421  0010A2  0EA8               	movlw	168
  6422  0010A4  6E13               	movwf	??_mode_TransLove& (0+255),c
  6423  0010A6  0EFF               	movlw	255
  6424  0010A8  6E14               	movwf	(??_mode_TransLove+1)& (0+255),c
  6425  0010AA  C025  F015         	movff	mode_TransLove@i,??_mode_TransLove+2
  6426  0010AE  C026  F016         	movff	mode_TransLove@i+1,??_mode_TransLove+3
  6427  0010B2  5013               	movf	??_mode_TransLove,w,c
  6428  0010B4  2615               	addwf	??_mode_TransLove+2,f,c
  6429  0010B6  5014               	movf	??_mode_TransLove+1,w,c
  6430  0010B8  2216               	addwfc	??_mode_TransLove+3,f,c
  6431  0010BA  0E8C               	movlw	low _love
  6432  0010BC  2415               	addwf	??_mode_TransLove+2,w,c
  6433  0010BE  6ED9               	movwf	fsr2l,c
  6434  0010C0  0E00               	movlw	high _love
  6435  0010C2  2016               	addwfc	??_mode_TransLove+3,w,c
  6436  0010C4  6EDA               	movwf	fsr2h,c
  6437  0010C6  50DF               	movf	indf2,w,c
  6438  0010C8  1289               	iorwf	3977,f,c	;volatile
  6439  0010CA                     l378:
  6440  0010CA                     l2972:
  6441                           
  6442                           ;main2.c: 915: if(i >= arrow_i && i < arrow_i + 16)
  6443  0010CA  5023               	movf	mode_TransLove@arrow_i,w,c
  6444  0010CC  5C25               	subwf	mode_TransLove@i,w,c
  6445  0010CE  5026               	movf	mode_TransLove@i+1,w,c
  6446  0010D0  0A80               	xorlw	128
  6447  0010D2  6E13               	movwf	??_mode_TransLove& (0+255),c
  6448  0010D4  5024               	movf	mode_TransLove@arrow_i+1,w,c
  6449  0010D6  0A80               	xorlw	128
  6450  0010D8  5813               	subwfb	??_mode_TransLove& (0+255),w,c
  6451  0010DA  A0D8               	btfss	status,0,c
  6452  0010DC  D027               	goto	l379
  6453  0010DE  0E10               	movlw	16
  6454  0010E0  2423               	addwf	mode_TransLove@arrow_i,w,c
  6455  0010E2  6E13               	movwf	??_mode_TransLove& (0+255),c
  6456  0010E4  0E00               	movlw	0
  6457  0010E6  2024               	addwfc	mode_TransLove@arrow_i+1,w,c
  6458  0010E8  6E14               	movwf	(??_mode_TransLove+1)& (0+255),c
  6459  0010EA  5013               	movf	??_mode_TransLove,w,c
  6460  0010EC  5C25               	subwf	mode_TransLove@i,w,c
  6461  0010EE  5026               	movf	mode_TransLove@i+1,w,c
  6462  0010F0  0A80               	xorlw	128
  6463  0010F2  6E15               	movwf	(??_mode_TransLove+2)& (0+255),c
  6464  0010F4  5014               	movf	??_mode_TransLove+1,w,c
  6465  0010F6  0A80               	xorlw	128
  6466  0010F8  5815               	subwfb	(??_mode_TransLove+2)& (0+255),w,c
  6467  0010FA  B0D8               	btfsc	status,0,c
  6468  0010FC  D017               	goto	l379
  6469                           
  6470                           ;main2.c: 916: LATA |= arrow[i-arrow_i];
  6471  0010FE  C023  F013         	movff	mode_TransLove@arrow_i,??_mode_TransLove
  6472  001102  C024  F014         	movff	mode_TransLove@arrow_i+1,??_mode_TransLove+1
  6473  001106  1E13               	comf	??_mode_TransLove,f,c
  6474  001108  1E14               	comf	??_mode_TransLove+1,f,c
  6475  00110A  4A13               	infsnz	??_mode_TransLove,f,c
  6476  00110C  2A14               	incf	??_mode_TransLove+1,f,c
  6477  00110E  5025               	movf	mode_TransLove@i,w,c
  6478  001110  2613               	addwf	??_mode_TransLove,f,c
  6479  001112  5026               	movf	mode_TransLove@i+1,w,c
  6480  001114  2214               	addwfc	??_mode_TransLove+1,f,c
  6481  001116  90D8               	bcf	status,0,c
  6482  001118  3613               	rlcf	??_mode_TransLove,f,c
  6483  00111A  3614               	rlcf	??_mode_TransLove+1,f,c
  6484  00111C  0E00               	movlw	low _arrow
  6485  00111E  2413               	addwf	??_mode_TransLove,w,c
  6486  001120  6ED9               	movwf	fsr2l,c
  6487  001122  0E01               	movlw	high _arrow
  6488  001124  2014               	addwfc	??_mode_TransLove+1,w,c
  6489  001126  6EDA               	movwf	fsr2h,c
  6490  001128  50DF               	movf	indf2,w,c
  6491  00112A  1289               	iorwf	3977,f,c	;volatile
  6492  00112C                     l379:
  6493                           
  6494                           ;main2.c: 917: if(i >= arrow_i + 100 && i < arrow_i + 100 + 16)
  6495  00112C  0E64               	movlw	100
  6496  00112E  2423               	addwf	mode_TransLove@arrow_i,w,c
  6497  001130  6E13               	movwf	??_mode_TransLove& (0+255),c
  6498  001132  0E00               	movlw	0
  6499  001134  2024               	addwfc	mode_TransLove@arrow_i+1,w,c
  6500  001136  6E14               	movwf	(??_mode_TransLove+1)& (0+255),c
  6501  001138  5013               	movf	??_mode_TransLove,w,c
  6502  00113A  5C25               	subwf	mode_TransLove@i,w,c
  6503  00113C  5026               	movf	mode_TransLove@i+1,w,c
  6504  00113E  0A80               	xorlw	128
  6505  001140  6E15               	movwf	(??_mode_TransLove+2)& (0+255),c
  6506  001142  5014               	movf	??_mode_TransLove+1,w,c
  6507  001144  0A80               	xorlw	128
  6508  001146  5815               	subwfb	(??_mode_TransLove+2)& (0+255),w,c
  6509  001148  A0D8               	btfss	status,0,c
  6510  00114A  D029               	goto	l380
  6511  00114C  0E74               	movlw	116
  6512  00114E  2423               	addwf	mode_TransLove@arrow_i,w,c
  6513  001150  6E13               	movwf	??_mode_TransLove& (0+255),c
  6514  001152  0E00               	movlw	0
  6515  001154  2024               	addwfc	mode_TransLove@arrow_i+1,w,c
  6516  001156  6E14               	movwf	(??_mode_TransLove+1)& (0+255),c
  6517  001158  5013               	movf	??_mode_TransLove,w,c
  6518  00115A  5C25               	subwf	mode_TransLove@i,w,c
  6519  00115C  5026               	movf	mode_TransLove@i+1,w,c
  6520  00115E  0A80               	xorlw	128
  6521  001160  6E15               	movwf	(??_mode_TransLove+2)& (0+255),c
  6522  001162  5014               	movf	??_mode_TransLove+1,w,c
  6523  001164  0A80               	xorlw	128
  6524  001166  5815               	subwfb	(??_mode_TransLove+2)& (0+255),w,c
  6525  001168  B0D8               	btfsc	status,0,c
  6526  00116A  D019               	goto	l380
  6527                           
  6528                           ;main2.c: 918: LATA |= arrow[i-arrow_i-100];
  6529  00116C  0E64               	movlw	100
  6530  00116E  2423               	addwf	mode_TransLove@arrow_i,w,c
  6531  001170  6E13               	movwf	??_mode_TransLove& (0+255),c
  6532  001172  0E00               	movlw	0
  6533  001174  2024               	addwfc	mode_TransLove@arrow_i+1,w,c
  6534  001176  6E14               	movwf	(??_mode_TransLove+1)& (0+255),c
  6535  001178  1E13               	comf	??_mode_TransLove,f,c
  6536  00117A  1E14               	comf	??_mode_TransLove+1,f,c
  6537  00117C  4A13               	infsnz	??_mode_TransLove,f,c
  6538  00117E  2A14               	incf	??_mode_TransLove+1,f,c
  6539  001180  5025               	movf	mode_TransLove@i,w,c
  6540  001182  2613               	addwf	??_mode_TransLove,f,c
  6541  001184  5026               	movf	mode_TransLove@i+1,w,c
  6542  001186  2214               	addwfc	??_mode_TransLove+1,f,c
  6543  001188  90D8               	bcf	status,0,c
  6544  00118A  3613               	rlcf	??_mode_TransLove,f,c
  6545  00118C  3614               	rlcf	??_mode_TransLove+1,f,c
  6546  00118E  0E00               	movlw	low _arrow
  6547  001190  2413               	addwf	??_mode_TransLove,w,c
  6548  001192  6ED9               	movwf	fsr2l,c
  6549  001194  0E01               	movlw	high _arrow
  6550  001196  2014               	addwfc	??_mode_TransLove+1,w,c
  6551  001198  6EDA               	movwf	fsr2h,c
  6552  00119A  50DF               	movf	indf2,w,c
  6553  00119C  1289               	iorwf	3977,f,c	;volatile
  6554  00119E                     l380:
  6555                           
  6556                           ;main2.c: 919: int bright = 40;
  6557  00119E  0E00               	movlw	0
  6558  0011A0  6E1A               	movwf	mode_TransLove@bright+1,c
  6559  0011A2  0E28               	movlw	40
  6560  0011A4  6E19               	movwf	mode_TransLove@bright,c
  6561  0011A6                     l2986:
  6562  0011A6  0619               	decf	mode_TransLove@bright,f,c
  6563  0011A8  A0D8               	btfss	status,0,c
  6564  0011AA  061A               	decf	mode_TransLove@bright+1,f,c
  6565  0011AC  2819               	incf	mode_TransLove@bright,w,c
  6566  0011AE  E1FB               	bnz	l2986
  6567  0011B0  281A               	incf	mode_TransLove@bright+1,w,c
  6568  0011B2  A4D8               	btfss	status,2,c
  6569  0011B4  D7F8               	goto	l382
  6570                           
  6571                           ;main2.c: 921: LATA = 0;
  6572  0011B6  0E00               	movlw	0
  6573  0011B8  6E89               	movwf	3977,c	;volatile
  6574                           
  6575                           ;main2.c: 922: int dark = 40;
  6576  0011BA  0E00               	movlw	0
  6577  0011BC  6E1C               	movwf	mode_TransLove@dark+1,c
  6578  0011BE  0E28               	movlw	40
  6579  0011C0  6E1B               	movwf	mode_TransLove@dark,c
  6580  0011C2                     l2990:
  6581  0011C2  061B               	decf	mode_TransLove@dark,f,c
  6582  0011C4  A0D8               	btfss	status,0,c
  6583  0011C6  061C               	decf	mode_TransLove@dark+1,f,c
  6584  0011C8  281B               	incf	mode_TransLove@dark,w,c
  6585  0011CA  E1FB               	bnz	l2990
  6586  0011CC  281C               	incf	mode_TransLove@dark+1,w,c
  6587  0011CE  A4D8               	btfss	status,2,c
  6588  0011D0  D7F8               	goto	l385
  6589  0011D2  4A25               	infsnz	mode_TransLove@i,f,c
  6590  0011D4  2A26               	incf	mode_TransLove@i+1,f,c
  6591  0011D6  BE26               	btfsc	mode_TransLove@i+1,7,c
  6592  0011D8  D5BA               	goto	l353
  6593  0011DA  5026               	movf	mode_TransLove@i+1,w,c
  6594  0011DC  E101               	bnz	l2996
  6595  0011DE  D5B1               	goto	L13
  6596  0011E0                     u3660:
  6597  0011E0                     l2996:
  6598                           
  6599                           ;main2.c: 924: }
  6600                           ;main2.c: 926: if(arrow_i == 48)
  6601  0011E0  0E30               	movlw	48
  6602  0011E2  1823               	xorwf	mode_TransLove@arrow_i,w,c
  6603  0011E4  1024               	iorwf	mode_TransLove@arrow_i+1,w,c
  6604  0011E6  A4D8               	btfss	status,2,c
  6605  0011E8  D004               	goto	l387
  6606                           
  6607                           ;main2.c: 927: arrow_speed = 1;
  6608  0011EA  0E00               	movlw	0
  6609  0011EC  6E20               	movwf	mode_TransLove@arrow_speed+1,c
  6610  0011EE  0E01               	movlw	1
  6611  0011F0  6E1F               	movwf	mode_TransLove@arrow_speed,c
  6612  0011F2                     l387:
  6613                           
  6614                           ;main2.c: 929: if(arrow_i == 88-4)
  6615  0011F2  0E54               	movlw	84
  6616  0011F4  1823               	xorwf	mode_TransLove@arrow_i,w,c
  6617  0011F6  1024               	iorwf	mode_TransLove@arrow_i+1,w,c
  6618  0011F8  A4D8               	btfss	status,2,c
  6619  0011FA  D00A               	goto	l389
  6620                           
  6621                           ;main2.c: 930: if(--stop_arrow)
  6622  0011FC  061D               	decf	mode_TransLove@stop_arrow,f,c
  6623  0011FE  A0D8               	btfss	status,0,c
  6624  001200  061E               	decf	mode_TransLove@stop_arrow+1,f,c
  6625  001202  501D               	movf	mode_TransLove@stop_arrow,w,c
  6626  001204  101E               	iorwf	mode_TransLove@stop_arrow+1,w,c
  6627  001206  B4D8               	btfsc	status,2,c
  6628  001208  D003               	goto	l389
  6629                           
  6630                           ;main2.c: 931: --arrow_i;
  6631  00120A  0623               	decf	mode_TransLove@arrow_i,f,c
  6632  00120C  A0D8               	btfss	status,0,c
  6633  00120E  0624               	decf	mode_TransLove@arrow_i+1,f,c
  6634  001210                     l389:
  6635                           
  6636                           ;main2.c: 933: arrow_i += arrow_speed;
  6637  001210  501F               	movf	mode_TransLove@arrow_speed,w,c
  6638  001212  2623               	addwf	mode_TransLove@arrow_i,f,c
  6639  001214  5020               	movf	mode_TransLove@arrow_speed+1,w,c
  6640  001216  2224               	addwfc	mode_TransLove@arrow_i+1,f,c
  6641                           
  6642                           ;main2.c: 935: if(arrow_i > 100-15) {
  6643  001218  BE24               	btfsc	mode_TransLove@arrow_i+1,7,c
  6644  00121A  D012               	goto	l390
  6645  00121C  5024               	movf	mode_TransLove@arrow_i+1,w,c
  6646  00121E  E104               	bnz	u3700
  6647  001220  0E56               	movlw	86
  6648  001222  5C23               	subwf	mode_TransLove@arrow_i,w,c
  6649  001224  A0D8               	btfss	status,0,c
  6650  001226  D00C               	goto	l390
  6651  001228                     u3700:
  6652                           
  6653                           ;main2.c: 936: stop_arrow = 120;
  6654  001228  0E00               	movlw	0
  6655  00122A  6E1E               	movwf	mode_TransLove@stop_arrow+1,c
  6656  00122C  0E78               	movlw	120
  6657  00122E  6E1D               	movwf	mode_TransLove@stop_arrow,c
  6658                           
  6659                           ;main2.c: 937: arrow_i = -15;
  6660  001230  0EFF               	movlw	255
  6661  001232  6E24               	movwf	mode_TransLove@arrow_i+1,c
  6662  001234  0EF1               	movlw	241
  6663  001236  6E23               	movwf	mode_TransLove@arrow_i,c
  6664                           
  6665                           ;main2.c: 938: arrow_speed = 3;
  6666  001238  0E00               	movlw	0
  6667  00123A  6E20               	movwf	mode_TransLove@arrow_speed+1,c
  6668  00123C  0E03               	movlw	3
  6669  00123E  6E1F               	movwf	mode_TransLove@arrow_speed,c
  6670  001240                     l390:
  6671  001240  0617               	decf	mode_TransLove@cycle,f,c
  6672  001242  A0D8               	btfss	status,0,c
  6673  001244  0618               	decf	mode_TransLove@cycle+1,f,c
  6674  001246  2817               	incf	mode_TransLove@cycle,w,c
  6675  001248  E103               	bnz	u3711
  6676  00124A  2818               	incf	mode_TransLove@cycle+1,w,c
  6677  00124C  B4D8               	btfsc	status,2,c
  6678  00124E  0012               	return	
  6679  001250                     u3711:
  6680  001250  D570               	goto	l352
  6681  001252                     __end_of_mode_TransLove:
  6682                           	opt stack 0
  6683                           tblptru	equ	0xFF8
  6684                           tblptrh	equ	0xFF7
  6685                           tblptrl	equ	0xFF6
  6686                           tablat	equ	0xFF5
  6687                           prodh	equ	0xFF4
  6688                           prodl	equ	0xFF3
  6689                           intcon	equ	0xFF2
  6690                           postinc0	equ	0xFEE
  6691                           wreg	equ	0xFE8
  6692                           postdec1	equ	0xFE5
  6693                           plusw1	equ	0xFE3
  6694                           fsr1l	equ	0xFE1
  6695                           indf2	equ	0xFDF
  6696                           postinc2	equ	0xFDE
  6697                           postdec2	equ	0xFDD
  6698                           plusw2	equ	0xFDB
  6699                           fsr2h	equ	0xFDA
  6700                           fsr2l	equ	0xFD9
  6701                           status	equ	0xFD8
  6702                           
  6703 ;; *************** function _tc_int *****************
  6704 ;; Defined at:
  6705 ;;		line 1070 in file "main2.c"
  6706 ;; Parameters:    Size  Location     Type
  6707 ;;		None
  6708 ;; Auto vars:     Size  Location     Type
  6709 ;;		None
  6710 ;; Return value:  Size  Location     Type
  6711 ;;                  1    wreg      void 
  6712 ;; Registers used:
  6713 ;;		wreg, status,2, status,0, cstack
  6714 ;; Tracked objects:
  6715 ;;		On entry : 0/0
  6716 ;;		On exit  : 0/0
  6717 ;;		Unchanged: 0/0
  6718 ;; Data sizes:     COMRAM   BANK0   BANK1   BANK2   BANK3   BANK4   BANK5
  6719 ;;      Params:         0       0       0       0       0       0       0
  6720 ;;      Locals:         0       0       0       0       0       0       0
  6721 ;;      Temps:         18       0       0       0       0       0       0
  6722 ;;      Totals:        18       0       0       0       0       0       0
  6723 ;;Total ram usage:       18 bytes
  6724 ;; Hardware stack levels used:    1
  6725 ;; Hardware stack levels required when called:    1
  6726 ;; This function calls:
  6727 ;;		_update_time
  6728 ;; This function is called by:
  6729 ;;		Interrupt level 2
  6730 ;; This function uses a non-reentrant model
  6731 ;;
  6732                           
  6733                           	psect	intcode
  6734  000008                     __pintcode:
  6735                           	opt stack 0
  6736  000008                     _tc_int:
  6737                           	opt stack 26
  6738                           
  6739                           ;incstack = 0
  6740  000008  8269               	bsf	btemp,1,c	;set compiler interrupt flag (level 2)
  6741  00000A  ED4D  F00D         	call	int_func,f	;refresh shadow registers
  6742                           tblptru	equ	0xFF8
  6743                           tblptrh	equ	0xFF7
  6744                           tblptrl	equ	0xFF6
  6745                           tablat	equ	0xFF5
  6746                           prodh	equ	0xFF4
  6747                           prodl	equ	0xFF3
  6748                           intcon	equ	0xFF2
  6749                           postinc0	equ	0xFEE
  6750                           wreg	equ	0xFE8
  6751                           postdec1	equ	0xFE5
  6752                           plusw1	equ	0xFE3
  6753                           fsr1l	equ	0xFE1
  6754                           indf2	equ	0xFDF
  6755                           postinc2	equ	0xFDE
  6756                           postdec2	equ	0xFDD
  6757                           plusw2	equ	0xFDB
  6758                           fsr2h	equ	0xFDA
  6759                           fsr2l	equ	0xFD9
  6760                           status	equ	0xFD8
  6761                           
  6762                           	psect	intcode_body
  6763  001A9A                     __pintcode_body:
  6764                           	opt stack 26
  6765  001A9A                     int_func:
  6766                           	opt stack 26
  6767  001A9A  0006               	pop		; remove dummy address from shadow register refresh
  6768  001A9C  CFFA F001          	movff	pclath,??_tc_int
  6769  001AA0  CFFB F002          	movff	pclatu,??_tc_int+1
  6770  001AA4  CFE9 F003          	movff	fsr0l,??_tc_int+2
  6771  001AA8  CFEA F004          	movff	fsr0h,??_tc_int+3
  6772  001AAC  CFE1 F005          	movff	fsr1l,??_tc_int+4
  6773  001AB0  CFE2 F006          	movff	fsr1h,??_tc_int+5
  6774  001AB4  CFD9 F007          	movff	fsr2l,??_tc_int+6
  6775  001AB8  CFDA F008          	movff	fsr2h,??_tc_int+7
  6776  001ABC  CFF3 F009          	movff	prodl,??_tc_int+8
  6777  001AC0  CFF4 F00A          	movff	prodh,??_tc_int+9
  6778  001AC4  CFF6 F00B          	movff	tblptrl,??_tc_int+10
  6779  001AC8  CFF7 F00C          	movff	tblptrh,??_tc_int+11
  6780  001ACC  CFF8 F00D          	movff	tblptru,??_tc_int+12
  6781  001AD0  CFF5 F00E          	movff	tablat,??_tc_int+13
  6782  001AD4  C069  F00F         	movff	btemp,??_tc_int+14
  6783  001AD8  C06A  F010         	movff	btemp+1,??_tc_int+15
  6784  001ADC  C06B  F011         	movff	btemp+2,??_tc_int+16
  6785  001AE0  C06C  F012         	movff	btemp+3,??_tc_int+17
  6786                           
  6787                           ;main2.c: 1072: if(TMR1IE && TMR1IF) {
  6788  001AE4  B09D               	btfsc	3997,0,c	;volatile
  6789  001AE6  A09E               	btfss	3998,0,c	;volatile
  6790  001AE8  D012               	goto	i2l475
  6791                           
  6792                           ;main2.c: 1073: TMR1 = 15535;
  6793  001AEA  0E3C               	movlw	60
  6794  001AEC  6ECF               	movwf	4047,c	;volatile
  6795  001AEE  0EAF               	movlw	175
  6796  001AF0  6ECE               	movwf	4046,c	;volatile
  6797                           
  6798                           ;main2.c: 1074: TMR1IF=0;
  6799  001AF2  909E               	bcf	3998,0,c	;volatile
  6800                           
  6801                           ;main2.c: 1075: count++;
  6802  001AF4  4A65               	infsnz	_count,f,c
  6803  001AF6  2A66               	incf	_count+1,f,c
  6804                           
  6805                           ;main2.c: 1076: if(count == 5) {
  6806  001AF8  0E05               	movlw	5
  6807  001AFA  1865               	xorwf	_count,w,c
  6808  001AFC  1066               	iorwf	_count+1,w,c
  6809  001AFE  A4D8               	btfss	status,2,c
  6810  001B00  D006               	goto	i2l475
  6811                           
  6812                           ;main2.c: 1077: count = 0;
  6813  001B02  0E00               	movlw	0
  6814  001B04  6E66               	movwf	_count+1,c
  6815  001B06  0E00               	movlw	0
  6816  001B08  6E65               	movwf	_count,c
  6817                           
  6818                           ;main2.c: 1078: update_time();
  6819  001B0A  EC1D  F00F         	call	_update_time	;wreg free
  6820  001B0E                     i2l475:
  6821  001B0E  C012  F06C         	movff	??_tc_int+17,btemp+3
  6822  001B12  C011  F06B         	movff	??_tc_int+16,btemp+2
  6823  001B16  C010  F06A         	movff	??_tc_int+15,btemp+1
  6824  001B1A  C00F  F069         	movff	??_tc_int+14,btemp
  6825  001B1E  C00E  FFF5         	movff	??_tc_int+13,tablat
  6826  001B22  C00D  FFF8         	movff	??_tc_int+12,tblptru
  6827  001B26  C00C  FFF7         	movff	??_tc_int+11,tblptrh
  6828  001B2A  C00B  FFF6         	movff	??_tc_int+10,tblptrl
  6829  001B2E  C00A  FFF4         	movff	??_tc_int+9,prodh
  6830  001B32  C009  FFF3         	movff	??_tc_int+8,prodl
  6831  001B36  C008  FFDA         	movff	??_tc_int+7,fsr2h
  6832  001B3A  C007  FFD9         	movff	??_tc_int+6,fsr2l
  6833  001B3E  C006  FFE2         	movff	??_tc_int+5,fsr1h
  6834  001B42  C005  FFE1         	movff	??_tc_int+4,fsr1l
  6835  001B46  C004  FFEA         	movff	??_tc_int+3,fsr0h
  6836  001B4A  C003  FFE9         	movff	??_tc_int+2,fsr0l
  6837  001B4E  C002  FFFB         	movff	??_tc_int+1,pclatu
  6838  001B52  C001  FFFA         	movff	??_tc_int,pclath
  6839  001B56  9269               	bcf	btemp,1,c	;clear compiler interrupt flag (level 2)
  6840  001B58  0011               	retfie		f
  6841  001B5A                     __end_of_tc_int:
  6842                           	opt stack 0
  6843                           pclatu	equ	0xFFB
  6844                           pclath	equ	0xFFA
  6845                           tblptru	equ	0xFF8
  6846                           tblptrh	equ	0xFF7
  6847                           tblptrl	equ	0xFF6
  6848                           tablat	equ	0xFF5
  6849                           prodh	equ	0xFF4
  6850                           prodl	equ	0xFF3
  6851                           intcon	equ	0xFF2
  6852                           postinc0	equ	0xFEE
  6853                           fsr0h	equ	0xFEA
  6854                           fsr0l	equ	0xFE9
  6855                           wreg	equ	0xFE8
  6856                           postdec1	equ	0xFE5
  6857                           plusw1	equ	0xFE3
  6858                           fsr1h	equ	0xFE2
  6859                           fsr1l	equ	0xFE1
  6860                           indf2	equ	0xFDF
  6861                           postinc2	equ	0xFDE
  6862                           postdec2	equ	0xFDD
  6863                           plusw2	equ	0xFDB
  6864                           fsr2h	equ	0xFDA
  6865                           fsr2l	equ	0xFD9
  6866                           status	equ	0xFD8
  6867                           
  6868 ;; *************** function _update_time *****************
  6869 ;; Defined at:
  6870 ;;		line 1058 in file "main2.c"
  6871 ;; Parameters:    Size  Location     Type
  6872 ;;		None
  6873 ;; Auto vars:     Size  Location     Type
  6874 ;;		None
  6875 ;; Return value:  Size  Location     Type
  6876 ;;                  1    wreg      void 
  6877 ;; Registers used:
  6878 ;;		wreg, status,2, status,0
  6879 ;; Tracked objects:
  6880 ;;		On entry : 0/0
  6881 ;;		On exit  : 0/0
  6882 ;;		Unchanged: 0/0
  6883 ;; Data sizes:     COMRAM   BANK0   BANK1   BANK2   BANK3   BANK4   BANK5
  6884 ;;      Params:         0       0       0       0       0       0       0
  6885 ;;      Locals:         0       0       0       0       0       0       0
  6886 ;;      Temps:          0       0       0       0       0       0       0
  6887 ;;      Totals:         0       0       0       0       0       0       0
  6888 ;;Total ram usage:        0 bytes
  6889 ;; Hardware stack levels used:    1
  6890 ;; This function calls:
  6891 ;;		Nothing
  6892 ;; This function is called by:
  6893 ;;		_tc_int
  6894 ;; This function uses a non-reentrant model
  6895 ;;
  6896                           
  6897                           	psect	text11
  6898  001E3A                     __ptext11:
  6899                           	opt stack 0
  6900  001E3A                     _update_time:
  6901                           	opt stack 26
  6902                           
  6903                           ;main2.c: 1060: if(++seconds == 60) {
  6904                           
  6905                           ;incstack = 0
  6906  001E3A  4A63               	infsnz	_seconds,f,c
  6907  001E3C  2A64               	incf	_seconds+1,f,c
  6908  001E3E  0E3C               	movlw	60
  6909  001E40  1863               	xorwf	_seconds,w,c
  6910  001E42  1064               	iorwf	_seconds+1,w,c
  6911  001E44  A4D8               	btfss	status,2,c
  6912  001E46  0012               	return	
  6913                           
  6914                           ;main2.c: 1061: seconds = 0;
  6915  001E48  0E00               	movlw	0
  6916  001E4A  6E64               	movwf	_seconds+1,c
  6917  001E4C  0E00               	movlw	0
  6918  001E4E  6E63               	movwf	_seconds,c
  6919                           
  6920                           ;main2.c: 1062: if(++minutes==60) {
  6921  001E50  4A61               	infsnz	_minutes,f,c
  6922  001E52  2A62               	incf	_minutes+1,f,c
  6923  001E54  0E3C               	movlw	60
  6924  001E56  1861               	xorwf	_minutes,w,c
  6925  001E58  1062               	iorwf	_minutes+1,w,c
  6926  001E5A  A4D8               	btfss	status,2,c
  6927  001E5C  0012               	return	
  6928                           
  6929                           ;main2.c: 1063: minutes = 0;
  6930  001E5E  0E00               	movlw	0
  6931  001E60  6E62               	movwf	_minutes+1,c
  6932  001E62  0E00               	movlw	0
  6933  001E64  6E61               	movwf	_minutes,c
  6934                           
  6935                           ;main2.c: 1064: if(++hours == 24)
  6936  001E66  4A67               	infsnz	_hours,f,c
  6937  001E68  2A68               	incf	_hours+1,f,c
  6938  001E6A  0E18               	movlw	24
  6939  001E6C  1867               	xorwf	_hours,w,c
  6940  001E6E  1068               	iorwf	_hours+1,w,c
  6941  001E70  A4D8               	btfss	status,2,c
  6942  001E72  0012               	return	
  6943                           
  6944                           ;main2.c: 1065: hours = 0;
  6945  001E74  0E00               	movlw	0
  6946  001E76  6E68               	movwf	_hours+1,c
  6947  001E78  0E00               	movlw	0
  6948  001E7A  6E67               	movwf	_hours,c
  6949  001E7C  0012               	return	
  6950  001E7E                     __end_of_update_time:
  6951                           	opt stack 0
  6952  0000                     pclatu	equ	0xFFB
  6953                           pclath	equ	0xFFA
  6954                           tblptru	equ	0xFF8
  6955                           tblptrh	equ	0xFF7
  6956                           tblptrl	equ	0xFF6
  6957                           tablat	equ	0xFF5
  6958                           prodh	equ	0xFF4
  6959                           prodl	equ	0xFF3
  6960                           intcon	equ	0xFF2
  6961                           postinc0	equ	0xFEE
  6962                           fsr0h	equ	0xFEA
  6963                           fsr0l	equ	0xFE9
  6964                           wreg	equ	0xFE8
  6965                           postdec1	equ	0xFE5
  6966                           plusw1	equ	0xFE3
  6967                           fsr1h	equ	0xFE2
  6968                           fsr1l	equ	0xFE1
  6969                           indf2	equ	0xFDF
  6970                           postinc2	equ	0xFDE
  6971                           postdec2	equ	0xFDD
  6972                           plusw2	equ	0xFDB
  6973                           fsr2h	equ	0xFDA
  6974                           fsr2l	equ	0xFD9
  6975                           status	equ	0xFD8
  6976                           pclatu	equ	0xFFB
  6977                           pclath	equ	0xFFA
  6978                           tblptru	equ	0xFF8
  6979                           tblptrh	equ	0xFF7
  6980                           tblptrl	equ	0xFF6
  6981                           tablat	equ	0xFF5
  6982                           prodh	equ	0xFF4
  6983                           prodl	equ	0xFF3
  6984                           intcon	equ	0xFF2
  6985                           postinc0	equ	0xFEE
  6986                           fsr0h	equ	0xFEA
  6987                           fsr0l	equ	0xFE9
  6988                           wreg	equ	0xFE8
  6989                           postdec1	equ	0xFE5
  6990                           plusw1	equ	0xFE3
  6991                           fsr1h	equ	0xFE2
  6992                           fsr1l	equ	0xFE1
  6993                           indf2	equ	0xFDF
  6994                           postinc2	equ	0xFDE
  6995                           postdec2	equ	0xFDD
  6996                           plusw2	equ	0xFDB
  6997                           fsr2h	equ	0xFDA
  6998                           fsr2l	equ	0xFD9
  6999                           status	equ	0xFD8
  7000                           
  7001                           	psect	rparam
  7002  0000                     pclatu	equ	0xFFB
  7003                           pclath	equ	0xFFA
  7004                           tblptru	equ	0xFF8
  7005                           tblptrh	equ	0xFF7
  7006                           tblptrl	equ	0xFF6
  7007                           tablat	equ	0xFF5
  7008                           prodh	equ	0xFF4
  7009                           prodl	equ	0xFF3
  7010                           intcon	equ	0xFF2
  7011                           postinc0	equ	0xFEE
  7012                           fsr0h	equ	0xFEA
  7013                           fsr0l	equ	0xFE9
  7014                           wreg	equ	0xFE8
  7015                           postdec1	equ	0xFE5
  7016                           plusw1	equ	0xFE3
  7017                           fsr1h	equ	0xFE2
  7018                           fsr1l	equ	0xFE1
  7019                           indf2	equ	0xFDF
  7020                           postinc2	equ	0xFDE
  7021                           postdec2	equ	0xFDD
  7022                           plusw2	equ	0xFDB
  7023                           fsr2h	equ	0xFDA
  7024                           fsr2l	equ	0xFD9
  7025                           status	equ	0xFD8
  7026                           
  7027                           	psect	temp
  7028  000069                     btemp:
  7029                           	opt stack 0
  7030  000069                     	ds	1
  7031  0000                     int$flags	set	btemp
  7032  0000                     wtemp6	set	btemp+1
  7033                           pclatu	equ	0xFFB
  7034                           pclath	equ	0xFFA
  7035                           tblptru	equ	0xFF8
  7036                           tblptrh	equ	0xFF7
  7037                           tblptrl	equ	0xFF6
  7038                           tablat	equ	0xFF5
  7039                           prodh	equ	0xFF4
  7040                           prodl	equ	0xFF3
  7041                           intcon	equ	0xFF2
  7042                           postinc0	equ	0xFEE
  7043                           fsr0h	equ	0xFEA
  7044                           fsr0l	equ	0xFE9
  7045                           wreg	equ	0xFE8
  7046                           postdec1	equ	0xFE5
  7047                           plusw1	equ	0xFE3
  7048                           fsr1h	equ	0xFE2
  7049                           fsr1l	equ	0xFE1
  7050                           indf2	equ	0xFDF
  7051                           postinc2	equ	0xFDE
  7052                           postdec2	equ	0xFDD
  7053                           plusw2	equ	0xFDB
  7054                           fsr2h	equ	0xFDA
  7055                           fsr2l	equ	0xFD9
  7056                           status	equ	0xFD8


Data Sizes:
    Strings     0
    Constant    0
    Data        599
    BSS         6
    Persistent  2
    Stack       0

Auto Spaces:
    Space          Size  Autos    Used
    COMRAM          126     76     104
    BANK0           128      0     123
    BANK1           256      0     218
    BANK2           256      0     238
    BANK3           256     78      78
    BANK4           256      0       0
    BANK5           256      0       0

Pointer List with Targets:

    mode_clock@face_i	PTR int  size(2) Largest target is 26
		 -> face(BANK0[26]), 

    mode_clock@show	PTR int  size(2) Largest target is 80
		 -> MAS(BANK2[80]), X(BANK1[28]), 

    display_num@iter	PTR unsigned char  size(2) Largest target is 50
		 -> num(BANK1[50]), 

    mode_walker@show	PTR unsigned int  size(2) Largest target is 108
		 -> walker(BANK1[108]), 

    mode_tree@show_433	PTR int  size(2) Largest target is 42
		 -> tree(BANK0[42]), 

    mode_tree@show_427	PTR int  size(2) Largest target is 42
		 -> tree(BANK0[42]), 

    mode_tree@show_423	PTR int  size(2) Largest target is 42
		 -> tree(BANK0[42]), 

    mode_tree@show_417	PTR int  size(2) Largest target is 42
		 -> tree(BANK0[42]), 

    mode_tree@six_ptr_415	PTR int  size(2) Largest target is 12
		 -> mode_tree@six(BANK3[12]), 

    mode_tree@show	PTR int  size(2) Largest target is 42
		 -> tree(BANK0[42]), 

    mode_tree@six_ptr	PTR int  size(2) Largest target is 12
		 -> mode_tree@six(BANK3[12]), 

    mode_snow@show	PTR int  size(2) Largest target is 108
		 -> elk(BANK2[72]), snow_car(BANK2[86]), walker(BANK1[108]), 


Critical Paths under _main in COMRAM

    _main->_mode_clock
    _mode_walker->___wmul
    _mode_snow->___wmul
    _mode_clock->_display_num
    _display_num->___awdiv

Critical Paths under _tc_int in COMRAM

    None.

Critical Paths under _main in BANK0

    None.

Critical Paths under _tc_int in BANK0

    None.

Critical Paths under _main in BANK1

    None.

Critical Paths under _tc_int in BANK1

    None.

Critical Paths under _main in BANK2

    None.

Critical Paths under _tc_int in BANK2

    None.

Critical Paths under _main in BANK3

    _main->_mode_tree

Critical Paths under _tc_int in BANK3

    None.

Critical Paths under _main in BANK4

    None.

Critical Paths under _tc_int in BANK4

    None.

Critical Paths under _main in BANK5

    None.

Critical Paths under _tc_int in BANK5

    None.

Call Graph Tables:

 ---------------------------------------------------------------------------------
 (Depth) Function   	        Calls       Base Space   Used Autos Params    Refs
 ---------------------------------------------------------------------------------
 (0) _main                                                 0     0      0   16080
                     _mode_TransLove
                         _mode_clock
                          _mode_snow
                          _mode_tree
                        _mode_walker
 ---------------------------------------------------------------------------------
 (1) _mode_walker                                         62    62      0    4128
                                             24 COMRAM     6     6      0
                                              0 BANK3     56    56      0
                             ___wmul
 ---------------------------------------------------------------------------------
 (1) _mode_tree                                           80    80      0    2419
                                             18 COMRAM     2     2      0
                                              0 BANK3     78    78      0
 ---------------------------------------------------------------------------------
 (1) _mode_snow                                           22    22      0    2227
                                             24 COMRAM    22    22      0
                             ___wmul
 ---------------------------------------------------------------------------------
 (1) _mode_clock                                          40    40      0    6094
                                             36 COMRAM    40    40      0
                            ___awdiv
                            ___awmod
                             ___wmul
                        _display_num
 ---------------------------------------------------------------------------------
 (2) _display_num                                         10     8      2    2056
                                             26 COMRAM    10     8      2
                            ___awdiv (ARG)
                            ___awmod (ARG)
                             ___wmul
 ---------------------------------------------------------------------------------
 (2) ___wmul                                               6     2      4    1312
                                             18 COMRAM     6     2      4
 ---------------------------------------------------------------------------------
 (2) ___awmod                                              6     2      4     752
                                             18 COMRAM     6     2      4
 ---------------------------------------------------------------------------------
 (2) ___awdiv                                              8     4      4     756
                                             18 COMRAM     8     4      4
 ---------------------------------------------------------------------------------
 (1) _mode_TransLove                                      20    20      0    1212
                                             18 COMRAM    20    20      0
 ---------------------------------------------------------------------------------
 Estimated maximum stack depth 2
 ---------------------------------------------------------------------------------
 (Depth) Function   	        Calls       Base Space   Used Autos Params    Refs
 ---------------------------------------------------------------------------------
 (4) _tc_int                                              18    18      0       0
                                              0 COMRAM    18    18      0
                        _update_time
 ---------------------------------------------------------------------------------
 (5) _update_time                                          0     0      0       0
 ---------------------------------------------------------------------------------
 Estimated maximum stack depth 5
 ---------------------------------------------------------------------------------

 Call Graph Graphs:

 _main (ROOT)
   _mode_TransLove
   _mode_clock
     ___awdiv
     ___awmod
     ___wmul
     _display_num
       ___awdiv (ARG)
       ___awmod (ARG)
       ___wmul (ARG)
   _mode_snow
     ___wmul
   _mode_tree
   _mode_walker
     ___wmul

 _tc_int (ROOT)
   _update_time

 Address spaces:
Name               Size   Autos  Total    Cost      Usage
BIGRAM             5FF      0       0      17        0.0%
EEDATA             100      0       0       0        0.0%
BITBANK5           100      0       0      16        0.0%
BANK5              100      0       0      14        0.0%
BITBANK4           100      0       0      12        0.0%
BANK4              100      0       0      13        0.0%
BITBANK3           100      0       0      10        0.0%
BANK3              100     4E      4E      11       30.5%
BITBANK2           100      0       0       8        0.0%
BANK2              100      0      EE       9       93.0%
BITBANK1           100      0       0       6        0.0%
BANK1              100      0      DA       7       85.2%
BITBANK0            80      0       0       4        0.0%
BANK0               80      0      7B       5       96.1%
BITCOMRAM           7E      0       0       0        0.0%
COMRAM              7E     4C      68       1       82.5%
BITSFR               0      0       0     200        0.0%
SFR                  0      0       0     200        0.0%
STACK                0      0       0       2        0.0%
NULL                 0      0       0       0        0.0%
ABS                  0      0     2F9      15        0.0%
DATA                 0      0     2F9       3        0.0%
CODE                 0      0       0       0        0.0%


Microchip Technology PIC18 Macro Assembler V1.44 build -154322312 
Symbol Table                                                                                   Sat Dec 23 03:07:13 2017

                  _update_time 1E3A                              _A 0052                              _E 009E  
                            _L 00AD                              _N 004D                              _O 00A8  
                            _R 0057                              _S 00B2                              _T 005C  
                            _V 00A3                              _X 01BE                             l90 16F6  
                           l82 1650                             l83 1690                             l93 1742  
                           l94 1762                             l87 16D8                             l97 1796  
                 ?_display_num 001B                   ___awdiv@sign 0018            ___wmul@multiplicand 0015  
                  __CFG_LVP$ON 000000                            l100 17B4                            l102 180A  
                          l111 18A8                            l113 18B0                            l105 183E  
                          l202 0CFE                            l210 0C9A                            l122 0772  
                          l203 0C1C                            l108 185C                            l204 0C30  
                          l132 0808                            l124 077C                            l300 04DA  
                          l213 0CBA                            l205 0C48                            l141 0866  
                          l125 079C                            l301 04B8                            l150 092E  
                          l310 054E                            l207 0C68                            l135 0820  
                          l127 07BC                            l303 04C8                            l216 0CE0  
                          l240 0134                            l232 00CC                            l401 1C5C  
                          l161 09C2                            l153 093E                            l145 08AE  
                          l129 07F8                            l321 05E6                            l313 0556  
                          l305 04D0                            l233 00B2                            l225 0070  
                          l170 0A76                            l162 09B2                            l146 08D2  
                          l138 0840                            l306 050A                            l242 013C  
                          l234 00BA                            l226 0088                            l403 1C76  
                          l411 12C8                            l171 0A0A                            l163 09BA  
                          l251 0170                            l235 00EA                            l172 0A34  
                          l156 0956                            l148 08F2                            l332 0692  
                          l324 0606                            l316 056E                            l244 01E6  
                          l236 0118                            l309 052C                            l261 0220  
                          l253 0182                            l245 014E                            l229 0090  
                          l430 1432                            l422 13A0                            l414 1310  
                          l190 0B72                            l182 0B02                            l342 0712  
                          l318 05B8                            l407 1264                            l175 0A90  
                          l159 0976                            l335 06B2                            l327 0634  
                          l271 0348                            l263 0260                            l239 01B6  
                          l255 018A                            l247 0156                            l360 0D78  
                          l352 0D32                            l440 14F2                            l176 0AB0  
                          l168 0A4E                            l361 0D80                            l353 0D4E  
                          l433 1452                            l425 13D0                            l417 1340  
                          l409 12AC                            l193 0BA4                            l185 0B28  
                          l169 09FA                            l345 072A                            l337 070A  
                          l329 065C                            l257 019C                            l249 0168  
                          l370 0E8A                            l362 0D88                            l274 0326  
                          l266 0270                            l371 0ED2                            l355 0DB2  
                          l363 0D90                            l451 158E                            l443 1512  
                          l435 1488                            l427 1400                            l419 1358  
                          l179 0AE2                            l291 03F4                            l259 01A4  
                          l380 119E                            l372 0F1A                            l364 0D98  
                          l356 0D58                            l460 1606                            l436 1556  
                          l196 0BC4                            l284 03BE                            l373 0F62  
                          l357 0D60                            l437 14C0                            l189 0B52  
                          l269 0290                            l390 1240                            l382 11A6  
                          l374 0FAA                            l366 0DA0                            l358 0D68  
                          l454 15C0                            l446 1538                            l375 0FF2  
                          l359 0D70                            l199 0BEA                            l376 103A  
                          l368 0DFA                            l296 0454                            l385 11C2  
                          l377 1082                            l369 0E42                            l457 15E0  
                          l449 155E                            l481 1E24                            l378 10CA  
                          l298 0498                            l387 11F2                            l379 112C  
                          l395 1C2C                            l660 1CE4                            l652 1C8C  
                          l389 1210                            l661 1CF2                            l653 1C9C  
                          l398 1C40                            l655 1CBA                            l656 1CB2  
                          l672 1DC6                            l673 1DD0                            l665 1D8C  
                          l674 1DDE                            l666 1D98                            l659 1CDA  
                          l668 1DAE                            l669 1DA6                            _MAS 0256  
                          _elk 02A6                            _num 018C                   ___awmod@sign 0018  
                          wreg 000FE8                   __CFG_WDT$OFF 000000                           l3220 1C40  
                         l3212 1C1C                           l3300 17FA                           l3310 183E  
                         l3224 1C5C                           l3330 18B0                           l3250 16D8  
                         l3316 185C                           l3324 187A                           l3236 1680  
                         l3420 0956                           l3510 0BA4                           l3502 0B62  
                         l3406 08E2                           l3256 16F6                           l3264 1714  
                         l3424 0976                           l3416 093E                           l3432 0994  
                         l3282 1796                           l3514 0BC4                           l3522 0BE2  
                         l3442 09C2                           l3450 09E8                           l3354 07AC  
                         l3524 0BEA                           l3372 0840                           l3364 0808  
                         l3380 085E                           l3534 0C30                           l3470 0AA0  
                         l3382 0866                           l3390 088C                           l3630 013C  
                         l3288 17B4                           l3296 17D2                           l3552 0C9A  
                         l3544 0C58                           l3368 0820                           l3704 036A  
                         l3720 0424                           l3608 0090                           l2930 0ED2  
                         l3482 0B02                           l3490 0B20                           l3466 0A90  
                         l3810 0692                           l3714 03F4                           l3642 018A  
                         l3634 0156                           l2924 0E8A                           l2908 0DA0  
                         l3492 0B28                           l3820 06C8                           l2942 0F62  
                         l2918 0E42                           l3902 13D0                           l3558 0CBA  
                         l3566 0CD8                           l3574 0CFE                           l3478 0AE2  
                         l3814 06B2                           l3750 04DA                           l3670 0290  
                         l3646 01A4                           l3638 0170                           l2960 103A  
                         l2936 0F1A                           l3920 1452                           l3568 0CE0  
                         l3832 0712                           l3736 0488                           l3728 0454  
                         l3656 0210                           l3752 050A                           l2954 0FF2  
                         l3498 0B52                           l3834 0722                           l3770 05A8  
                         l3762 0556                           l3666 0270                           l2972 10CA  
                         l2948 0FAA                           l3916 1432                           l3908 13F0  
                         l3836 072A                           l3764 056E                           l2990 11C2  
                         l2966 1082                           l3950 1512                           l3782 0606  
                         l3790 0624                           l3678 02AE                           l3960 1538  
                         l3928 1470                           l3864 12AC                           l3688 02E8  
                         l2986 11A6                           l3946 14F2                           l3938 14B0  
                         l3794 0634                           l3778 05E6                           l2996 11E0  
                         l3884 1340                           l3982 15C0                           l3974 157E  
                         l3958 1530                           l3966 1556                           l3878 1310  
                         l3798 064C                           l3968 155E                           l3896 13A0  
                         l3986 15E0                           l3994 15FE                           l3996 1606  
                         _LATA 000F89                           u2150 1DB2                           _LATD 000F8C  
                         u2090 1CBE                           u4110 17D2                           u3400 0E0A  
                         u4201 0756                           u3410 0E1A                           u4050 1714  
                         u3500 0F72                           u3420 0E52                           u4301 089A  
                         u5021 0518                           u3510 0F82                           u3430 0E62  
                         u4150 187A                           u4310 08D0                           u3520 0FBA  
                         u3440 0E9A                           u4240 0818                           u5040 0566  
                         u5201 074A                           u3530 0FCA                           u3450 0EAA  
                         u4410 09E8                           u3700 1228                           u3540 1002  
                         u3460 0EE2                           u3380 0D4C                           u4180 18C0  
                         u4340 094E                           u5140 06C8                           u4421 09F8  
                         u3550 1012                           u3470 0EF2                           u5310 1470  
                         u4270 085E                           u5150 06D8                           u3711 1250  
                         u4191 18D0                           u4431 0A84                           u3560 104A  
                         u3480 0F2A                           u3570 105A                           u3490 0F3A  
                         u4610 0CD8                           u4530 0BE2                           u4370 0994  
                         u4290 088C                           u5090 0624                           u3660 11E0  
                         u3580 1092                           u4540 0BFA                           u5180 0722  
                         u4700 0100                           u3590 10A2                           u5430 15FE  
                         u4630 0CFE                           u4470 0B20                           u5190 073A  
                         u4710 0132                           u5440 1616                           u5360 1530  
                         u4560 0C2C                           u4480 0B38                           u4810 02AE  
                         u4651 001C                           u5380 1556                           u4660 007E  
                         u4910 036A                           u4830 02D0                           u4670 00A0  
                         u4850 02E8                           u4940 0386                           u4960 0424  
                         u4880 0304                           _TMR1 000FCE                           _face 00E1  
                         _main 1DE8                           _love 008C                           _tree 00B7  
                         fsr0h 000FEA                           fsr1h 000FE2                           fsr2h 000FDA  
                         fsr0l 000FE9                           indf2 000FDF                           fsr1l 000FE1  
                         fsr2l 000FD9                           btemp 0069       mode_TransLove@stop_arrow 001D  
                         prodh 000FF4                           prodl 000FF3                           start 000E  
                __CFG_MCLRE$ON 000000                   ___param_bank 000000                          ?_main 0001  
               mode_clock@dark 0033                __end_of___awdiv 1CFC                __end_of___awmod 1DE8  
               mode_clock@minH 0029                 mode_clock@minL 002B                 mode_clock@secH 002D  
               mode_clock@secL 002F                ___awdiv@divisor 0015                          _T1CON 000FCD  
               mode_clock@show 0049                          i2l475 1B0E                ___awdiv@counter 0017  
                        _TRISA 000F92                          _TRISD 000F95               ??_mode_TransLove 0013  
                        _arrow 0100                          _count 0065                          _hours 0067  
                mode_tree@dark 0306                          pclath 000FFA                          tablat 000FF5  
                mode_tree@move 0324                  mode_tree@wait 0308                  mode_tree@show 0320  
                        plusw1 000FE3                          plusw2 000FDB                   display_num@i 0023  
                 display_num@n 001B                          status 000FD8                          wtemp6 006A  
                 ?_mode_walker 0001                  mode_snow@show 002B                __initialization 1B5A  
                 __end_of_main 1E3A            display_num@bright_i 001D                         ??_main 004D  
                __activetblptr 000002                mode_clock@i_491 0047                mode_clock@i_496 0045  
              mode_clock@delay 004B               ___awdiv@dividend 0013                mode_clock@state 003D  
                       _TMR1IE 007CE8                         _TMR1IF 007CF0                 mode_tree@F3046 0080  
                       ___wmul 1E7E                      ??___awdiv 0017            mode_tree@bright_420 030A  
          mode_tree@bright_425 030E          mode_snow@walker_pic_i 0021            mode_tree@bright_435 0316  
          mode_tree@bright_429 0312                      ??___awmod 0017                         _tc_int 0008  
             ___awdiv@quotient 0019                ___awmod@divisor 0015                         _walker 0120  
              ___awmod@counter 0017                 mode_tree@i_424 032C                 mode_tree@i_434 0336  
               mode_tree@i_418 0328                 mode_tree@i_428 0330           __size_of_display_num 0084  
               mode_tree@delay 034C                 mode_tree@cycle 0344                 mode_tree@count 034A  
                 __pdataCOMRAM 004D                 mode_tree@six_i 031E                 mode_tree@state 0302  
                       tblptrh 000FF7                         tblptrl 000FF6                         tblptru 000FF8  
               mode_snow@i_400 0027                 mode_snow@i_399 0025                 mode_snow@delay 002D  
          mode_TransLove@delay 0021            mode_TransLove@cycle 0017                     __accesstop 0080  
      __end_of__initialization 1BE6                __CFG_PBADEN$OFF 000000                  ___rparam_used 000001  
                  mode_clock@i 003F                    mode_clock@j 0041                 __pcstackCOMRAM 0001  
                 ?_update_time 0001                   __pidataBANK0 1CFC                   __pidataBANK1 19C0  
                 __pidataBANK2 18D2                     __pnvCOMRAM 0067           __size_of_mode_walker 073A  
           __size_of_mode_tree 05C4             __size_of_mode_snow 02AC                        ?___wmul 0013  
             mode_clock@face_i 0043                        ?_tc_int 0001               mode_clock@bright 0031  
     mode_walker@display_cycle 032A             mode_clock@dark_494 0037             mode_clock@dark_498 003B  
                      __Hparam 0000                        __Lparam 0000                        ___awdiv 1C78  
                      ___awmod 1D78                __size_of___wmul 0026                        __pcinit 1B5A  
                      __ramtop 0600                __size_of_tc_int 1B52      mode_TransLove@arrow_speed 001F  
                      __ptext0 1DE8                        __ptext1 0012                        __ptext2 074C  
                      __ptext3 1626                        __ptext4 1252                        __ptext5 1BF4  
                      __ptext6 1E7E                        __ptext7 1D78                        __ptext8 1C78  
                      __ptext9 0D10                     _mode_clock 1252               ___awmod@dividend 0013  
                      _minutes 0061                        _seconds 0063                mode_walker@dark 0302  
            __end_of_mode_tree 0D10              __end_of_mode_snow 18D2                mode_walker@four 0322  
              mode_walker@move 0332                mode_walker@show 032E                 __pintcode_body 1A9A  
         end_of_initialization 1BE6                mode_tree@bright 0304                  __Lmediumconst 0000  
                      int_func 1A9A                mode_tree@tree_i 0332                        postdec1 000FE5  
                      postdec2 000FDD                        postinc0 000FEE                        postinc2 000FDE  
         __size_of_update_time 0044           mode_TransLove@bright 0019        __size_of_mode_TransLove 0542  
                ??_display_num 001D                 __end_of___wmul 1EA4                  __pidataCOMRAM 1EA4  
                 mode_walker@i 0336                 __end_of_tc_int 1B5A                    ?_mode_clock 0001  
                 mode_tree@six 0338            start_initialization 1B5A         mode_snow@display_cycle 001B  
             __CFG_OSC$INTIO67 000000           mode_clock@bright_493 0035           mode_clock@bright_497 0039  
                     ??___wmul 0017                    __pdataBANK0 0080                    __pdataBANK1 0100  
                  __pdataBANK2 0200                       ??_tc_int 0001             mode_TransLove@dark 001B  
          __end_of_display_num 1C78                    __pbssCOMRAM 0061                  __pcstackBANK3 0300  
                   mode_tree@i 0322                     mode_snow@i 0029                  ??_mode_walker 0019  
          __size_of_mode_clock 03D4             mode_tree@six_i_416 0346    mode_walker@update_next_time 0312  
                    __pintcode 0008                       ?___awdiv 0013                       ?___awmod 0013  
       mode_walker@pic_cycle_i 0320           mode_tree@six_ptr_415 031C                      _mode_tree 074C  
                    _mode_snow 1626                 _mode_TransLove 0D10                 ___wmul@product 0017  
                     _LATAbits 000F89                       _LATDbits 000F8C                       _IPR1bits 000F9F  
                     _PIE1bits 000F9D                       _PIR1bits 000F9E                       _RCONbits 000FD0  
            mode_walker@bright 0300            __end_of_mode_walker 074C              mode_walker@column 031A  
            mode_walker@update 0310                    _display_num 1BF4              ___wmul@multiplier 0013  
                    copy_data0 1B6E                      copy_data1 1B8E                      copy_data2 1BAE  
                    copy_data3 1BCE         __end_of_mode_TransLove 1252          mode_walker@bright_461 0308  
        mode_walker@bright_457 0304                     ?_mode_tree 0001                     ?_mode_snow 0001  
            display_num@dark_i 001F              mode_tree@dark_421 030C              mode_tree@dark_430 0314  
            mode_tree@dark_426 0310              mode_tree@dark_436 0318                       __Hrparam 0000  
        mode_walker@column_460 031E          mode_walker@column_456 031C                       __Lrparam 0000  
                ??_update_time 0001               __size_of___awdiv 0084               __size_of___awmod 0070  
            mode_tree@interval 0348                   ??_mode_clock 0025              mode_tree@show_423 032A  
            mode_tree@show_433 0334              mode_tree@show_417 0326              mode_tree@show_427 032E  
                     __ptext11 1E3A        mode_clock@display_cycle 0027             mode_snow@elk_pic_i 0023  
              ?_mode_TransLove 0001               mode_walker@F3089 0096                  __size_of_main 0052  
                  _mode_walker 0012             mode_snow@count_elk 001F             __end_of_mode_clock 1626  
             mode_walker@delay 0334  mode_walker@state_change_cycle 030C               mode_walker@pic_i 032C  
             mode_walker@state 0330                       int$flags 0069          mode_snow@count_walker 001D  
                     _snow_car 0200            __end_of_update_time 1E7E                     _INTCONbits 000FF2  
             mode_tree@count_4 0300                       intlevel2 0000                    ??_mode_tree 0013  
                  ??_mode_snow 0019               mode_tree@six_ptr 031A           mode_walker@pic_cycle 0314  
                   _OSCCONbits 000FD3            mode_walker@dark_462 030A            mode_walker@dark_455 0316  
          mode_walker@dark_458 0306            mode_walker@dark_459 030E                display_num@iter 0021  
              mode_TransLove@i 0025          mode_TransLove@arrow_i 0023  
